ARM GAS  /tmp/cce47g5y.s 			page 1


   1              		.cpu cortex-m3
   2              		.eabi_attribute 20, 1
   3              		.eabi_attribute 21, 1
   4              		.eabi_attribute 23, 3
   5              		.eabi_attribute 24, 1
   6              		.eabi_attribute 25, 1
   7              		.eabi_attribute 26, 1
   8              		.eabi_attribute 30, 1
   9              		.eabi_attribute 34, 1
  10              		.eabi_attribute 18, 4
  11              		.file	"cmsis_os2.c"
  12              		.text
  13              	.Ltext0:
  14              		.cfi_sections	.debug_frame
  15              		.section	.text.TimerCallback,"ax",%progbits
  16              		.align	1
  17              		.syntax unified
  18              		.thumb
  19              		.thumb_func
  20              		.fpu softvfp
  22              	TimerCallback:
  23              	.LFB80:
  24              		.file 1 "Middlewares/Third_Party/FreeRTOS/Source/CMSIS_RTOS_V2/cmsis_os2.c"
   1:Middlewares/Third_Party/FreeRTOS/Source/CMSIS_RTOS_V2/cmsis_os2.c **** /* --------------------------------------------------------------------------
   2:Middlewares/Third_Party/FreeRTOS/Source/CMSIS_RTOS_V2/cmsis_os2.c ****  * Portions Copyright © 2017 STMicroelectronics International N.V. All rights reserved.
   3:Middlewares/Third_Party/FreeRTOS/Source/CMSIS_RTOS_V2/cmsis_os2.c ****  * Portions Copyright (c) 2013-2017 ARM Limited. All rights reserved.
   4:Middlewares/Third_Party/FreeRTOS/Source/CMSIS_RTOS_V2/cmsis_os2.c ****  * --------------------------------------------------------------------------
   5:Middlewares/Third_Party/FreeRTOS/Source/CMSIS_RTOS_V2/cmsis_os2.c ****  *
   6:Middlewares/Third_Party/FreeRTOS/Source/CMSIS_RTOS_V2/cmsis_os2.c ****  * SPDX-License-Identifier: Apache-2.0
   7:Middlewares/Third_Party/FreeRTOS/Source/CMSIS_RTOS_V2/cmsis_os2.c ****  *
   8:Middlewares/Third_Party/FreeRTOS/Source/CMSIS_RTOS_V2/cmsis_os2.c ****  * Licensed under the Apache License, Version 2.0 (the License); you may
   9:Middlewares/Third_Party/FreeRTOS/Source/CMSIS_RTOS_V2/cmsis_os2.c ****  * not use this file except in compliance with the License.
  10:Middlewares/Third_Party/FreeRTOS/Source/CMSIS_RTOS_V2/cmsis_os2.c ****  * You may obtain a copy of the License at
  11:Middlewares/Third_Party/FreeRTOS/Source/CMSIS_RTOS_V2/cmsis_os2.c ****  *
  12:Middlewares/Third_Party/FreeRTOS/Source/CMSIS_RTOS_V2/cmsis_os2.c ****  * www.apache.org/licenses/LICENSE-2.0
  13:Middlewares/Third_Party/FreeRTOS/Source/CMSIS_RTOS_V2/cmsis_os2.c ****  *
  14:Middlewares/Third_Party/FreeRTOS/Source/CMSIS_RTOS_V2/cmsis_os2.c ****  * Unless required by applicable law or agreed to in writing, software
  15:Middlewares/Third_Party/FreeRTOS/Source/CMSIS_RTOS_V2/cmsis_os2.c ****  * distributed under the License is distributed on an AS IS BASIS, WITHOUT
  16:Middlewares/Third_Party/FreeRTOS/Source/CMSIS_RTOS_V2/cmsis_os2.c ****  * WARRANTIES OR CONDITIONS OF ANY KIND, either express or implied.
  17:Middlewares/Third_Party/FreeRTOS/Source/CMSIS_RTOS_V2/cmsis_os2.c ****  * See the License for the specific language governing permissions and
  18:Middlewares/Third_Party/FreeRTOS/Source/CMSIS_RTOS_V2/cmsis_os2.c ****  * limitations under the License.
  19:Middlewares/Third_Party/FreeRTOS/Source/CMSIS_RTOS_V2/cmsis_os2.c ****  *
  20:Middlewares/Third_Party/FreeRTOS/Source/CMSIS_RTOS_V2/cmsis_os2.c ****  *      Name:    cmsis_os2.c
  21:Middlewares/Third_Party/FreeRTOS/Source/CMSIS_RTOS_V2/cmsis_os2.c ****  *      Purpose: CMSIS RTOS2 wrapper for FreeRTOS
  22:Middlewares/Third_Party/FreeRTOS/Source/CMSIS_RTOS_V2/cmsis_os2.c ****  *
  23:Middlewares/Third_Party/FreeRTOS/Source/CMSIS_RTOS_V2/cmsis_os2.c ****  *---------------------------------------------------------------------------*/
  24:Middlewares/Third_Party/FreeRTOS/Source/CMSIS_RTOS_V2/cmsis_os2.c **** 
  25:Middlewares/Third_Party/FreeRTOS/Source/CMSIS_RTOS_V2/cmsis_os2.c **** #include <string.h>
  26:Middlewares/Third_Party/FreeRTOS/Source/CMSIS_RTOS_V2/cmsis_os2.c **** 
  27:Middlewares/Third_Party/FreeRTOS/Source/CMSIS_RTOS_V2/cmsis_os2.c **** #include "cmsis_os2.h"                  // ::CMSIS:RTOS2
  28:Middlewares/Third_Party/FreeRTOS/Source/CMSIS_RTOS_V2/cmsis_os2.c **** #include "cmsis_compiler.h"
  29:Middlewares/Third_Party/FreeRTOS/Source/CMSIS_RTOS_V2/cmsis_os2.c **** 
  30:Middlewares/Third_Party/FreeRTOS/Source/CMSIS_RTOS_V2/cmsis_os2.c **** #include "FreeRTOS.h"                   // ARM.FreeRTOS::RTOS:Core
  31:Middlewares/Third_Party/FreeRTOS/Source/CMSIS_RTOS_V2/cmsis_os2.c **** #include "task.h"                       // ARM.FreeRTOS::RTOS:Core
  32:Middlewares/Third_Party/FreeRTOS/Source/CMSIS_RTOS_V2/cmsis_os2.c **** #include "event_groups.h"               // ARM.FreeRTOS::RTOS:Event Groups
  33:Middlewares/Third_Party/FreeRTOS/Source/CMSIS_RTOS_V2/cmsis_os2.c **** #include "semphr.h"                     // ARM.FreeRTOS::RTOS:Core
  34:Middlewares/Third_Party/FreeRTOS/Source/CMSIS_RTOS_V2/cmsis_os2.c **** 
ARM GAS  /tmp/cce47g5y.s 			page 2


  35:Middlewares/Third_Party/FreeRTOS/Source/CMSIS_RTOS_V2/cmsis_os2.c **** /*---------------------------------------------------------------------------*/
  36:Middlewares/Third_Party/FreeRTOS/Source/CMSIS_RTOS_V2/cmsis_os2.c **** #ifndef __ARM_ARCH_6M__
  37:Middlewares/Third_Party/FreeRTOS/Source/CMSIS_RTOS_V2/cmsis_os2.c ****   #define __ARM_ARCH_6M__         0
  38:Middlewares/Third_Party/FreeRTOS/Source/CMSIS_RTOS_V2/cmsis_os2.c **** #endif
  39:Middlewares/Third_Party/FreeRTOS/Source/CMSIS_RTOS_V2/cmsis_os2.c **** #ifndef __ARM_ARCH_7M__
  40:Middlewares/Third_Party/FreeRTOS/Source/CMSIS_RTOS_V2/cmsis_os2.c ****   #define __ARM_ARCH_7M__         0
  41:Middlewares/Third_Party/FreeRTOS/Source/CMSIS_RTOS_V2/cmsis_os2.c **** #endif
  42:Middlewares/Third_Party/FreeRTOS/Source/CMSIS_RTOS_V2/cmsis_os2.c **** #ifndef __ARM_ARCH_7EM__
  43:Middlewares/Third_Party/FreeRTOS/Source/CMSIS_RTOS_V2/cmsis_os2.c ****   #define __ARM_ARCH_7EM__        0
  44:Middlewares/Third_Party/FreeRTOS/Source/CMSIS_RTOS_V2/cmsis_os2.c **** #endif
  45:Middlewares/Third_Party/FreeRTOS/Source/CMSIS_RTOS_V2/cmsis_os2.c **** #ifndef __ARM_ARCH_8M_MAIN__
  46:Middlewares/Third_Party/FreeRTOS/Source/CMSIS_RTOS_V2/cmsis_os2.c ****   #define __ARM_ARCH_8M_MAIN__    0
  47:Middlewares/Third_Party/FreeRTOS/Source/CMSIS_RTOS_V2/cmsis_os2.c **** #endif
  48:Middlewares/Third_Party/FreeRTOS/Source/CMSIS_RTOS_V2/cmsis_os2.c **** #ifndef __ARM_ARCH_7A__
  49:Middlewares/Third_Party/FreeRTOS/Source/CMSIS_RTOS_V2/cmsis_os2.c ****   #define __ARM_ARCH_7A__         0
  50:Middlewares/Third_Party/FreeRTOS/Source/CMSIS_RTOS_V2/cmsis_os2.c **** #endif
  51:Middlewares/Third_Party/FreeRTOS/Source/CMSIS_RTOS_V2/cmsis_os2.c **** 
  52:Middlewares/Third_Party/FreeRTOS/Source/CMSIS_RTOS_V2/cmsis_os2.c **** #if   ((__ARM_ARCH_7M__      == 1U) || \
  53:Middlewares/Third_Party/FreeRTOS/Source/CMSIS_RTOS_V2/cmsis_os2.c ****        (__ARM_ARCH_7EM__     == 1U) || \
  54:Middlewares/Third_Party/FreeRTOS/Source/CMSIS_RTOS_V2/cmsis_os2.c ****        (__ARM_ARCH_8M_MAIN__ == 1U))
  55:Middlewares/Third_Party/FreeRTOS/Source/CMSIS_RTOS_V2/cmsis_os2.c **** #define IS_IRQ_MASKED()           ((__get_PRIMASK() != 0U) || ((KernelState == osKernelRunning) && 
  56:Middlewares/Third_Party/FreeRTOS/Source/CMSIS_RTOS_V2/cmsis_os2.c **** #elif  (__ARM_ARCH_6M__      == 1U)
  57:Middlewares/Third_Party/FreeRTOS/Source/CMSIS_RTOS_V2/cmsis_os2.c **** #define IS_IRQ_MASKED()           ((__get_PRIMASK() != 0U) &&  (KernelState == osKernelRunning))
  58:Middlewares/Third_Party/FreeRTOS/Source/CMSIS_RTOS_V2/cmsis_os2.c **** #elif (__ARM_ARCH_7A__       == 1)
  59:Middlewares/Third_Party/FreeRTOS/Source/CMSIS_RTOS_V2/cmsis_os2.c **** #define IS_IRQ_MASKED()           (0U)
  60:Middlewares/Third_Party/FreeRTOS/Source/CMSIS_RTOS_V2/cmsis_os2.c **** #else
  61:Middlewares/Third_Party/FreeRTOS/Source/CMSIS_RTOS_V2/cmsis_os2.c **** #define IS_IRQ_MASKED()           (__get_PRIMASK() != 0U)
  62:Middlewares/Third_Party/FreeRTOS/Source/CMSIS_RTOS_V2/cmsis_os2.c **** #endif
  63:Middlewares/Third_Party/FreeRTOS/Source/CMSIS_RTOS_V2/cmsis_os2.c **** 
  64:Middlewares/Third_Party/FreeRTOS/Source/CMSIS_RTOS_V2/cmsis_os2.c **** #if    (__ARM_ARCH_7A__      == 1U)
  65:Middlewares/Third_Party/FreeRTOS/Source/CMSIS_RTOS_V2/cmsis_os2.c **** /* CPSR mode bitmasks */
  66:Middlewares/Third_Party/FreeRTOS/Source/CMSIS_RTOS_V2/cmsis_os2.c **** #define CPSR_MODE_USER            0x10U
  67:Middlewares/Third_Party/FreeRTOS/Source/CMSIS_RTOS_V2/cmsis_os2.c **** #define CPSR_MODE_SYSTEM          0x1FU
  68:Middlewares/Third_Party/FreeRTOS/Source/CMSIS_RTOS_V2/cmsis_os2.c **** 
  69:Middlewares/Third_Party/FreeRTOS/Source/CMSIS_RTOS_V2/cmsis_os2.c **** #define IS_IRQ_MODE()             ((__get_mode() != CPSR_MODE_USER) && (__get_mode() != CPSR_MODE_S
  70:Middlewares/Third_Party/FreeRTOS/Source/CMSIS_RTOS_V2/cmsis_os2.c **** #else
  71:Middlewares/Third_Party/FreeRTOS/Source/CMSIS_RTOS_V2/cmsis_os2.c **** #define IS_IRQ_MODE()             (__get_IPSR() != 0U)
  72:Middlewares/Third_Party/FreeRTOS/Source/CMSIS_RTOS_V2/cmsis_os2.c **** #endif
  73:Middlewares/Third_Party/FreeRTOS/Source/CMSIS_RTOS_V2/cmsis_os2.c **** 
  74:Middlewares/Third_Party/FreeRTOS/Source/CMSIS_RTOS_V2/cmsis_os2.c **** #define IS_IRQ()                  (IS_IRQ_MODE() || IS_IRQ_MASKED())
  75:Middlewares/Third_Party/FreeRTOS/Source/CMSIS_RTOS_V2/cmsis_os2.c **** 
  76:Middlewares/Third_Party/FreeRTOS/Source/CMSIS_RTOS_V2/cmsis_os2.c **** /* Limits */
  77:Middlewares/Third_Party/FreeRTOS/Source/CMSIS_RTOS_V2/cmsis_os2.c **** #define MAX_BITS_TASK_NOTIFY      31U
  78:Middlewares/Third_Party/FreeRTOS/Source/CMSIS_RTOS_V2/cmsis_os2.c **** #define MAX_BITS_EVENT_GROUPS     24U
  79:Middlewares/Third_Party/FreeRTOS/Source/CMSIS_RTOS_V2/cmsis_os2.c **** 
  80:Middlewares/Third_Party/FreeRTOS/Source/CMSIS_RTOS_V2/cmsis_os2.c **** #define THREAD_FLAGS_INVALID_BITS (~((1UL << MAX_BITS_TASK_NOTIFY)  - 1U))
  81:Middlewares/Third_Party/FreeRTOS/Source/CMSIS_RTOS_V2/cmsis_os2.c **** #define EVENT_FLAGS_INVALID_BITS  (~((1UL << MAX_BITS_EVENT_GROUPS) - 1U))
  82:Middlewares/Third_Party/FreeRTOS/Source/CMSIS_RTOS_V2/cmsis_os2.c **** 
  83:Middlewares/Third_Party/FreeRTOS/Source/CMSIS_RTOS_V2/cmsis_os2.c **** /* Kernel version and identification string definition */
  84:Middlewares/Third_Party/FreeRTOS/Source/CMSIS_RTOS_V2/cmsis_os2.c **** #define KERNEL_VERSION            (((uint32_t)tskKERNEL_VERSION_MAJOR * 10000000UL) | \
  85:Middlewares/Third_Party/FreeRTOS/Source/CMSIS_RTOS_V2/cmsis_os2.c ****                                    ((uint32_t)tskKERNEL_VERSION_MINOR *    10000UL) | \
  86:Middlewares/Third_Party/FreeRTOS/Source/CMSIS_RTOS_V2/cmsis_os2.c ****                                    ((uint32_t)tskKERNEL_VERSION_BUILD *        1UL))
  87:Middlewares/Third_Party/FreeRTOS/Source/CMSIS_RTOS_V2/cmsis_os2.c **** 
  88:Middlewares/Third_Party/FreeRTOS/Source/CMSIS_RTOS_V2/cmsis_os2.c **** #define KERNEL_ID                 "FreeRTOS V10.0.1"
  89:Middlewares/Third_Party/FreeRTOS/Source/CMSIS_RTOS_V2/cmsis_os2.c **** 
  90:Middlewares/Third_Party/FreeRTOS/Source/CMSIS_RTOS_V2/cmsis_os2.c **** /* Timer callback information structure definition */
  91:Middlewares/Third_Party/FreeRTOS/Source/CMSIS_RTOS_V2/cmsis_os2.c **** typedef struct {
ARM GAS  /tmp/cce47g5y.s 			page 3


  92:Middlewares/Third_Party/FreeRTOS/Source/CMSIS_RTOS_V2/cmsis_os2.c ****   osTimerFunc_t func;
  93:Middlewares/Third_Party/FreeRTOS/Source/CMSIS_RTOS_V2/cmsis_os2.c ****   void         *arg;
  94:Middlewares/Third_Party/FreeRTOS/Source/CMSIS_RTOS_V2/cmsis_os2.c **** } TimerCallback_t;
  95:Middlewares/Third_Party/FreeRTOS/Source/CMSIS_RTOS_V2/cmsis_os2.c **** 
  96:Middlewares/Third_Party/FreeRTOS/Source/CMSIS_RTOS_V2/cmsis_os2.c **** /* Kernel initialization state */
  97:Middlewares/Third_Party/FreeRTOS/Source/CMSIS_RTOS_V2/cmsis_os2.c **** static osKernelState_t KernelState;
  98:Middlewares/Third_Party/FreeRTOS/Source/CMSIS_RTOS_V2/cmsis_os2.c **** 
  99:Middlewares/Third_Party/FreeRTOS/Source/CMSIS_RTOS_V2/cmsis_os2.c **** /* Heap region definition used by heap_5 variant */
 100:Middlewares/Third_Party/FreeRTOS/Source/CMSIS_RTOS_V2/cmsis_os2.c **** #if defined(USE_FreeRTOS_HEAP_5)
 101:Middlewares/Third_Party/FreeRTOS/Source/CMSIS_RTOS_V2/cmsis_os2.c **** #if (configAPPLICATION_ALLOCATED_HEAP == 1)
 102:Middlewares/Third_Party/FreeRTOS/Source/CMSIS_RTOS_V2/cmsis_os2.c **** /*
 103:Middlewares/Third_Party/FreeRTOS/Source/CMSIS_RTOS_V2/cmsis_os2.c ****   The application writer has already defined the array used for the RTOS
 104:Middlewares/Third_Party/FreeRTOS/Source/CMSIS_RTOS_V2/cmsis_os2.c ****   heap - probably so it can be placed in a special segment or address.
 105:Middlewares/Third_Party/FreeRTOS/Source/CMSIS_RTOS_V2/cmsis_os2.c **** */
 106:Middlewares/Third_Party/FreeRTOS/Source/CMSIS_RTOS_V2/cmsis_os2.c ****   extern uint8_t ucHeap[configTOTAL_HEAP_SIZE];
 107:Middlewares/Third_Party/FreeRTOS/Source/CMSIS_RTOS_V2/cmsis_os2.c **** #else
 108:Middlewares/Third_Party/FreeRTOS/Source/CMSIS_RTOS_V2/cmsis_os2.c ****   static uint8_t ucHeap[configTOTAL_HEAP_SIZE];
 109:Middlewares/Third_Party/FreeRTOS/Source/CMSIS_RTOS_V2/cmsis_os2.c **** #endif /* configAPPLICATION_ALLOCATED_HEAP */
 110:Middlewares/Third_Party/FreeRTOS/Source/CMSIS_RTOS_V2/cmsis_os2.c **** 
 111:Middlewares/Third_Party/FreeRTOS/Source/CMSIS_RTOS_V2/cmsis_os2.c **** static HeapRegion_t xHeapRegions[] = {
 112:Middlewares/Third_Party/FreeRTOS/Source/CMSIS_RTOS_V2/cmsis_os2.c ****   { ucHeap, configTOTAL_HEAP_SIZE },
 113:Middlewares/Third_Party/FreeRTOS/Source/CMSIS_RTOS_V2/cmsis_os2.c ****   { NULL,   0                     }
 114:Middlewares/Third_Party/FreeRTOS/Source/CMSIS_RTOS_V2/cmsis_os2.c **** };
 115:Middlewares/Third_Party/FreeRTOS/Source/CMSIS_RTOS_V2/cmsis_os2.c **** #endif /* USE_FreeRTOS_HEAP_5 */
 116:Middlewares/Third_Party/FreeRTOS/Source/CMSIS_RTOS_V2/cmsis_os2.c **** 
 117:Middlewares/Third_Party/FreeRTOS/Source/CMSIS_RTOS_V2/cmsis_os2.c **** #if defined(SysTick)
 118:Middlewares/Third_Party/FreeRTOS/Source/CMSIS_RTOS_V2/cmsis_os2.c **** /* FreeRTOS tick timer interrupt handler prototype */
 119:Middlewares/Third_Party/FreeRTOS/Source/CMSIS_RTOS_V2/cmsis_os2.c **** extern void xPortSysTickHandler (void);
 120:Middlewares/Third_Party/FreeRTOS/Source/CMSIS_RTOS_V2/cmsis_os2.c **** 
 121:Middlewares/Third_Party/FreeRTOS/Source/CMSIS_RTOS_V2/cmsis_os2.c **** /*
 122:Middlewares/Third_Party/FreeRTOS/Source/CMSIS_RTOS_V2/cmsis_os2.c ****   SysTick handler implementation that also clears overflow flag.
 123:Middlewares/Third_Party/FreeRTOS/Source/CMSIS_RTOS_V2/cmsis_os2.c **** */
 124:Middlewares/Third_Party/FreeRTOS/Source/CMSIS_RTOS_V2/cmsis_os2.c **** void SysTick_Handler (void) {
 125:Middlewares/Third_Party/FreeRTOS/Source/CMSIS_RTOS_V2/cmsis_os2.c ****   /* Clear overflow flag */
 126:Middlewares/Third_Party/FreeRTOS/Source/CMSIS_RTOS_V2/cmsis_os2.c ****   SysTick->CTRL;
 127:Middlewares/Third_Party/FreeRTOS/Source/CMSIS_RTOS_V2/cmsis_os2.c **** 
 128:Middlewares/Third_Party/FreeRTOS/Source/CMSIS_RTOS_V2/cmsis_os2.c ****   /* Call tick handler */
 129:Middlewares/Third_Party/FreeRTOS/Source/CMSIS_RTOS_V2/cmsis_os2.c ****   xPortSysTickHandler();
 130:Middlewares/Third_Party/FreeRTOS/Source/CMSIS_RTOS_V2/cmsis_os2.c **** }
 131:Middlewares/Third_Party/FreeRTOS/Source/CMSIS_RTOS_V2/cmsis_os2.c **** #endif /* SysTick */
 132:Middlewares/Third_Party/FreeRTOS/Source/CMSIS_RTOS_V2/cmsis_os2.c **** 
 133:Middlewares/Third_Party/FreeRTOS/Source/CMSIS_RTOS_V2/cmsis_os2.c **** /*---------------------------------------------------------------------------*/
 134:Middlewares/Third_Party/FreeRTOS/Source/CMSIS_RTOS_V2/cmsis_os2.c **** 
 135:Middlewares/Third_Party/FreeRTOS/Source/CMSIS_RTOS_V2/cmsis_os2.c **** osStatus_t osKernelInitialize (void) {
 136:Middlewares/Third_Party/FreeRTOS/Source/CMSIS_RTOS_V2/cmsis_os2.c ****   osStatus_t stat;
 137:Middlewares/Third_Party/FreeRTOS/Source/CMSIS_RTOS_V2/cmsis_os2.c **** 
 138:Middlewares/Third_Party/FreeRTOS/Source/CMSIS_RTOS_V2/cmsis_os2.c ****   if (IS_IRQ()) {
 139:Middlewares/Third_Party/FreeRTOS/Source/CMSIS_RTOS_V2/cmsis_os2.c ****     stat = osErrorISR;
 140:Middlewares/Third_Party/FreeRTOS/Source/CMSIS_RTOS_V2/cmsis_os2.c ****   }
 141:Middlewares/Third_Party/FreeRTOS/Source/CMSIS_RTOS_V2/cmsis_os2.c ****   else {
 142:Middlewares/Third_Party/FreeRTOS/Source/CMSIS_RTOS_V2/cmsis_os2.c ****     if (KernelState == osKernelInactive) {
 143:Middlewares/Third_Party/FreeRTOS/Source/CMSIS_RTOS_V2/cmsis_os2.c ****       #if defined(USE_FreeRTOS_HEAP_5)
 144:Middlewares/Third_Party/FreeRTOS/Source/CMSIS_RTOS_V2/cmsis_os2.c ****         vPortDefineHeapRegions (xHeapRegions);
 145:Middlewares/Third_Party/FreeRTOS/Source/CMSIS_RTOS_V2/cmsis_os2.c ****       #endif
 146:Middlewares/Third_Party/FreeRTOS/Source/CMSIS_RTOS_V2/cmsis_os2.c ****       KernelState = osKernelReady;
 147:Middlewares/Third_Party/FreeRTOS/Source/CMSIS_RTOS_V2/cmsis_os2.c ****       stat = osOK;
 148:Middlewares/Third_Party/FreeRTOS/Source/CMSIS_RTOS_V2/cmsis_os2.c ****     } else {
ARM GAS  /tmp/cce47g5y.s 			page 4


 149:Middlewares/Third_Party/FreeRTOS/Source/CMSIS_RTOS_V2/cmsis_os2.c ****       stat = osError;
 150:Middlewares/Third_Party/FreeRTOS/Source/CMSIS_RTOS_V2/cmsis_os2.c ****     }
 151:Middlewares/Third_Party/FreeRTOS/Source/CMSIS_RTOS_V2/cmsis_os2.c ****   }
 152:Middlewares/Third_Party/FreeRTOS/Source/CMSIS_RTOS_V2/cmsis_os2.c **** 
 153:Middlewares/Third_Party/FreeRTOS/Source/CMSIS_RTOS_V2/cmsis_os2.c ****   return (stat);
 154:Middlewares/Third_Party/FreeRTOS/Source/CMSIS_RTOS_V2/cmsis_os2.c **** }
 155:Middlewares/Third_Party/FreeRTOS/Source/CMSIS_RTOS_V2/cmsis_os2.c **** 
 156:Middlewares/Third_Party/FreeRTOS/Source/CMSIS_RTOS_V2/cmsis_os2.c **** osStatus_t osKernelGetInfo (osVersion_t *version, char *id_buf, uint32_t id_size) {
 157:Middlewares/Third_Party/FreeRTOS/Source/CMSIS_RTOS_V2/cmsis_os2.c **** 
 158:Middlewares/Third_Party/FreeRTOS/Source/CMSIS_RTOS_V2/cmsis_os2.c ****   if (version != NULL) {
 159:Middlewares/Third_Party/FreeRTOS/Source/CMSIS_RTOS_V2/cmsis_os2.c ****     version->api    = KERNEL_VERSION;
 160:Middlewares/Third_Party/FreeRTOS/Source/CMSIS_RTOS_V2/cmsis_os2.c ****     version->kernel = KERNEL_VERSION;
 161:Middlewares/Third_Party/FreeRTOS/Source/CMSIS_RTOS_V2/cmsis_os2.c ****   }
 162:Middlewares/Third_Party/FreeRTOS/Source/CMSIS_RTOS_V2/cmsis_os2.c **** 
 163:Middlewares/Third_Party/FreeRTOS/Source/CMSIS_RTOS_V2/cmsis_os2.c ****   if ((id_buf != NULL) && (id_size != 0U)) {
 164:Middlewares/Third_Party/FreeRTOS/Source/CMSIS_RTOS_V2/cmsis_os2.c ****     if (id_size > sizeof(KERNEL_ID)) {
 165:Middlewares/Third_Party/FreeRTOS/Source/CMSIS_RTOS_V2/cmsis_os2.c ****       id_size = sizeof(KERNEL_ID);
 166:Middlewares/Third_Party/FreeRTOS/Source/CMSIS_RTOS_V2/cmsis_os2.c ****     }
 167:Middlewares/Third_Party/FreeRTOS/Source/CMSIS_RTOS_V2/cmsis_os2.c ****     memcpy(id_buf, KERNEL_ID, id_size);
 168:Middlewares/Third_Party/FreeRTOS/Source/CMSIS_RTOS_V2/cmsis_os2.c ****   }
 169:Middlewares/Third_Party/FreeRTOS/Source/CMSIS_RTOS_V2/cmsis_os2.c **** 
 170:Middlewares/Third_Party/FreeRTOS/Source/CMSIS_RTOS_V2/cmsis_os2.c ****   return (osOK);
 171:Middlewares/Third_Party/FreeRTOS/Source/CMSIS_RTOS_V2/cmsis_os2.c **** }
 172:Middlewares/Third_Party/FreeRTOS/Source/CMSIS_RTOS_V2/cmsis_os2.c **** 
 173:Middlewares/Third_Party/FreeRTOS/Source/CMSIS_RTOS_V2/cmsis_os2.c **** osKernelState_t osKernelGetState (void) {
 174:Middlewares/Third_Party/FreeRTOS/Source/CMSIS_RTOS_V2/cmsis_os2.c ****   osKernelState_t state;
 175:Middlewares/Third_Party/FreeRTOS/Source/CMSIS_RTOS_V2/cmsis_os2.c **** 
 176:Middlewares/Third_Party/FreeRTOS/Source/CMSIS_RTOS_V2/cmsis_os2.c ****   switch (xTaskGetSchedulerState()) {
 177:Middlewares/Third_Party/FreeRTOS/Source/CMSIS_RTOS_V2/cmsis_os2.c ****     case taskSCHEDULER_RUNNING:
 178:Middlewares/Third_Party/FreeRTOS/Source/CMSIS_RTOS_V2/cmsis_os2.c ****       state = osKernelRunning;
 179:Middlewares/Third_Party/FreeRTOS/Source/CMSIS_RTOS_V2/cmsis_os2.c ****       break;
 180:Middlewares/Third_Party/FreeRTOS/Source/CMSIS_RTOS_V2/cmsis_os2.c **** 
 181:Middlewares/Third_Party/FreeRTOS/Source/CMSIS_RTOS_V2/cmsis_os2.c ****     case taskSCHEDULER_SUSPENDED:
 182:Middlewares/Third_Party/FreeRTOS/Source/CMSIS_RTOS_V2/cmsis_os2.c ****       state = osKernelLocked;
 183:Middlewares/Third_Party/FreeRTOS/Source/CMSIS_RTOS_V2/cmsis_os2.c ****       break;
 184:Middlewares/Third_Party/FreeRTOS/Source/CMSIS_RTOS_V2/cmsis_os2.c **** 
 185:Middlewares/Third_Party/FreeRTOS/Source/CMSIS_RTOS_V2/cmsis_os2.c ****     case taskSCHEDULER_NOT_STARTED:
 186:Middlewares/Third_Party/FreeRTOS/Source/CMSIS_RTOS_V2/cmsis_os2.c ****     default:
 187:Middlewares/Third_Party/FreeRTOS/Source/CMSIS_RTOS_V2/cmsis_os2.c ****       if (KernelState == osKernelReady) {
 188:Middlewares/Third_Party/FreeRTOS/Source/CMSIS_RTOS_V2/cmsis_os2.c ****         state = osKernelReady;
 189:Middlewares/Third_Party/FreeRTOS/Source/CMSIS_RTOS_V2/cmsis_os2.c ****       } else {
 190:Middlewares/Third_Party/FreeRTOS/Source/CMSIS_RTOS_V2/cmsis_os2.c ****         state = osKernelInactive;
 191:Middlewares/Third_Party/FreeRTOS/Source/CMSIS_RTOS_V2/cmsis_os2.c ****       }
 192:Middlewares/Third_Party/FreeRTOS/Source/CMSIS_RTOS_V2/cmsis_os2.c ****       break;
 193:Middlewares/Third_Party/FreeRTOS/Source/CMSIS_RTOS_V2/cmsis_os2.c ****   }
 194:Middlewares/Third_Party/FreeRTOS/Source/CMSIS_RTOS_V2/cmsis_os2.c **** 
 195:Middlewares/Third_Party/FreeRTOS/Source/CMSIS_RTOS_V2/cmsis_os2.c ****   return (state);
 196:Middlewares/Third_Party/FreeRTOS/Source/CMSIS_RTOS_V2/cmsis_os2.c **** }
 197:Middlewares/Third_Party/FreeRTOS/Source/CMSIS_RTOS_V2/cmsis_os2.c **** 
 198:Middlewares/Third_Party/FreeRTOS/Source/CMSIS_RTOS_V2/cmsis_os2.c **** osStatus_t osKernelStart (void) {
 199:Middlewares/Third_Party/FreeRTOS/Source/CMSIS_RTOS_V2/cmsis_os2.c ****   osStatus_t stat;
 200:Middlewares/Third_Party/FreeRTOS/Source/CMSIS_RTOS_V2/cmsis_os2.c **** 
 201:Middlewares/Third_Party/FreeRTOS/Source/CMSIS_RTOS_V2/cmsis_os2.c ****   if (IS_IRQ()) {
 202:Middlewares/Third_Party/FreeRTOS/Source/CMSIS_RTOS_V2/cmsis_os2.c ****     stat = osErrorISR;
 203:Middlewares/Third_Party/FreeRTOS/Source/CMSIS_RTOS_V2/cmsis_os2.c ****   }
 204:Middlewares/Third_Party/FreeRTOS/Source/CMSIS_RTOS_V2/cmsis_os2.c ****   else {
 205:Middlewares/Third_Party/FreeRTOS/Source/CMSIS_RTOS_V2/cmsis_os2.c ****     if (KernelState == osKernelReady) {
ARM GAS  /tmp/cce47g5y.s 			page 5


 206:Middlewares/Third_Party/FreeRTOS/Source/CMSIS_RTOS_V2/cmsis_os2.c ****       KernelState = osKernelRunning;
 207:Middlewares/Third_Party/FreeRTOS/Source/CMSIS_RTOS_V2/cmsis_os2.c ****       vTaskStartScheduler();
 208:Middlewares/Third_Party/FreeRTOS/Source/CMSIS_RTOS_V2/cmsis_os2.c ****       stat = osOK;
 209:Middlewares/Third_Party/FreeRTOS/Source/CMSIS_RTOS_V2/cmsis_os2.c ****     } else {
 210:Middlewares/Third_Party/FreeRTOS/Source/CMSIS_RTOS_V2/cmsis_os2.c ****       stat = osError;
 211:Middlewares/Third_Party/FreeRTOS/Source/CMSIS_RTOS_V2/cmsis_os2.c ****     }
 212:Middlewares/Third_Party/FreeRTOS/Source/CMSIS_RTOS_V2/cmsis_os2.c ****   }
 213:Middlewares/Third_Party/FreeRTOS/Source/CMSIS_RTOS_V2/cmsis_os2.c **** 
 214:Middlewares/Third_Party/FreeRTOS/Source/CMSIS_RTOS_V2/cmsis_os2.c ****   return (stat);
 215:Middlewares/Third_Party/FreeRTOS/Source/CMSIS_RTOS_V2/cmsis_os2.c **** }
 216:Middlewares/Third_Party/FreeRTOS/Source/CMSIS_RTOS_V2/cmsis_os2.c **** 
 217:Middlewares/Third_Party/FreeRTOS/Source/CMSIS_RTOS_V2/cmsis_os2.c **** int32_t osKernelLock (void) {
 218:Middlewares/Third_Party/FreeRTOS/Source/CMSIS_RTOS_V2/cmsis_os2.c ****   int32_t lock;
 219:Middlewares/Third_Party/FreeRTOS/Source/CMSIS_RTOS_V2/cmsis_os2.c **** 
 220:Middlewares/Third_Party/FreeRTOS/Source/CMSIS_RTOS_V2/cmsis_os2.c ****   if (IS_IRQ()) {
 221:Middlewares/Third_Party/FreeRTOS/Source/CMSIS_RTOS_V2/cmsis_os2.c ****     lock = (int32_t)osErrorISR;
 222:Middlewares/Third_Party/FreeRTOS/Source/CMSIS_RTOS_V2/cmsis_os2.c ****   }
 223:Middlewares/Third_Party/FreeRTOS/Source/CMSIS_RTOS_V2/cmsis_os2.c ****   else {
 224:Middlewares/Third_Party/FreeRTOS/Source/CMSIS_RTOS_V2/cmsis_os2.c ****     switch (xTaskGetSchedulerState()) {
 225:Middlewares/Third_Party/FreeRTOS/Source/CMSIS_RTOS_V2/cmsis_os2.c ****       case taskSCHEDULER_SUSPENDED:
 226:Middlewares/Third_Party/FreeRTOS/Source/CMSIS_RTOS_V2/cmsis_os2.c ****         lock = 1;
 227:Middlewares/Third_Party/FreeRTOS/Source/CMSIS_RTOS_V2/cmsis_os2.c ****         break;
 228:Middlewares/Third_Party/FreeRTOS/Source/CMSIS_RTOS_V2/cmsis_os2.c **** 
 229:Middlewares/Third_Party/FreeRTOS/Source/CMSIS_RTOS_V2/cmsis_os2.c ****       case taskSCHEDULER_RUNNING:
 230:Middlewares/Third_Party/FreeRTOS/Source/CMSIS_RTOS_V2/cmsis_os2.c ****         vTaskSuspendAll();
 231:Middlewares/Third_Party/FreeRTOS/Source/CMSIS_RTOS_V2/cmsis_os2.c ****         lock = 0;
 232:Middlewares/Third_Party/FreeRTOS/Source/CMSIS_RTOS_V2/cmsis_os2.c ****         break;
 233:Middlewares/Third_Party/FreeRTOS/Source/CMSIS_RTOS_V2/cmsis_os2.c **** 
 234:Middlewares/Third_Party/FreeRTOS/Source/CMSIS_RTOS_V2/cmsis_os2.c ****       case taskSCHEDULER_NOT_STARTED:
 235:Middlewares/Third_Party/FreeRTOS/Source/CMSIS_RTOS_V2/cmsis_os2.c ****       default:
 236:Middlewares/Third_Party/FreeRTOS/Source/CMSIS_RTOS_V2/cmsis_os2.c ****         lock = (int32_t)osError;
 237:Middlewares/Third_Party/FreeRTOS/Source/CMSIS_RTOS_V2/cmsis_os2.c ****         break;
 238:Middlewares/Third_Party/FreeRTOS/Source/CMSIS_RTOS_V2/cmsis_os2.c ****     }
 239:Middlewares/Third_Party/FreeRTOS/Source/CMSIS_RTOS_V2/cmsis_os2.c ****   }
 240:Middlewares/Third_Party/FreeRTOS/Source/CMSIS_RTOS_V2/cmsis_os2.c **** 
 241:Middlewares/Third_Party/FreeRTOS/Source/CMSIS_RTOS_V2/cmsis_os2.c ****   return (lock);
 242:Middlewares/Third_Party/FreeRTOS/Source/CMSIS_RTOS_V2/cmsis_os2.c **** }
 243:Middlewares/Third_Party/FreeRTOS/Source/CMSIS_RTOS_V2/cmsis_os2.c **** 
 244:Middlewares/Third_Party/FreeRTOS/Source/CMSIS_RTOS_V2/cmsis_os2.c **** int32_t osKernelUnlock (void) {
 245:Middlewares/Third_Party/FreeRTOS/Source/CMSIS_RTOS_V2/cmsis_os2.c ****   int32_t lock;
 246:Middlewares/Third_Party/FreeRTOS/Source/CMSIS_RTOS_V2/cmsis_os2.c **** 
 247:Middlewares/Third_Party/FreeRTOS/Source/CMSIS_RTOS_V2/cmsis_os2.c ****   if (IS_IRQ()) {
 248:Middlewares/Third_Party/FreeRTOS/Source/CMSIS_RTOS_V2/cmsis_os2.c ****     lock = (int32_t)osErrorISR;
 249:Middlewares/Third_Party/FreeRTOS/Source/CMSIS_RTOS_V2/cmsis_os2.c ****   }
 250:Middlewares/Third_Party/FreeRTOS/Source/CMSIS_RTOS_V2/cmsis_os2.c ****   else {
 251:Middlewares/Third_Party/FreeRTOS/Source/CMSIS_RTOS_V2/cmsis_os2.c ****     switch (xTaskGetSchedulerState()) {
 252:Middlewares/Third_Party/FreeRTOS/Source/CMSIS_RTOS_V2/cmsis_os2.c ****       case taskSCHEDULER_SUSPENDED:
 253:Middlewares/Third_Party/FreeRTOS/Source/CMSIS_RTOS_V2/cmsis_os2.c ****         lock = 1;
 254:Middlewares/Third_Party/FreeRTOS/Source/CMSIS_RTOS_V2/cmsis_os2.c **** 
 255:Middlewares/Third_Party/FreeRTOS/Source/CMSIS_RTOS_V2/cmsis_os2.c ****         if (xTaskResumeAll() != pdTRUE) {
 256:Middlewares/Third_Party/FreeRTOS/Source/CMSIS_RTOS_V2/cmsis_os2.c ****           if (xTaskGetSchedulerState() == taskSCHEDULER_SUSPENDED) {
 257:Middlewares/Third_Party/FreeRTOS/Source/CMSIS_RTOS_V2/cmsis_os2.c ****             lock = (int32_t)osError;
 258:Middlewares/Third_Party/FreeRTOS/Source/CMSIS_RTOS_V2/cmsis_os2.c ****           }
 259:Middlewares/Third_Party/FreeRTOS/Source/CMSIS_RTOS_V2/cmsis_os2.c ****         }
 260:Middlewares/Third_Party/FreeRTOS/Source/CMSIS_RTOS_V2/cmsis_os2.c ****         break;
 261:Middlewares/Third_Party/FreeRTOS/Source/CMSIS_RTOS_V2/cmsis_os2.c **** 
 262:Middlewares/Third_Party/FreeRTOS/Source/CMSIS_RTOS_V2/cmsis_os2.c ****       case taskSCHEDULER_RUNNING:
ARM GAS  /tmp/cce47g5y.s 			page 6


 263:Middlewares/Third_Party/FreeRTOS/Source/CMSIS_RTOS_V2/cmsis_os2.c ****         lock = 0;
 264:Middlewares/Third_Party/FreeRTOS/Source/CMSIS_RTOS_V2/cmsis_os2.c ****         break;
 265:Middlewares/Third_Party/FreeRTOS/Source/CMSIS_RTOS_V2/cmsis_os2.c **** 
 266:Middlewares/Third_Party/FreeRTOS/Source/CMSIS_RTOS_V2/cmsis_os2.c ****       case taskSCHEDULER_NOT_STARTED:
 267:Middlewares/Third_Party/FreeRTOS/Source/CMSIS_RTOS_V2/cmsis_os2.c ****       default:
 268:Middlewares/Third_Party/FreeRTOS/Source/CMSIS_RTOS_V2/cmsis_os2.c ****         lock = (int32_t)osError;
 269:Middlewares/Third_Party/FreeRTOS/Source/CMSIS_RTOS_V2/cmsis_os2.c ****         break;
 270:Middlewares/Third_Party/FreeRTOS/Source/CMSIS_RTOS_V2/cmsis_os2.c ****     }
 271:Middlewares/Third_Party/FreeRTOS/Source/CMSIS_RTOS_V2/cmsis_os2.c ****   }
 272:Middlewares/Third_Party/FreeRTOS/Source/CMSIS_RTOS_V2/cmsis_os2.c **** 
 273:Middlewares/Third_Party/FreeRTOS/Source/CMSIS_RTOS_V2/cmsis_os2.c ****   return (lock);
 274:Middlewares/Third_Party/FreeRTOS/Source/CMSIS_RTOS_V2/cmsis_os2.c **** }
 275:Middlewares/Third_Party/FreeRTOS/Source/CMSIS_RTOS_V2/cmsis_os2.c **** 
 276:Middlewares/Third_Party/FreeRTOS/Source/CMSIS_RTOS_V2/cmsis_os2.c **** int32_t osKernelRestoreLock (int32_t lock) {
 277:Middlewares/Third_Party/FreeRTOS/Source/CMSIS_RTOS_V2/cmsis_os2.c **** 
 278:Middlewares/Third_Party/FreeRTOS/Source/CMSIS_RTOS_V2/cmsis_os2.c ****   if (IS_IRQ()) {
 279:Middlewares/Third_Party/FreeRTOS/Source/CMSIS_RTOS_V2/cmsis_os2.c ****     lock = (int32_t)osErrorISR;
 280:Middlewares/Third_Party/FreeRTOS/Source/CMSIS_RTOS_V2/cmsis_os2.c ****   }
 281:Middlewares/Third_Party/FreeRTOS/Source/CMSIS_RTOS_V2/cmsis_os2.c ****   else {
 282:Middlewares/Third_Party/FreeRTOS/Source/CMSIS_RTOS_V2/cmsis_os2.c ****     switch (xTaskGetSchedulerState()) {
 283:Middlewares/Third_Party/FreeRTOS/Source/CMSIS_RTOS_V2/cmsis_os2.c ****       case taskSCHEDULER_SUSPENDED:
 284:Middlewares/Third_Party/FreeRTOS/Source/CMSIS_RTOS_V2/cmsis_os2.c ****       case taskSCHEDULER_RUNNING:
 285:Middlewares/Third_Party/FreeRTOS/Source/CMSIS_RTOS_V2/cmsis_os2.c ****         if (lock == 1) {
 286:Middlewares/Third_Party/FreeRTOS/Source/CMSIS_RTOS_V2/cmsis_os2.c ****           vTaskSuspendAll();
 287:Middlewares/Third_Party/FreeRTOS/Source/CMSIS_RTOS_V2/cmsis_os2.c ****         }
 288:Middlewares/Third_Party/FreeRTOS/Source/CMSIS_RTOS_V2/cmsis_os2.c ****         else {
 289:Middlewares/Third_Party/FreeRTOS/Source/CMSIS_RTOS_V2/cmsis_os2.c ****           if (lock != 0) {
 290:Middlewares/Third_Party/FreeRTOS/Source/CMSIS_RTOS_V2/cmsis_os2.c ****             lock = (int32_t)osError;
 291:Middlewares/Third_Party/FreeRTOS/Source/CMSIS_RTOS_V2/cmsis_os2.c ****           }
 292:Middlewares/Third_Party/FreeRTOS/Source/CMSIS_RTOS_V2/cmsis_os2.c ****           else {
 293:Middlewares/Third_Party/FreeRTOS/Source/CMSIS_RTOS_V2/cmsis_os2.c ****             if (xTaskResumeAll() != pdTRUE) {
 294:Middlewares/Third_Party/FreeRTOS/Source/CMSIS_RTOS_V2/cmsis_os2.c ****               if (xTaskGetSchedulerState() != taskSCHEDULER_RUNNING) {
 295:Middlewares/Third_Party/FreeRTOS/Source/CMSIS_RTOS_V2/cmsis_os2.c ****                 lock = (int32_t)osError;
 296:Middlewares/Third_Party/FreeRTOS/Source/CMSIS_RTOS_V2/cmsis_os2.c ****               }
 297:Middlewares/Third_Party/FreeRTOS/Source/CMSIS_RTOS_V2/cmsis_os2.c ****             }
 298:Middlewares/Third_Party/FreeRTOS/Source/CMSIS_RTOS_V2/cmsis_os2.c ****           }
 299:Middlewares/Third_Party/FreeRTOS/Source/CMSIS_RTOS_V2/cmsis_os2.c ****         }
 300:Middlewares/Third_Party/FreeRTOS/Source/CMSIS_RTOS_V2/cmsis_os2.c ****         break;
 301:Middlewares/Third_Party/FreeRTOS/Source/CMSIS_RTOS_V2/cmsis_os2.c **** 
 302:Middlewares/Third_Party/FreeRTOS/Source/CMSIS_RTOS_V2/cmsis_os2.c ****       case taskSCHEDULER_NOT_STARTED:
 303:Middlewares/Third_Party/FreeRTOS/Source/CMSIS_RTOS_V2/cmsis_os2.c ****       default:
 304:Middlewares/Third_Party/FreeRTOS/Source/CMSIS_RTOS_V2/cmsis_os2.c ****         lock = (int32_t)osError;
 305:Middlewares/Third_Party/FreeRTOS/Source/CMSIS_RTOS_V2/cmsis_os2.c ****         break;
 306:Middlewares/Third_Party/FreeRTOS/Source/CMSIS_RTOS_V2/cmsis_os2.c ****     }
 307:Middlewares/Third_Party/FreeRTOS/Source/CMSIS_RTOS_V2/cmsis_os2.c ****   }
 308:Middlewares/Third_Party/FreeRTOS/Source/CMSIS_RTOS_V2/cmsis_os2.c **** 
 309:Middlewares/Third_Party/FreeRTOS/Source/CMSIS_RTOS_V2/cmsis_os2.c ****   return (lock);
 310:Middlewares/Third_Party/FreeRTOS/Source/CMSIS_RTOS_V2/cmsis_os2.c **** }
 311:Middlewares/Third_Party/FreeRTOS/Source/CMSIS_RTOS_V2/cmsis_os2.c **** 
 312:Middlewares/Third_Party/FreeRTOS/Source/CMSIS_RTOS_V2/cmsis_os2.c **** uint32_t osKernelGetTickCount (void) {
 313:Middlewares/Third_Party/FreeRTOS/Source/CMSIS_RTOS_V2/cmsis_os2.c ****   TickType_t ticks;
 314:Middlewares/Third_Party/FreeRTOS/Source/CMSIS_RTOS_V2/cmsis_os2.c **** 
 315:Middlewares/Third_Party/FreeRTOS/Source/CMSIS_RTOS_V2/cmsis_os2.c ****   if (IS_IRQ()) {
 316:Middlewares/Third_Party/FreeRTOS/Source/CMSIS_RTOS_V2/cmsis_os2.c ****     ticks = xTaskGetTickCountFromISR();
 317:Middlewares/Third_Party/FreeRTOS/Source/CMSIS_RTOS_V2/cmsis_os2.c ****   } else {
 318:Middlewares/Third_Party/FreeRTOS/Source/CMSIS_RTOS_V2/cmsis_os2.c ****     ticks = xTaskGetTickCount();
 319:Middlewares/Third_Party/FreeRTOS/Source/CMSIS_RTOS_V2/cmsis_os2.c ****   }
ARM GAS  /tmp/cce47g5y.s 			page 7


 320:Middlewares/Third_Party/FreeRTOS/Source/CMSIS_RTOS_V2/cmsis_os2.c **** 
 321:Middlewares/Third_Party/FreeRTOS/Source/CMSIS_RTOS_V2/cmsis_os2.c ****   return (ticks);
 322:Middlewares/Third_Party/FreeRTOS/Source/CMSIS_RTOS_V2/cmsis_os2.c **** }
 323:Middlewares/Third_Party/FreeRTOS/Source/CMSIS_RTOS_V2/cmsis_os2.c **** 
 324:Middlewares/Third_Party/FreeRTOS/Source/CMSIS_RTOS_V2/cmsis_os2.c **** uint32_t osKernelGetTickFreq (void) {
 325:Middlewares/Third_Party/FreeRTOS/Source/CMSIS_RTOS_V2/cmsis_os2.c ****   return (configTICK_RATE_HZ);
 326:Middlewares/Third_Party/FreeRTOS/Source/CMSIS_RTOS_V2/cmsis_os2.c **** }
 327:Middlewares/Third_Party/FreeRTOS/Source/CMSIS_RTOS_V2/cmsis_os2.c **** 
 328:Middlewares/Third_Party/FreeRTOS/Source/CMSIS_RTOS_V2/cmsis_os2.c **** uint32_t osKernelGetSysTimerCount (void) {
 329:Middlewares/Third_Party/FreeRTOS/Source/CMSIS_RTOS_V2/cmsis_os2.c ****   TickType_t ticks;
 330:Middlewares/Third_Party/FreeRTOS/Source/CMSIS_RTOS_V2/cmsis_os2.c ****   uint32_t val;
 331:Middlewares/Third_Party/FreeRTOS/Source/CMSIS_RTOS_V2/cmsis_os2.c **** 
 332:Middlewares/Third_Party/FreeRTOS/Source/CMSIS_RTOS_V2/cmsis_os2.c ****   portDISABLE_INTERRUPTS();
 333:Middlewares/Third_Party/FreeRTOS/Source/CMSIS_RTOS_V2/cmsis_os2.c **** 
 334:Middlewares/Third_Party/FreeRTOS/Source/CMSIS_RTOS_V2/cmsis_os2.c ****   ticks = xTaskGetTickCount();
 335:Middlewares/Third_Party/FreeRTOS/Source/CMSIS_RTOS_V2/cmsis_os2.c **** 
 336:Middlewares/Third_Party/FreeRTOS/Source/CMSIS_RTOS_V2/cmsis_os2.c ****   val = ticks * ( configCPU_CLOCK_HZ / configTICK_RATE_HZ );
 337:Middlewares/Third_Party/FreeRTOS/Source/CMSIS_RTOS_V2/cmsis_os2.c ****   portENABLE_INTERRUPTS();
 338:Middlewares/Third_Party/FreeRTOS/Source/CMSIS_RTOS_V2/cmsis_os2.c **** 
 339:Middlewares/Third_Party/FreeRTOS/Source/CMSIS_RTOS_V2/cmsis_os2.c ****   return (val);
 340:Middlewares/Third_Party/FreeRTOS/Source/CMSIS_RTOS_V2/cmsis_os2.c **** }
 341:Middlewares/Third_Party/FreeRTOS/Source/CMSIS_RTOS_V2/cmsis_os2.c **** 
 342:Middlewares/Third_Party/FreeRTOS/Source/CMSIS_RTOS_V2/cmsis_os2.c **** uint32_t osKernelGetSysTimerFreq (void) {
 343:Middlewares/Third_Party/FreeRTOS/Source/CMSIS_RTOS_V2/cmsis_os2.c ****   return (configCPU_CLOCK_HZ);
 344:Middlewares/Third_Party/FreeRTOS/Source/CMSIS_RTOS_V2/cmsis_os2.c **** }
 345:Middlewares/Third_Party/FreeRTOS/Source/CMSIS_RTOS_V2/cmsis_os2.c **** 
 346:Middlewares/Third_Party/FreeRTOS/Source/CMSIS_RTOS_V2/cmsis_os2.c **** /*---------------------------------------------------------------------------*/
 347:Middlewares/Third_Party/FreeRTOS/Source/CMSIS_RTOS_V2/cmsis_os2.c **** 
 348:Middlewares/Third_Party/FreeRTOS/Source/CMSIS_RTOS_V2/cmsis_os2.c **** osThreadId_t osThreadNew (osThreadFunc_t func, void *argument, const osThreadAttr_t *attr) {
 349:Middlewares/Third_Party/FreeRTOS/Source/CMSIS_RTOS_V2/cmsis_os2.c ****   char empty;
 350:Middlewares/Third_Party/FreeRTOS/Source/CMSIS_RTOS_V2/cmsis_os2.c ****   const char *name;
 351:Middlewares/Third_Party/FreeRTOS/Source/CMSIS_RTOS_V2/cmsis_os2.c ****   uint32_t stack;
 352:Middlewares/Third_Party/FreeRTOS/Source/CMSIS_RTOS_V2/cmsis_os2.c ****   TaskHandle_t hTask;
 353:Middlewares/Third_Party/FreeRTOS/Source/CMSIS_RTOS_V2/cmsis_os2.c ****   UBaseType_t prio;
 354:Middlewares/Third_Party/FreeRTOS/Source/CMSIS_RTOS_V2/cmsis_os2.c ****   int32_t mem;
 355:Middlewares/Third_Party/FreeRTOS/Source/CMSIS_RTOS_V2/cmsis_os2.c **** 
 356:Middlewares/Third_Party/FreeRTOS/Source/CMSIS_RTOS_V2/cmsis_os2.c ****   hTask = NULL;
 357:Middlewares/Third_Party/FreeRTOS/Source/CMSIS_RTOS_V2/cmsis_os2.c **** 
 358:Middlewares/Third_Party/FreeRTOS/Source/CMSIS_RTOS_V2/cmsis_os2.c ****   if (!IS_IRQ() && (func != NULL)) {
 359:Middlewares/Third_Party/FreeRTOS/Source/CMSIS_RTOS_V2/cmsis_os2.c ****     stack = configMINIMAL_STACK_SIZE;
 360:Middlewares/Third_Party/FreeRTOS/Source/CMSIS_RTOS_V2/cmsis_os2.c ****     prio  = (UBaseType_t)osPriorityNormal;
 361:Middlewares/Third_Party/FreeRTOS/Source/CMSIS_RTOS_V2/cmsis_os2.c **** 
 362:Middlewares/Third_Party/FreeRTOS/Source/CMSIS_RTOS_V2/cmsis_os2.c ****     empty = '\0';
 363:Middlewares/Third_Party/FreeRTOS/Source/CMSIS_RTOS_V2/cmsis_os2.c ****     name  = &empty;
 364:Middlewares/Third_Party/FreeRTOS/Source/CMSIS_RTOS_V2/cmsis_os2.c ****     mem   = -1;
 365:Middlewares/Third_Party/FreeRTOS/Source/CMSIS_RTOS_V2/cmsis_os2.c **** 
 366:Middlewares/Third_Party/FreeRTOS/Source/CMSIS_RTOS_V2/cmsis_os2.c ****     if (attr != NULL) {
 367:Middlewares/Third_Party/FreeRTOS/Source/CMSIS_RTOS_V2/cmsis_os2.c ****       if (attr->name != NULL) {
 368:Middlewares/Third_Party/FreeRTOS/Source/CMSIS_RTOS_V2/cmsis_os2.c ****         name = attr->name;
 369:Middlewares/Third_Party/FreeRTOS/Source/CMSIS_RTOS_V2/cmsis_os2.c ****       }
 370:Middlewares/Third_Party/FreeRTOS/Source/CMSIS_RTOS_V2/cmsis_os2.c ****       if (attr->priority != osPriorityNone) {
 371:Middlewares/Third_Party/FreeRTOS/Source/CMSIS_RTOS_V2/cmsis_os2.c ****         prio = (UBaseType_t)attr->priority;
 372:Middlewares/Third_Party/FreeRTOS/Source/CMSIS_RTOS_V2/cmsis_os2.c ****       }
 373:Middlewares/Third_Party/FreeRTOS/Source/CMSIS_RTOS_V2/cmsis_os2.c **** 
 374:Middlewares/Third_Party/FreeRTOS/Source/CMSIS_RTOS_V2/cmsis_os2.c ****       if ((prio < osPriorityIdle) || (prio > osPriorityISR) || ((attr->attr_bits & osThreadJoinable
 375:Middlewares/Third_Party/FreeRTOS/Source/CMSIS_RTOS_V2/cmsis_os2.c ****         return (NULL);
 376:Middlewares/Third_Party/FreeRTOS/Source/CMSIS_RTOS_V2/cmsis_os2.c ****       }
ARM GAS  /tmp/cce47g5y.s 			page 8


 377:Middlewares/Third_Party/FreeRTOS/Source/CMSIS_RTOS_V2/cmsis_os2.c **** 
 378:Middlewares/Third_Party/FreeRTOS/Source/CMSIS_RTOS_V2/cmsis_os2.c ****       if (attr->stack_size > 0U) {
 379:Middlewares/Third_Party/FreeRTOS/Source/CMSIS_RTOS_V2/cmsis_os2.c ****         /* In FreeRTOS stack is not in bytes, but in sizeof(StackType_t) which is 4 on ARM ports.  
 380:Middlewares/Third_Party/FreeRTOS/Source/CMSIS_RTOS_V2/cmsis_os2.c ****         /* Stack size should be therefore 4 byte aligned in order to avoid division caused side eff
 381:Middlewares/Third_Party/FreeRTOS/Source/CMSIS_RTOS_V2/cmsis_os2.c ****         stack = attr->stack_size / sizeof(StackType_t);
 382:Middlewares/Third_Party/FreeRTOS/Source/CMSIS_RTOS_V2/cmsis_os2.c ****       }
 383:Middlewares/Third_Party/FreeRTOS/Source/CMSIS_RTOS_V2/cmsis_os2.c **** 
 384:Middlewares/Third_Party/FreeRTOS/Source/CMSIS_RTOS_V2/cmsis_os2.c ****       if ((attr->cb_mem    != NULL) && (attr->cb_size    >= sizeof(StaticTask_t)) &&
 385:Middlewares/Third_Party/FreeRTOS/Source/CMSIS_RTOS_V2/cmsis_os2.c ****           (attr->stack_mem != NULL) && (attr->stack_size >  0U)) {
 386:Middlewares/Third_Party/FreeRTOS/Source/CMSIS_RTOS_V2/cmsis_os2.c ****         mem = 1;
 387:Middlewares/Third_Party/FreeRTOS/Source/CMSIS_RTOS_V2/cmsis_os2.c ****       }
 388:Middlewares/Third_Party/FreeRTOS/Source/CMSIS_RTOS_V2/cmsis_os2.c ****       else {
 389:Middlewares/Third_Party/FreeRTOS/Source/CMSIS_RTOS_V2/cmsis_os2.c ****         if ((attr->cb_mem == NULL) && (attr->cb_size == 0U) && (attr->stack_mem == NULL)) {
 390:Middlewares/Third_Party/FreeRTOS/Source/CMSIS_RTOS_V2/cmsis_os2.c ****           mem = 0;
 391:Middlewares/Third_Party/FreeRTOS/Source/CMSIS_RTOS_V2/cmsis_os2.c ****         }
 392:Middlewares/Third_Party/FreeRTOS/Source/CMSIS_RTOS_V2/cmsis_os2.c ****       }
 393:Middlewares/Third_Party/FreeRTOS/Source/CMSIS_RTOS_V2/cmsis_os2.c ****     }
 394:Middlewares/Third_Party/FreeRTOS/Source/CMSIS_RTOS_V2/cmsis_os2.c ****     else {
 395:Middlewares/Third_Party/FreeRTOS/Source/CMSIS_RTOS_V2/cmsis_os2.c ****       mem = 0;
 396:Middlewares/Third_Party/FreeRTOS/Source/CMSIS_RTOS_V2/cmsis_os2.c ****     }
 397:Middlewares/Third_Party/FreeRTOS/Source/CMSIS_RTOS_V2/cmsis_os2.c **** 
 398:Middlewares/Third_Party/FreeRTOS/Source/CMSIS_RTOS_V2/cmsis_os2.c ****     if (mem == 1) {
 399:Middlewares/Third_Party/FreeRTOS/Source/CMSIS_RTOS_V2/cmsis_os2.c ****       hTask = xTaskCreateStatic ((TaskFunction_t)func, name, stack, argument, prio, (StackType_t  *
 400:Middlewares/Third_Party/FreeRTOS/Source/CMSIS_RTOS_V2/cmsis_os2.c ****                                                                                     (StaticTask_t *
 401:Middlewares/Third_Party/FreeRTOS/Source/CMSIS_RTOS_V2/cmsis_os2.c ****     }
 402:Middlewares/Third_Party/FreeRTOS/Source/CMSIS_RTOS_V2/cmsis_os2.c ****     else {
 403:Middlewares/Third_Party/FreeRTOS/Source/CMSIS_RTOS_V2/cmsis_os2.c ****       if (mem == 0) {
 404:Middlewares/Third_Party/FreeRTOS/Source/CMSIS_RTOS_V2/cmsis_os2.c ****         if (xTaskCreate ((TaskFunction_t)func, name, (uint16_t)stack, argument, prio, &hTask) != pd
 405:Middlewares/Third_Party/FreeRTOS/Source/CMSIS_RTOS_V2/cmsis_os2.c ****           hTask = NULL;
 406:Middlewares/Third_Party/FreeRTOS/Source/CMSIS_RTOS_V2/cmsis_os2.c ****         }
 407:Middlewares/Third_Party/FreeRTOS/Source/CMSIS_RTOS_V2/cmsis_os2.c ****       }
 408:Middlewares/Third_Party/FreeRTOS/Source/CMSIS_RTOS_V2/cmsis_os2.c ****     }
 409:Middlewares/Third_Party/FreeRTOS/Source/CMSIS_RTOS_V2/cmsis_os2.c ****   }
 410:Middlewares/Third_Party/FreeRTOS/Source/CMSIS_RTOS_V2/cmsis_os2.c **** 
 411:Middlewares/Third_Party/FreeRTOS/Source/CMSIS_RTOS_V2/cmsis_os2.c ****   return ((osThreadId_t)hTask);
 412:Middlewares/Third_Party/FreeRTOS/Source/CMSIS_RTOS_V2/cmsis_os2.c **** }
 413:Middlewares/Third_Party/FreeRTOS/Source/CMSIS_RTOS_V2/cmsis_os2.c **** 
 414:Middlewares/Third_Party/FreeRTOS/Source/CMSIS_RTOS_V2/cmsis_os2.c **** const char *osThreadGetName (osThreadId_t thread_id) {
 415:Middlewares/Third_Party/FreeRTOS/Source/CMSIS_RTOS_V2/cmsis_os2.c ****   TaskHandle_t hTask = (TaskHandle_t)thread_id;
 416:Middlewares/Third_Party/FreeRTOS/Source/CMSIS_RTOS_V2/cmsis_os2.c ****   const char *name;
 417:Middlewares/Third_Party/FreeRTOS/Source/CMSIS_RTOS_V2/cmsis_os2.c **** 
 418:Middlewares/Third_Party/FreeRTOS/Source/CMSIS_RTOS_V2/cmsis_os2.c ****   if (IS_IRQ() || (hTask == NULL)) {
 419:Middlewares/Third_Party/FreeRTOS/Source/CMSIS_RTOS_V2/cmsis_os2.c ****     name = NULL;
 420:Middlewares/Third_Party/FreeRTOS/Source/CMSIS_RTOS_V2/cmsis_os2.c ****   } else {
 421:Middlewares/Third_Party/FreeRTOS/Source/CMSIS_RTOS_V2/cmsis_os2.c ****     name = pcTaskGetName (hTask);
 422:Middlewares/Third_Party/FreeRTOS/Source/CMSIS_RTOS_V2/cmsis_os2.c ****   }
 423:Middlewares/Third_Party/FreeRTOS/Source/CMSIS_RTOS_V2/cmsis_os2.c **** 
 424:Middlewares/Third_Party/FreeRTOS/Source/CMSIS_RTOS_V2/cmsis_os2.c ****   return (name);
 425:Middlewares/Third_Party/FreeRTOS/Source/CMSIS_RTOS_V2/cmsis_os2.c **** }
 426:Middlewares/Third_Party/FreeRTOS/Source/CMSIS_RTOS_V2/cmsis_os2.c **** 
 427:Middlewares/Third_Party/FreeRTOS/Source/CMSIS_RTOS_V2/cmsis_os2.c **** osThreadId_t osThreadGetId (void) {
 428:Middlewares/Third_Party/FreeRTOS/Source/CMSIS_RTOS_V2/cmsis_os2.c ****   osThreadId_t id;
 429:Middlewares/Third_Party/FreeRTOS/Source/CMSIS_RTOS_V2/cmsis_os2.c **** 
 430:Middlewares/Third_Party/FreeRTOS/Source/CMSIS_RTOS_V2/cmsis_os2.c ****   if (IS_IRQ()) {
 431:Middlewares/Third_Party/FreeRTOS/Source/CMSIS_RTOS_V2/cmsis_os2.c ****     id = NULL;
 432:Middlewares/Third_Party/FreeRTOS/Source/CMSIS_RTOS_V2/cmsis_os2.c ****   } else {
 433:Middlewares/Third_Party/FreeRTOS/Source/CMSIS_RTOS_V2/cmsis_os2.c ****     id = (osThreadId_t)xTaskGetCurrentTaskHandle();
ARM GAS  /tmp/cce47g5y.s 			page 9


 434:Middlewares/Third_Party/FreeRTOS/Source/CMSIS_RTOS_V2/cmsis_os2.c ****   }
 435:Middlewares/Third_Party/FreeRTOS/Source/CMSIS_RTOS_V2/cmsis_os2.c **** 
 436:Middlewares/Third_Party/FreeRTOS/Source/CMSIS_RTOS_V2/cmsis_os2.c ****   return (id);
 437:Middlewares/Third_Party/FreeRTOS/Source/CMSIS_RTOS_V2/cmsis_os2.c **** }
 438:Middlewares/Third_Party/FreeRTOS/Source/CMSIS_RTOS_V2/cmsis_os2.c **** 
 439:Middlewares/Third_Party/FreeRTOS/Source/CMSIS_RTOS_V2/cmsis_os2.c **** osThreadState_t osThreadGetState (osThreadId_t thread_id) {
 440:Middlewares/Third_Party/FreeRTOS/Source/CMSIS_RTOS_V2/cmsis_os2.c ****   TaskHandle_t hTask = (TaskHandle_t)thread_id;
 441:Middlewares/Third_Party/FreeRTOS/Source/CMSIS_RTOS_V2/cmsis_os2.c ****   osThreadState_t state;
 442:Middlewares/Third_Party/FreeRTOS/Source/CMSIS_RTOS_V2/cmsis_os2.c **** 
 443:Middlewares/Third_Party/FreeRTOS/Source/CMSIS_RTOS_V2/cmsis_os2.c ****   if (IS_IRQ() || (hTask == NULL)) {
 444:Middlewares/Third_Party/FreeRTOS/Source/CMSIS_RTOS_V2/cmsis_os2.c ****     state = osThreadError;
 445:Middlewares/Third_Party/FreeRTOS/Source/CMSIS_RTOS_V2/cmsis_os2.c ****   }
 446:Middlewares/Third_Party/FreeRTOS/Source/CMSIS_RTOS_V2/cmsis_os2.c ****   else {
 447:Middlewares/Third_Party/FreeRTOS/Source/CMSIS_RTOS_V2/cmsis_os2.c ****     switch (eTaskGetState (hTask)) {
 448:Middlewares/Third_Party/FreeRTOS/Source/CMSIS_RTOS_V2/cmsis_os2.c ****       case eRunning:   state = osThreadRunning;    break;
 449:Middlewares/Third_Party/FreeRTOS/Source/CMSIS_RTOS_V2/cmsis_os2.c ****       case eReady:     state = osThreadReady;      break;
 450:Middlewares/Third_Party/FreeRTOS/Source/CMSIS_RTOS_V2/cmsis_os2.c ****       case eBlocked:
 451:Middlewares/Third_Party/FreeRTOS/Source/CMSIS_RTOS_V2/cmsis_os2.c ****       case eSuspended: state = osThreadBlocked;    break;
 452:Middlewares/Third_Party/FreeRTOS/Source/CMSIS_RTOS_V2/cmsis_os2.c ****       case eDeleted:   state = osThreadTerminated; break;
 453:Middlewares/Third_Party/FreeRTOS/Source/CMSIS_RTOS_V2/cmsis_os2.c ****       case eInvalid:
 454:Middlewares/Third_Party/FreeRTOS/Source/CMSIS_RTOS_V2/cmsis_os2.c ****       default:         state = osThreadError;      break;
 455:Middlewares/Third_Party/FreeRTOS/Source/CMSIS_RTOS_V2/cmsis_os2.c ****     }
 456:Middlewares/Third_Party/FreeRTOS/Source/CMSIS_RTOS_V2/cmsis_os2.c ****   }
 457:Middlewares/Third_Party/FreeRTOS/Source/CMSIS_RTOS_V2/cmsis_os2.c **** 
 458:Middlewares/Third_Party/FreeRTOS/Source/CMSIS_RTOS_V2/cmsis_os2.c ****   return (state);
 459:Middlewares/Third_Party/FreeRTOS/Source/CMSIS_RTOS_V2/cmsis_os2.c **** }
 460:Middlewares/Third_Party/FreeRTOS/Source/CMSIS_RTOS_V2/cmsis_os2.c **** 
 461:Middlewares/Third_Party/FreeRTOS/Source/CMSIS_RTOS_V2/cmsis_os2.c **** uint32_t osThreadGetStackSpace (osThreadId_t thread_id) {
 462:Middlewares/Third_Party/FreeRTOS/Source/CMSIS_RTOS_V2/cmsis_os2.c ****   TaskHandle_t hTask = (TaskHandle_t)thread_id;
 463:Middlewares/Third_Party/FreeRTOS/Source/CMSIS_RTOS_V2/cmsis_os2.c ****   uint32_t sz;
 464:Middlewares/Third_Party/FreeRTOS/Source/CMSIS_RTOS_V2/cmsis_os2.c **** 
 465:Middlewares/Third_Party/FreeRTOS/Source/CMSIS_RTOS_V2/cmsis_os2.c ****   if (IS_IRQ() || (hTask == NULL)) {
 466:Middlewares/Third_Party/FreeRTOS/Source/CMSIS_RTOS_V2/cmsis_os2.c ****     sz = 0U;
 467:Middlewares/Third_Party/FreeRTOS/Source/CMSIS_RTOS_V2/cmsis_os2.c ****   } else {
 468:Middlewares/Third_Party/FreeRTOS/Source/CMSIS_RTOS_V2/cmsis_os2.c ****     sz = (uint32_t)uxTaskGetStackHighWaterMark (hTask);
 469:Middlewares/Third_Party/FreeRTOS/Source/CMSIS_RTOS_V2/cmsis_os2.c ****   }
 470:Middlewares/Third_Party/FreeRTOS/Source/CMSIS_RTOS_V2/cmsis_os2.c **** 
 471:Middlewares/Third_Party/FreeRTOS/Source/CMSIS_RTOS_V2/cmsis_os2.c ****   return (sz);
 472:Middlewares/Third_Party/FreeRTOS/Source/CMSIS_RTOS_V2/cmsis_os2.c **** }
 473:Middlewares/Third_Party/FreeRTOS/Source/CMSIS_RTOS_V2/cmsis_os2.c **** 
 474:Middlewares/Third_Party/FreeRTOS/Source/CMSIS_RTOS_V2/cmsis_os2.c **** uint32_t osThreadGetStackSize	(osThreadId_t thread_id) {
 475:Middlewares/Third_Party/FreeRTOS/Source/CMSIS_RTOS_V2/cmsis_os2.c ****   /*
 476:Middlewares/Third_Party/FreeRTOS/Source/CMSIS_RTOS_V2/cmsis_os2.c ****    * this implmentation is not correct.
 477:Middlewares/Third_Party/FreeRTOS/Source/CMSIS_RTOS_V2/cmsis_os2.c ****    * this function is implmented to avoid link errors (undefined reference)
 478:Middlewares/Third_Party/FreeRTOS/Source/CMSIS_RTOS_V2/cmsis_os2.c ****    * Bug reported : https://github.com/ARM-software/CMSIS-FreeRTOS/issues/14
 479:Middlewares/Third_Party/FreeRTOS/Source/CMSIS_RTOS_V2/cmsis_os2.c ****    */
 480:Middlewares/Third_Party/FreeRTOS/Source/CMSIS_RTOS_V2/cmsis_os2.c ****   (void) thread_id;
 481:Middlewares/Third_Party/FreeRTOS/Source/CMSIS_RTOS_V2/cmsis_os2.c ****   return 0;
 482:Middlewares/Third_Party/FreeRTOS/Source/CMSIS_RTOS_V2/cmsis_os2.c **** }
 483:Middlewares/Third_Party/FreeRTOS/Source/CMSIS_RTOS_V2/cmsis_os2.c **** 
 484:Middlewares/Third_Party/FreeRTOS/Source/CMSIS_RTOS_V2/cmsis_os2.c **** osStatus_t osThreadSetPriority (osThreadId_t thread_id, osPriority_t priority) {
 485:Middlewares/Third_Party/FreeRTOS/Source/CMSIS_RTOS_V2/cmsis_os2.c ****   TaskHandle_t hTask = (TaskHandle_t)thread_id;
 486:Middlewares/Third_Party/FreeRTOS/Source/CMSIS_RTOS_V2/cmsis_os2.c ****   osStatus_t stat;
 487:Middlewares/Third_Party/FreeRTOS/Source/CMSIS_RTOS_V2/cmsis_os2.c **** 
 488:Middlewares/Third_Party/FreeRTOS/Source/CMSIS_RTOS_V2/cmsis_os2.c ****   if (IS_IRQ()) {
 489:Middlewares/Third_Party/FreeRTOS/Source/CMSIS_RTOS_V2/cmsis_os2.c ****     stat = osErrorISR;
 490:Middlewares/Third_Party/FreeRTOS/Source/CMSIS_RTOS_V2/cmsis_os2.c ****   }
ARM GAS  /tmp/cce47g5y.s 			page 10


 491:Middlewares/Third_Party/FreeRTOS/Source/CMSIS_RTOS_V2/cmsis_os2.c ****   else if ((hTask == NULL) || (priority < osPriorityIdle) || (priority > osPriorityISR)) {
 492:Middlewares/Third_Party/FreeRTOS/Source/CMSIS_RTOS_V2/cmsis_os2.c ****     stat = osErrorParameter;
 493:Middlewares/Third_Party/FreeRTOS/Source/CMSIS_RTOS_V2/cmsis_os2.c ****   }
 494:Middlewares/Third_Party/FreeRTOS/Source/CMSIS_RTOS_V2/cmsis_os2.c ****   else {
 495:Middlewares/Third_Party/FreeRTOS/Source/CMSIS_RTOS_V2/cmsis_os2.c ****     stat = osOK;
 496:Middlewares/Third_Party/FreeRTOS/Source/CMSIS_RTOS_V2/cmsis_os2.c ****     vTaskPrioritySet (hTask, (UBaseType_t)priority);
 497:Middlewares/Third_Party/FreeRTOS/Source/CMSIS_RTOS_V2/cmsis_os2.c ****   }
 498:Middlewares/Third_Party/FreeRTOS/Source/CMSIS_RTOS_V2/cmsis_os2.c **** 
 499:Middlewares/Third_Party/FreeRTOS/Source/CMSIS_RTOS_V2/cmsis_os2.c ****   return (stat);
 500:Middlewares/Third_Party/FreeRTOS/Source/CMSIS_RTOS_V2/cmsis_os2.c **** }
 501:Middlewares/Third_Party/FreeRTOS/Source/CMSIS_RTOS_V2/cmsis_os2.c **** 
 502:Middlewares/Third_Party/FreeRTOS/Source/CMSIS_RTOS_V2/cmsis_os2.c **** osPriority_t osThreadGetPriority (osThreadId_t thread_id) {
 503:Middlewares/Third_Party/FreeRTOS/Source/CMSIS_RTOS_V2/cmsis_os2.c ****   TaskHandle_t hTask = (TaskHandle_t)thread_id;
 504:Middlewares/Third_Party/FreeRTOS/Source/CMSIS_RTOS_V2/cmsis_os2.c ****   osPriority_t prio;
 505:Middlewares/Third_Party/FreeRTOS/Source/CMSIS_RTOS_V2/cmsis_os2.c **** 
 506:Middlewares/Third_Party/FreeRTOS/Source/CMSIS_RTOS_V2/cmsis_os2.c ****   if (IS_IRQ() || (hTask == NULL)) {
 507:Middlewares/Third_Party/FreeRTOS/Source/CMSIS_RTOS_V2/cmsis_os2.c ****     prio = osPriorityError;
 508:Middlewares/Third_Party/FreeRTOS/Source/CMSIS_RTOS_V2/cmsis_os2.c ****   } else {
 509:Middlewares/Third_Party/FreeRTOS/Source/CMSIS_RTOS_V2/cmsis_os2.c ****     prio = (osPriority_t)uxTaskPriorityGet (hTask);
 510:Middlewares/Third_Party/FreeRTOS/Source/CMSIS_RTOS_V2/cmsis_os2.c ****   }
 511:Middlewares/Third_Party/FreeRTOS/Source/CMSIS_RTOS_V2/cmsis_os2.c **** 
 512:Middlewares/Third_Party/FreeRTOS/Source/CMSIS_RTOS_V2/cmsis_os2.c ****   return (prio);
 513:Middlewares/Third_Party/FreeRTOS/Source/CMSIS_RTOS_V2/cmsis_os2.c **** }
 514:Middlewares/Third_Party/FreeRTOS/Source/CMSIS_RTOS_V2/cmsis_os2.c **** 
 515:Middlewares/Third_Party/FreeRTOS/Source/CMSIS_RTOS_V2/cmsis_os2.c **** osStatus_t osThreadYield (void) {
 516:Middlewares/Third_Party/FreeRTOS/Source/CMSIS_RTOS_V2/cmsis_os2.c ****   osStatus_t stat;
 517:Middlewares/Third_Party/FreeRTOS/Source/CMSIS_RTOS_V2/cmsis_os2.c **** 
 518:Middlewares/Third_Party/FreeRTOS/Source/CMSIS_RTOS_V2/cmsis_os2.c ****   if (IS_IRQ()) {
 519:Middlewares/Third_Party/FreeRTOS/Source/CMSIS_RTOS_V2/cmsis_os2.c ****     stat = osErrorISR;
 520:Middlewares/Third_Party/FreeRTOS/Source/CMSIS_RTOS_V2/cmsis_os2.c ****   } else {
 521:Middlewares/Third_Party/FreeRTOS/Source/CMSIS_RTOS_V2/cmsis_os2.c ****     stat = osOK;
 522:Middlewares/Third_Party/FreeRTOS/Source/CMSIS_RTOS_V2/cmsis_os2.c ****     taskYIELD();
 523:Middlewares/Third_Party/FreeRTOS/Source/CMSIS_RTOS_V2/cmsis_os2.c ****   }
 524:Middlewares/Third_Party/FreeRTOS/Source/CMSIS_RTOS_V2/cmsis_os2.c **** 
 525:Middlewares/Third_Party/FreeRTOS/Source/CMSIS_RTOS_V2/cmsis_os2.c ****   return (stat);
 526:Middlewares/Third_Party/FreeRTOS/Source/CMSIS_RTOS_V2/cmsis_os2.c **** }
 527:Middlewares/Third_Party/FreeRTOS/Source/CMSIS_RTOS_V2/cmsis_os2.c **** 
 528:Middlewares/Third_Party/FreeRTOS/Source/CMSIS_RTOS_V2/cmsis_os2.c **** osStatus_t osThreadSuspend (osThreadId_t thread_id) {
 529:Middlewares/Third_Party/FreeRTOS/Source/CMSIS_RTOS_V2/cmsis_os2.c ****   TaskHandle_t hTask = (TaskHandle_t)thread_id;
 530:Middlewares/Third_Party/FreeRTOS/Source/CMSIS_RTOS_V2/cmsis_os2.c ****   osStatus_t stat;
 531:Middlewares/Third_Party/FreeRTOS/Source/CMSIS_RTOS_V2/cmsis_os2.c **** 
 532:Middlewares/Third_Party/FreeRTOS/Source/CMSIS_RTOS_V2/cmsis_os2.c ****   if (IS_IRQ()) {
 533:Middlewares/Third_Party/FreeRTOS/Source/CMSIS_RTOS_V2/cmsis_os2.c ****     stat = osErrorISR;
 534:Middlewares/Third_Party/FreeRTOS/Source/CMSIS_RTOS_V2/cmsis_os2.c ****   }
 535:Middlewares/Third_Party/FreeRTOS/Source/CMSIS_RTOS_V2/cmsis_os2.c ****   else if (hTask == NULL) {
 536:Middlewares/Third_Party/FreeRTOS/Source/CMSIS_RTOS_V2/cmsis_os2.c ****     stat = osErrorParameter;
 537:Middlewares/Third_Party/FreeRTOS/Source/CMSIS_RTOS_V2/cmsis_os2.c ****   }
 538:Middlewares/Third_Party/FreeRTOS/Source/CMSIS_RTOS_V2/cmsis_os2.c ****   else {
 539:Middlewares/Third_Party/FreeRTOS/Source/CMSIS_RTOS_V2/cmsis_os2.c ****     stat = osOK;
 540:Middlewares/Third_Party/FreeRTOS/Source/CMSIS_RTOS_V2/cmsis_os2.c ****     vTaskSuspend (hTask);
 541:Middlewares/Third_Party/FreeRTOS/Source/CMSIS_RTOS_V2/cmsis_os2.c ****   }
 542:Middlewares/Third_Party/FreeRTOS/Source/CMSIS_RTOS_V2/cmsis_os2.c **** 
 543:Middlewares/Third_Party/FreeRTOS/Source/CMSIS_RTOS_V2/cmsis_os2.c ****   return (stat);
 544:Middlewares/Third_Party/FreeRTOS/Source/CMSIS_RTOS_V2/cmsis_os2.c **** }
 545:Middlewares/Third_Party/FreeRTOS/Source/CMSIS_RTOS_V2/cmsis_os2.c **** 
 546:Middlewares/Third_Party/FreeRTOS/Source/CMSIS_RTOS_V2/cmsis_os2.c **** osStatus_t osThreadResume (osThreadId_t thread_id) {
 547:Middlewares/Third_Party/FreeRTOS/Source/CMSIS_RTOS_V2/cmsis_os2.c ****   TaskHandle_t hTask = (TaskHandle_t)thread_id;
ARM GAS  /tmp/cce47g5y.s 			page 11


 548:Middlewares/Third_Party/FreeRTOS/Source/CMSIS_RTOS_V2/cmsis_os2.c ****   osStatus_t stat;
 549:Middlewares/Third_Party/FreeRTOS/Source/CMSIS_RTOS_V2/cmsis_os2.c **** 
 550:Middlewares/Third_Party/FreeRTOS/Source/CMSIS_RTOS_V2/cmsis_os2.c ****   if (IS_IRQ()) {
 551:Middlewares/Third_Party/FreeRTOS/Source/CMSIS_RTOS_V2/cmsis_os2.c ****     stat = osErrorISR;
 552:Middlewares/Third_Party/FreeRTOS/Source/CMSIS_RTOS_V2/cmsis_os2.c ****   }
 553:Middlewares/Third_Party/FreeRTOS/Source/CMSIS_RTOS_V2/cmsis_os2.c ****   else if (hTask == NULL) {
 554:Middlewares/Third_Party/FreeRTOS/Source/CMSIS_RTOS_V2/cmsis_os2.c ****     stat = osErrorParameter;
 555:Middlewares/Third_Party/FreeRTOS/Source/CMSIS_RTOS_V2/cmsis_os2.c ****   }
 556:Middlewares/Third_Party/FreeRTOS/Source/CMSIS_RTOS_V2/cmsis_os2.c ****   else {
 557:Middlewares/Third_Party/FreeRTOS/Source/CMSIS_RTOS_V2/cmsis_os2.c ****     stat = osOK;
 558:Middlewares/Third_Party/FreeRTOS/Source/CMSIS_RTOS_V2/cmsis_os2.c ****     vTaskResume (hTask);
 559:Middlewares/Third_Party/FreeRTOS/Source/CMSIS_RTOS_V2/cmsis_os2.c ****   }
 560:Middlewares/Third_Party/FreeRTOS/Source/CMSIS_RTOS_V2/cmsis_os2.c **** 
 561:Middlewares/Third_Party/FreeRTOS/Source/CMSIS_RTOS_V2/cmsis_os2.c ****   return (stat);
 562:Middlewares/Third_Party/FreeRTOS/Source/CMSIS_RTOS_V2/cmsis_os2.c **** }
 563:Middlewares/Third_Party/FreeRTOS/Source/CMSIS_RTOS_V2/cmsis_os2.c **** 
 564:Middlewares/Third_Party/FreeRTOS/Source/CMSIS_RTOS_V2/cmsis_os2.c **** __NO_RETURN void osThreadExit (void) {
 565:Middlewares/Third_Party/FreeRTOS/Source/CMSIS_RTOS_V2/cmsis_os2.c **** #ifndef USE_FreeRTOS_HEAP_1
 566:Middlewares/Third_Party/FreeRTOS/Source/CMSIS_RTOS_V2/cmsis_os2.c ****   vTaskDelete (NULL);
 567:Middlewares/Third_Party/FreeRTOS/Source/CMSIS_RTOS_V2/cmsis_os2.c **** #endif
 568:Middlewares/Third_Party/FreeRTOS/Source/CMSIS_RTOS_V2/cmsis_os2.c ****   for (;;);
 569:Middlewares/Third_Party/FreeRTOS/Source/CMSIS_RTOS_V2/cmsis_os2.c **** }
 570:Middlewares/Third_Party/FreeRTOS/Source/CMSIS_RTOS_V2/cmsis_os2.c **** 
 571:Middlewares/Third_Party/FreeRTOS/Source/CMSIS_RTOS_V2/cmsis_os2.c **** osStatus_t osThreadTerminate (osThreadId_t thread_id) {
 572:Middlewares/Third_Party/FreeRTOS/Source/CMSIS_RTOS_V2/cmsis_os2.c ****   TaskHandle_t hTask = (TaskHandle_t)thread_id;
 573:Middlewares/Third_Party/FreeRTOS/Source/CMSIS_RTOS_V2/cmsis_os2.c ****   osStatus_t stat;
 574:Middlewares/Third_Party/FreeRTOS/Source/CMSIS_RTOS_V2/cmsis_os2.c **** #ifndef USE_FreeRTOS_HEAP_1
 575:Middlewares/Third_Party/FreeRTOS/Source/CMSIS_RTOS_V2/cmsis_os2.c ****   eTaskState tstate;
 576:Middlewares/Third_Party/FreeRTOS/Source/CMSIS_RTOS_V2/cmsis_os2.c **** 
 577:Middlewares/Third_Party/FreeRTOS/Source/CMSIS_RTOS_V2/cmsis_os2.c ****   if (IS_IRQ()) {
 578:Middlewares/Third_Party/FreeRTOS/Source/CMSIS_RTOS_V2/cmsis_os2.c ****     stat = osErrorISR;
 579:Middlewares/Third_Party/FreeRTOS/Source/CMSIS_RTOS_V2/cmsis_os2.c ****   }
 580:Middlewares/Third_Party/FreeRTOS/Source/CMSIS_RTOS_V2/cmsis_os2.c ****   else if (hTask == NULL) {
 581:Middlewares/Third_Party/FreeRTOS/Source/CMSIS_RTOS_V2/cmsis_os2.c ****     stat = osErrorParameter;
 582:Middlewares/Third_Party/FreeRTOS/Source/CMSIS_RTOS_V2/cmsis_os2.c ****   }
 583:Middlewares/Third_Party/FreeRTOS/Source/CMSIS_RTOS_V2/cmsis_os2.c ****   else {
 584:Middlewares/Third_Party/FreeRTOS/Source/CMSIS_RTOS_V2/cmsis_os2.c ****     tstate = eTaskGetState (hTask);
 585:Middlewares/Third_Party/FreeRTOS/Source/CMSIS_RTOS_V2/cmsis_os2.c **** 
 586:Middlewares/Third_Party/FreeRTOS/Source/CMSIS_RTOS_V2/cmsis_os2.c ****     if (tstate != eDeleted) {
 587:Middlewares/Third_Party/FreeRTOS/Source/CMSIS_RTOS_V2/cmsis_os2.c ****       stat = osOK;
 588:Middlewares/Third_Party/FreeRTOS/Source/CMSIS_RTOS_V2/cmsis_os2.c ****       vTaskDelete (hTask);
 589:Middlewares/Third_Party/FreeRTOS/Source/CMSIS_RTOS_V2/cmsis_os2.c ****     } else {
 590:Middlewares/Third_Party/FreeRTOS/Source/CMSIS_RTOS_V2/cmsis_os2.c ****       stat = osErrorResource;
 591:Middlewares/Third_Party/FreeRTOS/Source/CMSIS_RTOS_V2/cmsis_os2.c ****     }
 592:Middlewares/Third_Party/FreeRTOS/Source/CMSIS_RTOS_V2/cmsis_os2.c ****   }
 593:Middlewares/Third_Party/FreeRTOS/Source/CMSIS_RTOS_V2/cmsis_os2.c **** #else
 594:Middlewares/Third_Party/FreeRTOS/Source/CMSIS_RTOS_V2/cmsis_os2.c ****   stat = osError;
 595:Middlewares/Third_Party/FreeRTOS/Source/CMSIS_RTOS_V2/cmsis_os2.c **** #endif
 596:Middlewares/Third_Party/FreeRTOS/Source/CMSIS_RTOS_V2/cmsis_os2.c **** 
 597:Middlewares/Third_Party/FreeRTOS/Source/CMSIS_RTOS_V2/cmsis_os2.c ****   return (stat);
 598:Middlewares/Third_Party/FreeRTOS/Source/CMSIS_RTOS_V2/cmsis_os2.c **** }
 599:Middlewares/Third_Party/FreeRTOS/Source/CMSIS_RTOS_V2/cmsis_os2.c **** 
 600:Middlewares/Third_Party/FreeRTOS/Source/CMSIS_RTOS_V2/cmsis_os2.c **** uint32_t osThreadGetCount (void) {
 601:Middlewares/Third_Party/FreeRTOS/Source/CMSIS_RTOS_V2/cmsis_os2.c ****   uint32_t count;
 602:Middlewares/Third_Party/FreeRTOS/Source/CMSIS_RTOS_V2/cmsis_os2.c **** 
 603:Middlewares/Third_Party/FreeRTOS/Source/CMSIS_RTOS_V2/cmsis_os2.c ****   if (IS_IRQ()) {
 604:Middlewares/Third_Party/FreeRTOS/Source/CMSIS_RTOS_V2/cmsis_os2.c ****     count = 0U;
ARM GAS  /tmp/cce47g5y.s 			page 12


 605:Middlewares/Third_Party/FreeRTOS/Source/CMSIS_RTOS_V2/cmsis_os2.c ****   } else {
 606:Middlewares/Third_Party/FreeRTOS/Source/CMSIS_RTOS_V2/cmsis_os2.c ****     count = uxTaskGetNumberOfTasks();
 607:Middlewares/Third_Party/FreeRTOS/Source/CMSIS_RTOS_V2/cmsis_os2.c ****   }
 608:Middlewares/Third_Party/FreeRTOS/Source/CMSIS_RTOS_V2/cmsis_os2.c **** 
 609:Middlewares/Third_Party/FreeRTOS/Source/CMSIS_RTOS_V2/cmsis_os2.c ****   return (count);
 610:Middlewares/Third_Party/FreeRTOS/Source/CMSIS_RTOS_V2/cmsis_os2.c **** }
 611:Middlewares/Third_Party/FreeRTOS/Source/CMSIS_RTOS_V2/cmsis_os2.c **** 
 612:Middlewares/Third_Party/FreeRTOS/Source/CMSIS_RTOS_V2/cmsis_os2.c **** uint32_t osThreadEnumerate (osThreadId_t *thread_array, uint32_t array_items) {
 613:Middlewares/Third_Party/FreeRTOS/Source/CMSIS_RTOS_V2/cmsis_os2.c ****   uint32_t i, count;
 614:Middlewares/Third_Party/FreeRTOS/Source/CMSIS_RTOS_V2/cmsis_os2.c ****   TaskStatus_t *task;
 615:Middlewares/Third_Party/FreeRTOS/Source/CMSIS_RTOS_V2/cmsis_os2.c **** 
 616:Middlewares/Third_Party/FreeRTOS/Source/CMSIS_RTOS_V2/cmsis_os2.c ****   if (IS_IRQ() || (thread_array == NULL) || (array_items == 0U)) {
 617:Middlewares/Third_Party/FreeRTOS/Source/CMSIS_RTOS_V2/cmsis_os2.c ****     count = 0U;
 618:Middlewares/Third_Party/FreeRTOS/Source/CMSIS_RTOS_V2/cmsis_os2.c ****   } else {
 619:Middlewares/Third_Party/FreeRTOS/Source/CMSIS_RTOS_V2/cmsis_os2.c ****     vTaskSuspendAll();
 620:Middlewares/Third_Party/FreeRTOS/Source/CMSIS_RTOS_V2/cmsis_os2.c **** 
 621:Middlewares/Third_Party/FreeRTOS/Source/CMSIS_RTOS_V2/cmsis_os2.c ****     count = uxTaskGetNumberOfTasks();
 622:Middlewares/Third_Party/FreeRTOS/Source/CMSIS_RTOS_V2/cmsis_os2.c ****     task  = pvPortMalloc (count * sizeof(TaskStatus_t));
 623:Middlewares/Third_Party/FreeRTOS/Source/CMSIS_RTOS_V2/cmsis_os2.c **** 
 624:Middlewares/Third_Party/FreeRTOS/Source/CMSIS_RTOS_V2/cmsis_os2.c ****     if (task != NULL) {
 625:Middlewares/Third_Party/FreeRTOS/Source/CMSIS_RTOS_V2/cmsis_os2.c ****       count = uxTaskGetSystemState (task, count, NULL);
 626:Middlewares/Third_Party/FreeRTOS/Source/CMSIS_RTOS_V2/cmsis_os2.c **** 
 627:Middlewares/Third_Party/FreeRTOS/Source/CMSIS_RTOS_V2/cmsis_os2.c ****       for (i = 0U; (i < count) && (i < array_items); i++) {
 628:Middlewares/Third_Party/FreeRTOS/Source/CMSIS_RTOS_V2/cmsis_os2.c ****         thread_array[i] = (osThreadId_t)task[i].xHandle;
 629:Middlewares/Third_Party/FreeRTOS/Source/CMSIS_RTOS_V2/cmsis_os2.c ****       }
 630:Middlewares/Third_Party/FreeRTOS/Source/CMSIS_RTOS_V2/cmsis_os2.c ****       count = i;
 631:Middlewares/Third_Party/FreeRTOS/Source/CMSIS_RTOS_V2/cmsis_os2.c ****     }
 632:Middlewares/Third_Party/FreeRTOS/Source/CMSIS_RTOS_V2/cmsis_os2.c ****     (void)xTaskResumeAll();
 633:Middlewares/Third_Party/FreeRTOS/Source/CMSIS_RTOS_V2/cmsis_os2.c **** 
 634:Middlewares/Third_Party/FreeRTOS/Source/CMSIS_RTOS_V2/cmsis_os2.c ****     vPortFree (task);
 635:Middlewares/Third_Party/FreeRTOS/Source/CMSIS_RTOS_V2/cmsis_os2.c ****   }
 636:Middlewares/Third_Party/FreeRTOS/Source/CMSIS_RTOS_V2/cmsis_os2.c **** 
 637:Middlewares/Third_Party/FreeRTOS/Source/CMSIS_RTOS_V2/cmsis_os2.c ****   return (count);
 638:Middlewares/Third_Party/FreeRTOS/Source/CMSIS_RTOS_V2/cmsis_os2.c **** }
 639:Middlewares/Third_Party/FreeRTOS/Source/CMSIS_RTOS_V2/cmsis_os2.c **** 
 640:Middlewares/Third_Party/FreeRTOS/Source/CMSIS_RTOS_V2/cmsis_os2.c **** uint32_t osThreadFlagsSet (osThreadId_t thread_id, uint32_t flags) {
 641:Middlewares/Third_Party/FreeRTOS/Source/CMSIS_RTOS_V2/cmsis_os2.c ****   TaskHandle_t hTask = (TaskHandle_t)thread_id;
 642:Middlewares/Third_Party/FreeRTOS/Source/CMSIS_RTOS_V2/cmsis_os2.c ****   uint32_t rflags;
 643:Middlewares/Third_Party/FreeRTOS/Source/CMSIS_RTOS_V2/cmsis_os2.c ****   BaseType_t yield;
 644:Middlewares/Third_Party/FreeRTOS/Source/CMSIS_RTOS_V2/cmsis_os2.c **** 
 645:Middlewares/Third_Party/FreeRTOS/Source/CMSIS_RTOS_V2/cmsis_os2.c ****   if ((hTask == NULL) || ((flags & THREAD_FLAGS_INVALID_BITS) != 0U)) {
 646:Middlewares/Third_Party/FreeRTOS/Source/CMSIS_RTOS_V2/cmsis_os2.c ****     rflags = (uint32_t)osErrorParameter;
 647:Middlewares/Third_Party/FreeRTOS/Source/CMSIS_RTOS_V2/cmsis_os2.c ****   }
 648:Middlewares/Third_Party/FreeRTOS/Source/CMSIS_RTOS_V2/cmsis_os2.c ****   else {
 649:Middlewares/Third_Party/FreeRTOS/Source/CMSIS_RTOS_V2/cmsis_os2.c ****     rflags = (uint32_t)osError;
 650:Middlewares/Third_Party/FreeRTOS/Source/CMSIS_RTOS_V2/cmsis_os2.c **** 
 651:Middlewares/Third_Party/FreeRTOS/Source/CMSIS_RTOS_V2/cmsis_os2.c ****     if (IS_IRQ()) {
 652:Middlewares/Third_Party/FreeRTOS/Source/CMSIS_RTOS_V2/cmsis_os2.c ****       yield = pdFALSE;
 653:Middlewares/Third_Party/FreeRTOS/Source/CMSIS_RTOS_V2/cmsis_os2.c **** 
 654:Middlewares/Third_Party/FreeRTOS/Source/CMSIS_RTOS_V2/cmsis_os2.c ****       (void)xTaskNotifyFromISR (hTask, flags, eSetBits, &yield);
 655:Middlewares/Third_Party/FreeRTOS/Source/CMSIS_RTOS_V2/cmsis_os2.c ****       (void)xTaskNotifyAndQueryFromISR (hTask, 0, eNoAction, &rflags, NULL);
 656:Middlewares/Third_Party/FreeRTOS/Source/CMSIS_RTOS_V2/cmsis_os2.c **** 
 657:Middlewares/Third_Party/FreeRTOS/Source/CMSIS_RTOS_V2/cmsis_os2.c ****       portYIELD_FROM_ISR (yield);
 658:Middlewares/Third_Party/FreeRTOS/Source/CMSIS_RTOS_V2/cmsis_os2.c ****     }
 659:Middlewares/Third_Party/FreeRTOS/Source/CMSIS_RTOS_V2/cmsis_os2.c ****     else {
 660:Middlewares/Third_Party/FreeRTOS/Source/CMSIS_RTOS_V2/cmsis_os2.c ****       (void)xTaskNotify (hTask, flags, eSetBits);
 661:Middlewares/Third_Party/FreeRTOS/Source/CMSIS_RTOS_V2/cmsis_os2.c ****       (void)xTaskNotifyAndQuery (hTask, 0, eNoAction, &rflags);
ARM GAS  /tmp/cce47g5y.s 			page 13


 662:Middlewares/Third_Party/FreeRTOS/Source/CMSIS_RTOS_V2/cmsis_os2.c ****     }
 663:Middlewares/Third_Party/FreeRTOS/Source/CMSIS_RTOS_V2/cmsis_os2.c ****   }
 664:Middlewares/Third_Party/FreeRTOS/Source/CMSIS_RTOS_V2/cmsis_os2.c ****   /* Return flags after setting */
 665:Middlewares/Third_Party/FreeRTOS/Source/CMSIS_RTOS_V2/cmsis_os2.c ****   return (rflags);
 666:Middlewares/Third_Party/FreeRTOS/Source/CMSIS_RTOS_V2/cmsis_os2.c **** }
 667:Middlewares/Third_Party/FreeRTOS/Source/CMSIS_RTOS_V2/cmsis_os2.c **** 
 668:Middlewares/Third_Party/FreeRTOS/Source/CMSIS_RTOS_V2/cmsis_os2.c **** uint32_t osThreadFlagsClear (uint32_t flags) {
 669:Middlewares/Third_Party/FreeRTOS/Source/CMSIS_RTOS_V2/cmsis_os2.c ****   TaskHandle_t hTask;
 670:Middlewares/Third_Party/FreeRTOS/Source/CMSIS_RTOS_V2/cmsis_os2.c ****   uint32_t rflags, cflags;
 671:Middlewares/Third_Party/FreeRTOS/Source/CMSIS_RTOS_V2/cmsis_os2.c **** 
 672:Middlewares/Third_Party/FreeRTOS/Source/CMSIS_RTOS_V2/cmsis_os2.c ****   if (IS_IRQ()) {
 673:Middlewares/Third_Party/FreeRTOS/Source/CMSIS_RTOS_V2/cmsis_os2.c ****     rflags = (uint32_t)osErrorISR;
 674:Middlewares/Third_Party/FreeRTOS/Source/CMSIS_RTOS_V2/cmsis_os2.c ****   }
 675:Middlewares/Third_Party/FreeRTOS/Source/CMSIS_RTOS_V2/cmsis_os2.c ****   else if ((flags & THREAD_FLAGS_INVALID_BITS) != 0U) {
 676:Middlewares/Third_Party/FreeRTOS/Source/CMSIS_RTOS_V2/cmsis_os2.c ****     rflags = (uint32_t)osErrorParameter;
 677:Middlewares/Third_Party/FreeRTOS/Source/CMSIS_RTOS_V2/cmsis_os2.c ****   }
 678:Middlewares/Third_Party/FreeRTOS/Source/CMSIS_RTOS_V2/cmsis_os2.c ****   else {
 679:Middlewares/Third_Party/FreeRTOS/Source/CMSIS_RTOS_V2/cmsis_os2.c ****     hTask = xTaskGetCurrentTaskHandle();
 680:Middlewares/Third_Party/FreeRTOS/Source/CMSIS_RTOS_V2/cmsis_os2.c **** 
 681:Middlewares/Third_Party/FreeRTOS/Source/CMSIS_RTOS_V2/cmsis_os2.c ****     if (xTaskNotifyAndQuery (hTask, 0, eNoAction, &cflags) == pdPASS) {
 682:Middlewares/Third_Party/FreeRTOS/Source/CMSIS_RTOS_V2/cmsis_os2.c ****       rflags = cflags;
 683:Middlewares/Third_Party/FreeRTOS/Source/CMSIS_RTOS_V2/cmsis_os2.c ****       cflags &= ~flags;
 684:Middlewares/Third_Party/FreeRTOS/Source/CMSIS_RTOS_V2/cmsis_os2.c **** 
 685:Middlewares/Third_Party/FreeRTOS/Source/CMSIS_RTOS_V2/cmsis_os2.c ****       if (xTaskNotify (hTask, cflags, eSetValueWithOverwrite) != pdPASS) {
 686:Middlewares/Third_Party/FreeRTOS/Source/CMSIS_RTOS_V2/cmsis_os2.c ****         rflags = (uint32_t)osError;
 687:Middlewares/Third_Party/FreeRTOS/Source/CMSIS_RTOS_V2/cmsis_os2.c ****       }
 688:Middlewares/Third_Party/FreeRTOS/Source/CMSIS_RTOS_V2/cmsis_os2.c ****     }
 689:Middlewares/Third_Party/FreeRTOS/Source/CMSIS_RTOS_V2/cmsis_os2.c ****     else {
 690:Middlewares/Third_Party/FreeRTOS/Source/CMSIS_RTOS_V2/cmsis_os2.c ****       rflags = (uint32_t)osError;
 691:Middlewares/Third_Party/FreeRTOS/Source/CMSIS_RTOS_V2/cmsis_os2.c ****     }
 692:Middlewares/Third_Party/FreeRTOS/Source/CMSIS_RTOS_V2/cmsis_os2.c ****   }
 693:Middlewares/Third_Party/FreeRTOS/Source/CMSIS_RTOS_V2/cmsis_os2.c **** 
 694:Middlewares/Third_Party/FreeRTOS/Source/CMSIS_RTOS_V2/cmsis_os2.c ****   /* Return flags before clearing */
 695:Middlewares/Third_Party/FreeRTOS/Source/CMSIS_RTOS_V2/cmsis_os2.c ****   return (rflags);
 696:Middlewares/Third_Party/FreeRTOS/Source/CMSIS_RTOS_V2/cmsis_os2.c **** }
 697:Middlewares/Third_Party/FreeRTOS/Source/CMSIS_RTOS_V2/cmsis_os2.c **** 
 698:Middlewares/Third_Party/FreeRTOS/Source/CMSIS_RTOS_V2/cmsis_os2.c **** uint32_t osThreadFlagsGet (void) {
 699:Middlewares/Third_Party/FreeRTOS/Source/CMSIS_RTOS_V2/cmsis_os2.c ****   TaskHandle_t hTask;
 700:Middlewares/Third_Party/FreeRTOS/Source/CMSIS_RTOS_V2/cmsis_os2.c ****   uint32_t rflags;
 701:Middlewares/Third_Party/FreeRTOS/Source/CMSIS_RTOS_V2/cmsis_os2.c **** 
 702:Middlewares/Third_Party/FreeRTOS/Source/CMSIS_RTOS_V2/cmsis_os2.c ****   if (IS_IRQ()) {
 703:Middlewares/Third_Party/FreeRTOS/Source/CMSIS_RTOS_V2/cmsis_os2.c ****     rflags = (uint32_t)osErrorISR;
 704:Middlewares/Third_Party/FreeRTOS/Source/CMSIS_RTOS_V2/cmsis_os2.c ****   }
 705:Middlewares/Third_Party/FreeRTOS/Source/CMSIS_RTOS_V2/cmsis_os2.c ****   else {
 706:Middlewares/Third_Party/FreeRTOS/Source/CMSIS_RTOS_V2/cmsis_os2.c ****     hTask = xTaskGetCurrentTaskHandle();
 707:Middlewares/Third_Party/FreeRTOS/Source/CMSIS_RTOS_V2/cmsis_os2.c **** 
 708:Middlewares/Third_Party/FreeRTOS/Source/CMSIS_RTOS_V2/cmsis_os2.c ****     if (xTaskNotifyAndQuery (hTask, 0, eNoAction, &rflags) != pdPASS) {
 709:Middlewares/Third_Party/FreeRTOS/Source/CMSIS_RTOS_V2/cmsis_os2.c ****       rflags = (uint32_t)osError;
 710:Middlewares/Third_Party/FreeRTOS/Source/CMSIS_RTOS_V2/cmsis_os2.c ****     }
 711:Middlewares/Third_Party/FreeRTOS/Source/CMSIS_RTOS_V2/cmsis_os2.c ****   }
 712:Middlewares/Third_Party/FreeRTOS/Source/CMSIS_RTOS_V2/cmsis_os2.c **** 
 713:Middlewares/Third_Party/FreeRTOS/Source/CMSIS_RTOS_V2/cmsis_os2.c ****   return (rflags);
 714:Middlewares/Third_Party/FreeRTOS/Source/CMSIS_RTOS_V2/cmsis_os2.c **** }
 715:Middlewares/Third_Party/FreeRTOS/Source/CMSIS_RTOS_V2/cmsis_os2.c **** 
 716:Middlewares/Third_Party/FreeRTOS/Source/CMSIS_RTOS_V2/cmsis_os2.c **** uint32_t osThreadFlagsWait (uint32_t flags, uint32_t options, uint32_t timeout) {
 717:Middlewares/Third_Party/FreeRTOS/Source/CMSIS_RTOS_V2/cmsis_os2.c ****   uint32_t rflags, nval;
 718:Middlewares/Third_Party/FreeRTOS/Source/CMSIS_RTOS_V2/cmsis_os2.c ****   uint32_t clear;
ARM GAS  /tmp/cce47g5y.s 			page 14


 719:Middlewares/Third_Party/FreeRTOS/Source/CMSIS_RTOS_V2/cmsis_os2.c ****   TickType_t t0, td, tout;
 720:Middlewares/Third_Party/FreeRTOS/Source/CMSIS_RTOS_V2/cmsis_os2.c ****   BaseType_t rval;
 721:Middlewares/Third_Party/FreeRTOS/Source/CMSIS_RTOS_V2/cmsis_os2.c **** 
 722:Middlewares/Third_Party/FreeRTOS/Source/CMSIS_RTOS_V2/cmsis_os2.c ****   if (IS_IRQ()) {
 723:Middlewares/Third_Party/FreeRTOS/Source/CMSIS_RTOS_V2/cmsis_os2.c ****     rflags = (uint32_t)osErrorISR;
 724:Middlewares/Third_Party/FreeRTOS/Source/CMSIS_RTOS_V2/cmsis_os2.c ****   }
 725:Middlewares/Third_Party/FreeRTOS/Source/CMSIS_RTOS_V2/cmsis_os2.c ****   else if ((flags & THREAD_FLAGS_INVALID_BITS) != 0U) {
 726:Middlewares/Third_Party/FreeRTOS/Source/CMSIS_RTOS_V2/cmsis_os2.c ****     rflags = (uint32_t)osErrorParameter;
 727:Middlewares/Third_Party/FreeRTOS/Source/CMSIS_RTOS_V2/cmsis_os2.c ****   }
 728:Middlewares/Third_Party/FreeRTOS/Source/CMSIS_RTOS_V2/cmsis_os2.c ****   else {
 729:Middlewares/Third_Party/FreeRTOS/Source/CMSIS_RTOS_V2/cmsis_os2.c ****     if ((options & osFlagsNoClear) == osFlagsNoClear) {
 730:Middlewares/Third_Party/FreeRTOS/Source/CMSIS_RTOS_V2/cmsis_os2.c ****       clear = 0U;
 731:Middlewares/Third_Party/FreeRTOS/Source/CMSIS_RTOS_V2/cmsis_os2.c ****     } else {
 732:Middlewares/Third_Party/FreeRTOS/Source/CMSIS_RTOS_V2/cmsis_os2.c ****       clear = flags;
 733:Middlewares/Third_Party/FreeRTOS/Source/CMSIS_RTOS_V2/cmsis_os2.c ****     }
 734:Middlewares/Third_Party/FreeRTOS/Source/CMSIS_RTOS_V2/cmsis_os2.c **** 
 735:Middlewares/Third_Party/FreeRTOS/Source/CMSIS_RTOS_V2/cmsis_os2.c ****     rflags = 0U;
 736:Middlewares/Third_Party/FreeRTOS/Source/CMSIS_RTOS_V2/cmsis_os2.c ****     tout   = timeout;
 737:Middlewares/Third_Party/FreeRTOS/Source/CMSIS_RTOS_V2/cmsis_os2.c **** 
 738:Middlewares/Third_Party/FreeRTOS/Source/CMSIS_RTOS_V2/cmsis_os2.c ****     t0 = xTaskGetTickCount();
 739:Middlewares/Third_Party/FreeRTOS/Source/CMSIS_RTOS_V2/cmsis_os2.c ****     do {
 740:Middlewares/Third_Party/FreeRTOS/Source/CMSIS_RTOS_V2/cmsis_os2.c ****       rval = xTaskNotifyWait (0, clear, &nval, tout);
 741:Middlewares/Third_Party/FreeRTOS/Source/CMSIS_RTOS_V2/cmsis_os2.c **** 
 742:Middlewares/Third_Party/FreeRTOS/Source/CMSIS_RTOS_V2/cmsis_os2.c ****       if (rval == pdPASS) {
 743:Middlewares/Third_Party/FreeRTOS/Source/CMSIS_RTOS_V2/cmsis_os2.c ****         rflags &= flags;
 744:Middlewares/Third_Party/FreeRTOS/Source/CMSIS_RTOS_V2/cmsis_os2.c ****         rflags |= nval;
 745:Middlewares/Third_Party/FreeRTOS/Source/CMSIS_RTOS_V2/cmsis_os2.c **** 
 746:Middlewares/Third_Party/FreeRTOS/Source/CMSIS_RTOS_V2/cmsis_os2.c ****         if ((options & osFlagsWaitAll) == osFlagsWaitAll) {
 747:Middlewares/Third_Party/FreeRTOS/Source/CMSIS_RTOS_V2/cmsis_os2.c ****           if ((flags & rflags) == flags) {
 748:Middlewares/Third_Party/FreeRTOS/Source/CMSIS_RTOS_V2/cmsis_os2.c ****             break;
 749:Middlewares/Third_Party/FreeRTOS/Source/CMSIS_RTOS_V2/cmsis_os2.c ****           } else {
 750:Middlewares/Third_Party/FreeRTOS/Source/CMSIS_RTOS_V2/cmsis_os2.c ****             if (timeout == 0U) {
 751:Middlewares/Third_Party/FreeRTOS/Source/CMSIS_RTOS_V2/cmsis_os2.c ****               rflags = (uint32_t)osErrorResource;
 752:Middlewares/Third_Party/FreeRTOS/Source/CMSIS_RTOS_V2/cmsis_os2.c ****               break;
 753:Middlewares/Third_Party/FreeRTOS/Source/CMSIS_RTOS_V2/cmsis_os2.c ****             }
 754:Middlewares/Third_Party/FreeRTOS/Source/CMSIS_RTOS_V2/cmsis_os2.c ****           }
 755:Middlewares/Third_Party/FreeRTOS/Source/CMSIS_RTOS_V2/cmsis_os2.c ****         }
 756:Middlewares/Third_Party/FreeRTOS/Source/CMSIS_RTOS_V2/cmsis_os2.c ****         else {
 757:Middlewares/Third_Party/FreeRTOS/Source/CMSIS_RTOS_V2/cmsis_os2.c ****           if ((flags & rflags) != 0) {
 758:Middlewares/Third_Party/FreeRTOS/Source/CMSIS_RTOS_V2/cmsis_os2.c ****             break;
 759:Middlewares/Third_Party/FreeRTOS/Source/CMSIS_RTOS_V2/cmsis_os2.c ****           } else {
 760:Middlewares/Third_Party/FreeRTOS/Source/CMSIS_RTOS_V2/cmsis_os2.c ****             if (timeout == 0U) {
 761:Middlewares/Third_Party/FreeRTOS/Source/CMSIS_RTOS_V2/cmsis_os2.c ****               rflags = (uint32_t)osErrorResource;
 762:Middlewares/Third_Party/FreeRTOS/Source/CMSIS_RTOS_V2/cmsis_os2.c ****               break;
 763:Middlewares/Third_Party/FreeRTOS/Source/CMSIS_RTOS_V2/cmsis_os2.c ****             }
 764:Middlewares/Third_Party/FreeRTOS/Source/CMSIS_RTOS_V2/cmsis_os2.c ****           }
 765:Middlewares/Third_Party/FreeRTOS/Source/CMSIS_RTOS_V2/cmsis_os2.c ****         }
 766:Middlewares/Third_Party/FreeRTOS/Source/CMSIS_RTOS_V2/cmsis_os2.c **** 
 767:Middlewares/Third_Party/FreeRTOS/Source/CMSIS_RTOS_V2/cmsis_os2.c ****         /* Update timeout */
 768:Middlewares/Third_Party/FreeRTOS/Source/CMSIS_RTOS_V2/cmsis_os2.c ****         td = xTaskGetTickCount() - t0;
 769:Middlewares/Third_Party/FreeRTOS/Source/CMSIS_RTOS_V2/cmsis_os2.c **** 
 770:Middlewares/Third_Party/FreeRTOS/Source/CMSIS_RTOS_V2/cmsis_os2.c ****         if (td > tout) {
 771:Middlewares/Third_Party/FreeRTOS/Source/CMSIS_RTOS_V2/cmsis_os2.c ****           tout  = 0;
 772:Middlewares/Third_Party/FreeRTOS/Source/CMSIS_RTOS_V2/cmsis_os2.c ****         } else {
 773:Middlewares/Third_Party/FreeRTOS/Source/CMSIS_RTOS_V2/cmsis_os2.c ****           tout -= td;
 774:Middlewares/Third_Party/FreeRTOS/Source/CMSIS_RTOS_V2/cmsis_os2.c ****         }
 775:Middlewares/Third_Party/FreeRTOS/Source/CMSIS_RTOS_V2/cmsis_os2.c ****       }
ARM GAS  /tmp/cce47g5y.s 			page 15


 776:Middlewares/Third_Party/FreeRTOS/Source/CMSIS_RTOS_V2/cmsis_os2.c ****       else {
 777:Middlewares/Third_Party/FreeRTOS/Source/CMSIS_RTOS_V2/cmsis_os2.c ****         if (timeout == 0) {
 778:Middlewares/Third_Party/FreeRTOS/Source/CMSIS_RTOS_V2/cmsis_os2.c ****           rflags = (uint32_t)osErrorResource;
 779:Middlewares/Third_Party/FreeRTOS/Source/CMSIS_RTOS_V2/cmsis_os2.c ****         } else {
 780:Middlewares/Third_Party/FreeRTOS/Source/CMSIS_RTOS_V2/cmsis_os2.c ****           rflags = (uint32_t)osErrorTimeout;
 781:Middlewares/Third_Party/FreeRTOS/Source/CMSIS_RTOS_V2/cmsis_os2.c ****         }
 782:Middlewares/Third_Party/FreeRTOS/Source/CMSIS_RTOS_V2/cmsis_os2.c ****       }
 783:Middlewares/Third_Party/FreeRTOS/Source/CMSIS_RTOS_V2/cmsis_os2.c ****     }
 784:Middlewares/Third_Party/FreeRTOS/Source/CMSIS_RTOS_V2/cmsis_os2.c ****     while (rval != pdFAIL);
 785:Middlewares/Third_Party/FreeRTOS/Source/CMSIS_RTOS_V2/cmsis_os2.c ****   }
 786:Middlewares/Third_Party/FreeRTOS/Source/CMSIS_RTOS_V2/cmsis_os2.c **** 
 787:Middlewares/Third_Party/FreeRTOS/Source/CMSIS_RTOS_V2/cmsis_os2.c ****   /* Return flags before clearing */
 788:Middlewares/Third_Party/FreeRTOS/Source/CMSIS_RTOS_V2/cmsis_os2.c ****   return (rflags);
 789:Middlewares/Third_Party/FreeRTOS/Source/CMSIS_RTOS_V2/cmsis_os2.c **** }
 790:Middlewares/Third_Party/FreeRTOS/Source/CMSIS_RTOS_V2/cmsis_os2.c **** 
 791:Middlewares/Third_Party/FreeRTOS/Source/CMSIS_RTOS_V2/cmsis_os2.c **** osStatus_t osDelay (uint32_t ticks) {
 792:Middlewares/Third_Party/FreeRTOS/Source/CMSIS_RTOS_V2/cmsis_os2.c ****   osStatus_t stat;
 793:Middlewares/Third_Party/FreeRTOS/Source/CMSIS_RTOS_V2/cmsis_os2.c **** 
 794:Middlewares/Third_Party/FreeRTOS/Source/CMSIS_RTOS_V2/cmsis_os2.c ****   if (IS_IRQ()) {
 795:Middlewares/Third_Party/FreeRTOS/Source/CMSIS_RTOS_V2/cmsis_os2.c ****     stat = osErrorISR;
 796:Middlewares/Third_Party/FreeRTOS/Source/CMSIS_RTOS_V2/cmsis_os2.c ****   }
 797:Middlewares/Third_Party/FreeRTOS/Source/CMSIS_RTOS_V2/cmsis_os2.c ****   else {
 798:Middlewares/Third_Party/FreeRTOS/Source/CMSIS_RTOS_V2/cmsis_os2.c ****     stat = osOK;
 799:Middlewares/Third_Party/FreeRTOS/Source/CMSIS_RTOS_V2/cmsis_os2.c **** 
 800:Middlewares/Third_Party/FreeRTOS/Source/CMSIS_RTOS_V2/cmsis_os2.c ****     if (ticks != 0U) {
 801:Middlewares/Third_Party/FreeRTOS/Source/CMSIS_RTOS_V2/cmsis_os2.c ****       vTaskDelay(ticks);
 802:Middlewares/Third_Party/FreeRTOS/Source/CMSIS_RTOS_V2/cmsis_os2.c ****     }
 803:Middlewares/Third_Party/FreeRTOS/Source/CMSIS_RTOS_V2/cmsis_os2.c ****   }
 804:Middlewares/Third_Party/FreeRTOS/Source/CMSIS_RTOS_V2/cmsis_os2.c **** 
 805:Middlewares/Third_Party/FreeRTOS/Source/CMSIS_RTOS_V2/cmsis_os2.c ****   return (stat);
 806:Middlewares/Third_Party/FreeRTOS/Source/CMSIS_RTOS_V2/cmsis_os2.c **** }
 807:Middlewares/Third_Party/FreeRTOS/Source/CMSIS_RTOS_V2/cmsis_os2.c **** 
 808:Middlewares/Third_Party/FreeRTOS/Source/CMSIS_RTOS_V2/cmsis_os2.c **** osStatus_t osDelayUntil (uint32_t ticks) {
 809:Middlewares/Third_Party/FreeRTOS/Source/CMSIS_RTOS_V2/cmsis_os2.c ****   TickType_t tcnt;
 810:Middlewares/Third_Party/FreeRTOS/Source/CMSIS_RTOS_V2/cmsis_os2.c ****   osStatus_t stat;
 811:Middlewares/Third_Party/FreeRTOS/Source/CMSIS_RTOS_V2/cmsis_os2.c **** 
 812:Middlewares/Third_Party/FreeRTOS/Source/CMSIS_RTOS_V2/cmsis_os2.c ****   if (IS_IRQ()) {
 813:Middlewares/Third_Party/FreeRTOS/Source/CMSIS_RTOS_V2/cmsis_os2.c ****     stat = osErrorISR;
 814:Middlewares/Third_Party/FreeRTOS/Source/CMSIS_RTOS_V2/cmsis_os2.c ****   }
 815:Middlewares/Third_Party/FreeRTOS/Source/CMSIS_RTOS_V2/cmsis_os2.c ****   else {
 816:Middlewares/Third_Party/FreeRTOS/Source/CMSIS_RTOS_V2/cmsis_os2.c ****     stat = osOK;
 817:Middlewares/Third_Party/FreeRTOS/Source/CMSIS_RTOS_V2/cmsis_os2.c ****     tcnt = xTaskGetTickCount();
 818:Middlewares/Third_Party/FreeRTOS/Source/CMSIS_RTOS_V2/cmsis_os2.c **** 
 819:Middlewares/Third_Party/FreeRTOS/Source/CMSIS_RTOS_V2/cmsis_os2.c ****     vTaskDelayUntil (&tcnt, (TickType_t)(ticks - tcnt));
 820:Middlewares/Third_Party/FreeRTOS/Source/CMSIS_RTOS_V2/cmsis_os2.c ****   }
 821:Middlewares/Third_Party/FreeRTOS/Source/CMSIS_RTOS_V2/cmsis_os2.c **** 
 822:Middlewares/Third_Party/FreeRTOS/Source/CMSIS_RTOS_V2/cmsis_os2.c ****   return (stat);
 823:Middlewares/Third_Party/FreeRTOS/Source/CMSIS_RTOS_V2/cmsis_os2.c **** }
 824:Middlewares/Third_Party/FreeRTOS/Source/CMSIS_RTOS_V2/cmsis_os2.c **** 
 825:Middlewares/Third_Party/FreeRTOS/Source/CMSIS_RTOS_V2/cmsis_os2.c **** /*---------------------------------------------------------------------------*/
 826:Middlewares/Third_Party/FreeRTOS/Source/CMSIS_RTOS_V2/cmsis_os2.c **** 
 827:Middlewares/Third_Party/FreeRTOS/Source/CMSIS_RTOS_V2/cmsis_os2.c **** static void TimerCallback (TimerHandle_t hTimer) {
  25              		.loc 1 827 0
  26              		.cfi_startproc
  27              		@ args = 0, pretend = 0, frame = 0
  28              		@ frame_needed = 0, uses_anonymous_args = 0
  29              	.LVL0:
ARM GAS  /tmp/cce47g5y.s 			page 16


  30 0000 08B5     		push	{r3, lr}
  31              	.LCFI0:
  32              		.cfi_def_cfa_offset 8
  33              		.cfi_offset 3, -8
  34              		.cfi_offset 14, -4
 828:Middlewares/Third_Party/FreeRTOS/Source/CMSIS_RTOS_V2/cmsis_os2.c ****   TimerCallback_t *callb;
 829:Middlewares/Third_Party/FreeRTOS/Source/CMSIS_RTOS_V2/cmsis_os2.c **** 
 830:Middlewares/Third_Party/FreeRTOS/Source/CMSIS_RTOS_V2/cmsis_os2.c ****   callb = (TimerCallback_t *)pvTimerGetTimerID (hTimer);
  35              		.loc 1 830 0
  36 0002 FFF7FEFF 		bl	pvTimerGetTimerID
  37              	.LVL1:
 831:Middlewares/Third_Party/FreeRTOS/Source/CMSIS_RTOS_V2/cmsis_os2.c **** 
 832:Middlewares/Third_Party/FreeRTOS/Source/CMSIS_RTOS_V2/cmsis_os2.c ****   if (callb != NULL) {
  38              		.loc 1 832 0
  39 0006 10B1     		cbz	r0, .L1
 833:Middlewares/Third_Party/FreeRTOS/Source/CMSIS_RTOS_V2/cmsis_os2.c ****     callb->func (callb->arg);
  40              		.loc 1 833 0
  41 0008 0268     		ldr	r2, [r0]
  42 000a 4068     		ldr	r0, [r0, #4]
  43              	.LVL2:
  44 000c 9047     		blx	r2
  45              	.LVL3:
  46              	.L1:
  47 000e 08BD     		pop	{r3, pc}
  48              		.cfi_endproc
  49              	.LFE80:
  51              		.section	.text.osKernelInitialize,"ax",%progbits
  52              		.align	1
  53              		.global	osKernelInitialize
  54              		.syntax unified
  55              		.thumb
  56              		.thumb_func
  57              		.fpu softvfp
  59              	osKernelInitialize:
  60              	.LFB48:
 135:Middlewares/Third_Party/FreeRTOS/Source/CMSIS_RTOS_V2/cmsis_os2.c ****   osStatus_t stat;
  61              		.loc 1 135 0
  62              		.cfi_startproc
  63              		@ args = 0, pretend = 0, frame = 0
  64              		@ frame_needed = 0, uses_anonymous_args = 0
  65              		@ link register save eliminated.
  66              	.LBB334:
  67              	.LBB335:
  68              		.file 2 "Drivers/CMSIS/Include/cmsis_gcc.h"
   1:Drivers/CMSIS/Include/cmsis_gcc.h **** /**************************************************************************//**
   2:Drivers/CMSIS/Include/cmsis_gcc.h ****  * @file     cmsis_gcc.h
   3:Drivers/CMSIS/Include/cmsis_gcc.h ****  * @brief    CMSIS compiler GCC header file
   4:Drivers/CMSIS/Include/cmsis_gcc.h ****  * @version  V5.0.4
   5:Drivers/CMSIS/Include/cmsis_gcc.h ****  * @date     09. April 2018
   6:Drivers/CMSIS/Include/cmsis_gcc.h ****  ******************************************************************************/
   7:Drivers/CMSIS/Include/cmsis_gcc.h **** /*
   8:Drivers/CMSIS/Include/cmsis_gcc.h ****  * Copyright (c) 2009-2018 Arm Limited. All rights reserved.
   9:Drivers/CMSIS/Include/cmsis_gcc.h ****  *
  10:Drivers/CMSIS/Include/cmsis_gcc.h ****  * SPDX-License-Identifier: Apache-2.0
  11:Drivers/CMSIS/Include/cmsis_gcc.h ****  *
  12:Drivers/CMSIS/Include/cmsis_gcc.h ****  * Licensed under the Apache License, Version 2.0 (the License); you may
  13:Drivers/CMSIS/Include/cmsis_gcc.h ****  * not use this file except in compliance with the License.
ARM GAS  /tmp/cce47g5y.s 			page 17


  14:Drivers/CMSIS/Include/cmsis_gcc.h ****  * You may obtain a copy of the License at
  15:Drivers/CMSIS/Include/cmsis_gcc.h ****  *
  16:Drivers/CMSIS/Include/cmsis_gcc.h ****  * www.apache.org/licenses/LICENSE-2.0
  17:Drivers/CMSIS/Include/cmsis_gcc.h ****  *
  18:Drivers/CMSIS/Include/cmsis_gcc.h ****  * Unless required by applicable law or agreed to in writing, software
  19:Drivers/CMSIS/Include/cmsis_gcc.h ****  * distributed under the License is distributed on an AS IS BASIS, WITHOUT
  20:Drivers/CMSIS/Include/cmsis_gcc.h ****  * WARRANTIES OR CONDITIONS OF ANY KIND, either express or implied.
  21:Drivers/CMSIS/Include/cmsis_gcc.h ****  * See the License for the specific language governing permissions and
  22:Drivers/CMSIS/Include/cmsis_gcc.h ****  * limitations under the License.
  23:Drivers/CMSIS/Include/cmsis_gcc.h ****  */
  24:Drivers/CMSIS/Include/cmsis_gcc.h **** 
  25:Drivers/CMSIS/Include/cmsis_gcc.h **** #ifndef __CMSIS_GCC_H
  26:Drivers/CMSIS/Include/cmsis_gcc.h **** #define __CMSIS_GCC_H
  27:Drivers/CMSIS/Include/cmsis_gcc.h **** 
  28:Drivers/CMSIS/Include/cmsis_gcc.h **** /* ignore some GCC warnings */
  29:Drivers/CMSIS/Include/cmsis_gcc.h **** #pragma GCC diagnostic push
  30:Drivers/CMSIS/Include/cmsis_gcc.h **** #pragma GCC diagnostic ignored "-Wsign-conversion"
  31:Drivers/CMSIS/Include/cmsis_gcc.h **** #pragma GCC diagnostic ignored "-Wconversion"
  32:Drivers/CMSIS/Include/cmsis_gcc.h **** #pragma GCC diagnostic ignored "-Wunused-parameter"
  33:Drivers/CMSIS/Include/cmsis_gcc.h **** 
  34:Drivers/CMSIS/Include/cmsis_gcc.h **** /* Fallback for __has_builtin */
  35:Drivers/CMSIS/Include/cmsis_gcc.h **** #ifndef __has_builtin
  36:Drivers/CMSIS/Include/cmsis_gcc.h ****   #define __has_builtin(x) (0)
  37:Drivers/CMSIS/Include/cmsis_gcc.h **** #endif
  38:Drivers/CMSIS/Include/cmsis_gcc.h **** 
  39:Drivers/CMSIS/Include/cmsis_gcc.h **** /* CMSIS compiler specific defines */
  40:Drivers/CMSIS/Include/cmsis_gcc.h **** #ifndef   __ASM
  41:Drivers/CMSIS/Include/cmsis_gcc.h ****   #define __ASM                                  __asm
  42:Drivers/CMSIS/Include/cmsis_gcc.h **** #endif
  43:Drivers/CMSIS/Include/cmsis_gcc.h **** #ifndef   __INLINE
  44:Drivers/CMSIS/Include/cmsis_gcc.h ****   #define __INLINE                               inline
  45:Drivers/CMSIS/Include/cmsis_gcc.h **** #endif
  46:Drivers/CMSIS/Include/cmsis_gcc.h **** #ifndef   __STATIC_INLINE
  47:Drivers/CMSIS/Include/cmsis_gcc.h ****   #define __STATIC_INLINE                        static inline
  48:Drivers/CMSIS/Include/cmsis_gcc.h **** #endif
  49:Drivers/CMSIS/Include/cmsis_gcc.h **** #ifndef   __STATIC_FORCEINLINE                 
  50:Drivers/CMSIS/Include/cmsis_gcc.h ****   #define __STATIC_FORCEINLINE                   __attribute__((always_inline)) static inline
  51:Drivers/CMSIS/Include/cmsis_gcc.h **** #endif                                           
  52:Drivers/CMSIS/Include/cmsis_gcc.h **** #ifndef   __NO_RETURN
  53:Drivers/CMSIS/Include/cmsis_gcc.h ****   #define __NO_RETURN                            __attribute__((__noreturn__))
  54:Drivers/CMSIS/Include/cmsis_gcc.h **** #endif
  55:Drivers/CMSIS/Include/cmsis_gcc.h **** #ifndef   __USED
  56:Drivers/CMSIS/Include/cmsis_gcc.h ****   #define __USED                                 __attribute__((used))
  57:Drivers/CMSIS/Include/cmsis_gcc.h **** #endif
  58:Drivers/CMSIS/Include/cmsis_gcc.h **** #ifndef   __WEAK
  59:Drivers/CMSIS/Include/cmsis_gcc.h ****   #define __WEAK                                 __attribute__((weak))
  60:Drivers/CMSIS/Include/cmsis_gcc.h **** #endif
  61:Drivers/CMSIS/Include/cmsis_gcc.h **** #ifndef   __PACKED
  62:Drivers/CMSIS/Include/cmsis_gcc.h ****   #define __PACKED                               __attribute__((packed, aligned(1)))
  63:Drivers/CMSIS/Include/cmsis_gcc.h **** #endif
  64:Drivers/CMSIS/Include/cmsis_gcc.h **** #ifndef   __PACKED_STRUCT
  65:Drivers/CMSIS/Include/cmsis_gcc.h ****   #define __PACKED_STRUCT                        struct __attribute__((packed, aligned(1)))
  66:Drivers/CMSIS/Include/cmsis_gcc.h **** #endif
  67:Drivers/CMSIS/Include/cmsis_gcc.h **** #ifndef   __PACKED_UNION
  68:Drivers/CMSIS/Include/cmsis_gcc.h ****   #define __PACKED_UNION                         union __attribute__((packed, aligned(1)))
  69:Drivers/CMSIS/Include/cmsis_gcc.h **** #endif
  70:Drivers/CMSIS/Include/cmsis_gcc.h **** #ifndef   __UNALIGNED_UINT32        /* deprecated */
ARM GAS  /tmp/cce47g5y.s 			page 18


  71:Drivers/CMSIS/Include/cmsis_gcc.h ****   #pragma GCC diagnostic push
  72:Drivers/CMSIS/Include/cmsis_gcc.h ****   #pragma GCC diagnostic ignored "-Wpacked"
  73:Drivers/CMSIS/Include/cmsis_gcc.h ****   #pragma GCC diagnostic ignored "-Wattributes"
  74:Drivers/CMSIS/Include/cmsis_gcc.h ****   struct __attribute__((packed)) T_UINT32 { uint32_t v; };
  75:Drivers/CMSIS/Include/cmsis_gcc.h ****   #pragma GCC diagnostic pop
  76:Drivers/CMSIS/Include/cmsis_gcc.h ****   #define __UNALIGNED_UINT32(x)                  (((struct T_UINT32 *)(x))->v)
  77:Drivers/CMSIS/Include/cmsis_gcc.h **** #endif
  78:Drivers/CMSIS/Include/cmsis_gcc.h **** #ifndef   __UNALIGNED_UINT16_WRITE
  79:Drivers/CMSIS/Include/cmsis_gcc.h ****   #pragma GCC diagnostic push
  80:Drivers/CMSIS/Include/cmsis_gcc.h ****   #pragma GCC diagnostic ignored "-Wpacked"
  81:Drivers/CMSIS/Include/cmsis_gcc.h ****   #pragma GCC diagnostic ignored "-Wattributes"
  82:Drivers/CMSIS/Include/cmsis_gcc.h ****   __PACKED_STRUCT T_UINT16_WRITE { uint16_t v; };
  83:Drivers/CMSIS/Include/cmsis_gcc.h ****   #pragma GCC diagnostic pop
  84:Drivers/CMSIS/Include/cmsis_gcc.h ****   #define __UNALIGNED_UINT16_WRITE(addr, val)    (void)((((struct T_UINT16_WRITE *)(void *)(addr))-
  85:Drivers/CMSIS/Include/cmsis_gcc.h **** #endif
  86:Drivers/CMSIS/Include/cmsis_gcc.h **** #ifndef   __UNALIGNED_UINT16_READ
  87:Drivers/CMSIS/Include/cmsis_gcc.h ****   #pragma GCC diagnostic push
  88:Drivers/CMSIS/Include/cmsis_gcc.h ****   #pragma GCC diagnostic ignored "-Wpacked"
  89:Drivers/CMSIS/Include/cmsis_gcc.h ****   #pragma GCC diagnostic ignored "-Wattributes"
  90:Drivers/CMSIS/Include/cmsis_gcc.h ****   __PACKED_STRUCT T_UINT16_READ { uint16_t v; };
  91:Drivers/CMSIS/Include/cmsis_gcc.h ****   #pragma GCC diagnostic pop
  92:Drivers/CMSIS/Include/cmsis_gcc.h ****   #define __UNALIGNED_UINT16_READ(addr)          (((const struct T_UINT16_READ *)(const void *)(add
  93:Drivers/CMSIS/Include/cmsis_gcc.h **** #endif
  94:Drivers/CMSIS/Include/cmsis_gcc.h **** #ifndef   __UNALIGNED_UINT32_WRITE
  95:Drivers/CMSIS/Include/cmsis_gcc.h ****   #pragma GCC diagnostic push
  96:Drivers/CMSIS/Include/cmsis_gcc.h ****   #pragma GCC diagnostic ignored "-Wpacked"
  97:Drivers/CMSIS/Include/cmsis_gcc.h ****   #pragma GCC diagnostic ignored "-Wattributes"
  98:Drivers/CMSIS/Include/cmsis_gcc.h ****   __PACKED_STRUCT T_UINT32_WRITE { uint32_t v; };
  99:Drivers/CMSIS/Include/cmsis_gcc.h ****   #pragma GCC diagnostic pop
 100:Drivers/CMSIS/Include/cmsis_gcc.h ****   #define __UNALIGNED_UINT32_WRITE(addr, val)    (void)((((struct T_UINT32_WRITE *)(void *)(addr))-
 101:Drivers/CMSIS/Include/cmsis_gcc.h **** #endif
 102:Drivers/CMSIS/Include/cmsis_gcc.h **** #ifndef   __UNALIGNED_UINT32_READ
 103:Drivers/CMSIS/Include/cmsis_gcc.h ****   #pragma GCC diagnostic push
 104:Drivers/CMSIS/Include/cmsis_gcc.h ****   #pragma GCC diagnostic ignored "-Wpacked"
 105:Drivers/CMSIS/Include/cmsis_gcc.h ****   #pragma GCC diagnostic ignored "-Wattributes"
 106:Drivers/CMSIS/Include/cmsis_gcc.h ****   __PACKED_STRUCT T_UINT32_READ { uint32_t v; };
 107:Drivers/CMSIS/Include/cmsis_gcc.h ****   #pragma GCC diagnostic pop
 108:Drivers/CMSIS/Include/cmsis_gcc.h ****   #define __UNALIGNED_UINT32_READ(addr)          (((const struct T_UINT32_READ *)(const void *)(add
 109:Drivers/CMSIS/Include/cmsis_gcc.h **** #endif
 110:Drivers/CMSIS/Include/cmsis_gcc.h **** #ifndef   __ALIGNED
 111:Drivers/CMSIS/Include/cmsis_gcc.h ****   #define __ALIGNED(x)                           __attribute__((aligned(x)))
 112:Drivers/CMSIS/Include/cmsis_gcc.h **** #endif
 113:Drivers/CMSIS/Include/cmsis_gcc.h **** #ifndef   __RESTRICT
 114:Drivers/CMSIS/Include/cmsis_gcc.h ****   #define __RESTRICT                             __restrict
 115:Drivers/CMSIS/Include/cmsis_gcc.h **** #endif
 116:Drivers/CMSIS/Include/cmsis_gcc.h **** 
 117:Drivers/CMSIS/Include/cmsis_gcc.h **** 
 118:Drivers/CMSIS/Include/cmsis_gcc.h **** /* ###########################  Core Function Access  ########################### */
 119:Drivers/CMSIS/Include/cmsis_gcc.h **** /** \ingroup  CMSIS_Core_FunctionInterface
 120:Drivers/CMSIS/Include/cmsis_gcc.h ****     \defgroup CMSIS_Core_RegAccFunctions CMSIS Core Register Access Functions
 121:Drivers/CMSIS/Include/cmsis_gcc.h ****   @{
 122:Drivers/CMSIS/Include/cmsis_gcc.h ****  */
 123:Drivers/CMSIS/Include/cmsis_gcc.h **** 
 124:Drivers/CMSIS/Include/cmsis_gcc.h **** /**
 125:Drivers/CMSIS/Include/cmsis_gcc.h ****   \brief   Enable IRQ Interrupts
 126:Drivers/CMSIS/Include/cmsis_gcc.h ****   \details Enables IRQ interrupts by clearing the I-bit in the CPSR.
 127:Drivers/CMSIS/Include/cmsis_gcc.h ****            Can only be executed in Privileged modes.
ARM GAS  /tmp/cce47g5y.s 			page 19


 128:Drivers/CMSIS/Include/cmsis_gcc.h ****  */
 129:Drivers/CMSIS/Include/cmsis_gcc.h **** __STATIC_FORCEINLINE void __enable_irq(void)
 130:Drivers/CMSIS/Include/cmsis_gcc.h **** {
 131:Drivers/CMSIS/Include/cmsis_gcc.h ****   __ASM volatile ("cpsie i" : : : "memory");
 132:Drivers/CMSIS/Include/cmsis_gcc.h **** }
 133:Drivers/CMSIS/Include/cmsis_gcc.h **** 
 134:Drivers/CMSIS/Include/cmsis_gcc.h **** 
 135:Drivers/CMSIS/Include/cmsis_gcc.h **** /**
 136:Drivers/CMSIS/Include/cmsis_gcc.h ****   \brief   Disable IRQ Interrupts
 137:Drivers/CMSIS/Include/cmsis_gcc.h ****   \details Disables IRQ interrupts by setting the I-bit in the CPSR.
 138:Drivers/CMSIS/Include/cmsis_gcc.h ****            Can only be executed in Privileged modes.
 139:Drivers/CMSIS/Include/cmsis_gcc.h ****  */
 140:Drivers/CMSIS/Include/cmsis_gcc.h **** __STATIC_FORCEINLINE void __disable_irq(void)
 141:Drivers/CMSIS/Include/cmsis_gcc.h **** {
 142:Drivers/CMSIS/Include/cmsis_gcc.h ****   __ASM volatile ("cpsid i" : : : "memory");
 143:Drivers/CMSIS/Include/cmsis_gcc.h **** }
 144:Drivers/CMSIS/Include/cmsis_gcc.h **** 
 145:Drivers/CMSIS/Include/cmsis_gcc.h **** 
 146:Drivers/CMSIS/Include/cmsis_gcc.h **** /**
 147:Drivers/CMSIS/Include/cmsis_gcc.h ****   \brief   Get Control Register
 148:Drivers/CMSIS/Include/cmsis_gcc.h ****   \details Returns the content of the Control Register.
 149:Drivers/CMSIS/Include/cmsis_gcc.h ****   \return               Control Register value
 150:Drivers/CMSIS/Include/cmsis_gcc.h ****  */
 151:Drivers/CMSIS/Include/cmsis_gcc.h **** __STATIC_FORCEINLINE uint32_t __get_CONTROL(void)
 152:Drivers/CMSIS/Include/cmsis_gcc.h **** {
 153:Drivers/CMSIS/Include/cmsis_gcc.h ****   uint32_t result;
 154:Drivers/CMSIS/Include/cmsis_gcc.h **** 
 155:Drivers/CMSIS/Include/cmsis_gcc.h ****   __ASM volatile ("MRS %0, control" : "=r" (result) );
 156:Drivers/CMSIS/Include/cmsis_gcc.h ****   return(result);
 157:Drivers/CMSIS/Include/cmsis_gcc.h **** }
 158:Drivers/CMSIS/Include/cmsis_gcc.h **** 
 159:Drivers/CMSIS/Include/cmsis_gcc.h **** 
 160:Drivers/CMSIS/Include/cmsis_gcc.h **** #if (defined (__ARM_FEATURE_CMSE ) && (__ARM_FEATURE_CMSE == 3))
 161:Drivers/CMSIS/Include/cmsis_gcc.h **** /**
 162:Drivers/CMSIS/Include/cmsis_gcc.h ****   \brief   Get Control Register (non-secure)
 163:Drivers/CMSIS/Include/cmsis_gcc.h ****   \details Returns the content of the non-secure Control Register when in secure mode.
 164:Drivers/CMSIS/Include/cmsis_gcc.h ****   \return               non-secure Control Register value
 165:Drivers/CMSIS/Include/cmsis_gcc.h ****  */
 166:Drivers/CMSIS/Include/cmsis_gcc.h **** __STATIC_FORCEINLINE uint32_t __TZ_get_CONTROL_NS(void)
 167:Drivers/CMSIS/Include/cmsis_gcc.h **** {
 168:Drivers/CMSIS/Include/cmsis_gcc.h ****   uint32_t result;
 169:Drivers/CMSIS/Include/cmsis_gcc.h **** 
 170:Drivers/CMSIS/Include/cmsis_gcc.h ****   __ASM volatile ("MRS %0, control_ns" : "=r" (result) );
 171:Drivers/CMSIS/Include/cmsis_gcc.h ****   return(result);
 172:Drivers/CMSIS/Include/cmsis_gcc.h **** }
 173:Drivers/CMSIS/Include/cmsis_gcc.h **** #endif
 174:Drivers/CMSIS/Include/cmsis_gcc.h **** 
 175:Drivers/CMSIS/Include/cmsis_gcc.h **** 
 176:Drivers/CMSIS/Include/cmsis_gcc.h **** /**
 177:Drivers/CMSIS/Include/cmsis_gcc.h ****   \brief   Set Control Register
 178:Drivers/CMSIS/Include/cmsis_gcc.h ****   \details Writes the given value to the Control Register.
 179:Drivers/CMSIS/Include/cmsis_gcc.h ****   \param [in]    control  Control Register value to set
 180:Drivers/CMSIS/Include/cmsis_gcc.h ****  */
 181:Drivers/CMSIS/Include/cmsis_gcc.h **** __STATIC_FORCEINLINE void __set_CONTROL(uint32_t control)
 182:Drivers/CMSIS/Include/cmsis_gcc.h **** {
 183:Drivers/CMSIS/Include/cmsis_gcc.h ****   __ASM volatile ("MSR control, %0" : : "r" (control) : "memory");
 184:Drivers/CMSIS/Include/cmsis_gcc.h **** }
ARM GAS  /tmp/cce47g5y.s 			page 20


 185:Drivers/CMSIS/Include/cmsis_gcc.h **** 
 186:Drivers/CMSIS/Include/cmsis_gcc.h **** 
 187:Drivers/CMSIS/Include/cmsis_gcc.h **** #if (defined (__ARM_FEATURE_CMSE ) && (__ARM_FEATURE_CMSE == 3))
 188:Drivers/CMSIS/Include/cmsis_gcc.h **** /**
 189:Drivers/CMSIS/Include/cmsis_gcc.h ****   \brief   Set Control Register (non-secure)
 190:Drivers/CMSIS/Include/cmsis_gcc.h ****   \details Writes the given value to the non-secure Control Register when in secure state.
 191:Drivers/CMSIS/Include/cmsis_gcc.h ****   \param [in]    control  Control Register value to set
 192:Drivers/CMSIS/Include/cmsis_gcc.h ****  */
 193:Drivers/CMSIS/Include/cmsis_gcc.h **** __STATIC_FORCEINLINE void __TZ_set_CONTROL_NS(uint32_t control)
 194:Drivers/CMSIS/Include/cmsis_gcc.h **** {
 195:Drivers/CMSIS/Include/cmsis_gcc.h ****   __ASM volatile ("MSR control_ns, %0" : : "r" (control) : "memory");
 196:Drivers/CMSIS/Include/cmsis_gcc.h **** }
 197:Drivers/CMSIS/Include/cmsis_gcc.h **** #endif
 198:Drivers/CMSIS/Include/cmsis_gcc.h **** 
 199:Drivers/CMSIS/Include/cmsis_gcc.h **** 
 200:Drivers/CMSIS/Include/cmsis_gcc.h **** /**
 201:Drivers/CMSIS/Include/cmsis_gcc.h ****   \brief   Get IPSR Register
 202:Drivers/CMSIS/Include/cmsis_gcc.h ****   \details Returns the content of the IPSR Register.
 203:Drivers/CMSIS/Include/cmsis_gcc.h ****   \return               IPSR Register value
 204:Drivers/CMSIS/Include/cmsis_gcc.h ****  */
 205:Drivers/CMSIS/Include/cmsis_gcc.h **** __STATIC_FORCEINLINE uint32_t __get_IPSR(void)
 206:Drivers/CMSIS/Include/cmsis_gcc.h **** {
 207:Drivers/CMSIS/Include/cmsis_gcc.h ****   uint32_t result;
 208:Drivers/CMSIS/Include/cmsis_gcc.h **** 
 209:Drivers/CMSIS/Include/cmsis_gcc.h ****   __ASM volatile ("MRS %0, ipsr" : "=r" (result) );
  69              		.loc 2 209 0
  70              		.syntax unified
  71              	@ 209 "Drivers/CMSIS/Include/cmsis_gcc.h" 1
  72 0000 EFF30583 		MRS r3, ipsr
  73              	@ 0 "" 2
  74              		.thumb
  75              		.syntax unified
  76              	.LBE335:
  77              	.LBE334:
 138:Middlewares/Third_Party/FreeRTOS/Source/CMSIS_RTOS_V2/cmsis_os2.c ****     stat = osErrorISR;
  78              		.loc 1 138 0
  79 0004 9BB9     		cbnz	r3, .L7
  80              	.LBB336:
  81              	.LBB337:
 210:Drivers/CMSIS/Include/cmsis_gcc.h ****   return(result);
 211:Drivers/CMSIS/Include/cmsis_gcc.h **** }
 212:Drivers/CMSIS/Include/cmsis_gcc.h **** 
 213:Drivers/CMSIS/Include/cmsis_gcc.h **** 
 214:Drivers/CMSIS/Include/cmsis_gcc.h **** /**
 215:Drivers/CMSIS/Include/cmsis_gcc.h ****   \brief   Get APSR Register
 216:Drivers/CMSIS/Include/cmsis_gcc.h ****   \details Returns the content of the APSR Register.
 217:Drivers/CMSIS/Include/cmsis_gcc.h ****   \return               APSR Register value
 218:Drivers/CMSIS/Include/cmsis_gcc.h ****  */
 219:Drivers/CMSIS/Include/cmsis_gcc.h **** __STATIC_FORCEINLINE uint32_t __get_APSR(void)
 220:Drivers/CMSIS/Include/cmsis_gcc.h **** {
 221:Drivers/CMSIS/Include/cmsis_gcc.h ****   uint32_t result;
 222:Drivers/CMSIS/Include/cmsis_gcc.h **** 
 223:Drivers/CMSIS/Include/cmsis_gcc.h ****   __ASM volatile ("MRS %0, apsr" : "=r" (result) );
 224:Drivers/CMSIS/Include/cmsis_gcc.h ****   return(result);
 225:Drivers/CMSIS/Include/cmsis_gcc.h **** }
 226:Drivers/CMSIS/Include/cmsis_gcc.h **** 
 227:Drivers/CMSIS/Include/cmsis_gcc.h **** 
ARM GAS  /tmp/cce47g5y.s 			page 21


 228:Drivers/CMSIS/Include/cmsis_gcc.h **** /**
 229:Drivers/CMSIS/Include/cmsis_gcc.h ****   \brief   Get xPSR Register
 230:Drivers/CMSIS/Include/cmsis_gcc.h ****   \details Returns the content of the xPSR Register.
 231:Drivers/CMSIS/Include/cmsis_gcc.h ****   \return               xPSR Register value
 232:Drivers/CMSIS/Include/cmsis_gcc.h ****  */
 233:Drivers/CMSIS/Include/cmsis_gcc.h **** __STATIC_FORCEINLINE uint32_t __get_xPSR(void)
 234:Drivers/CMSIS/Include/cmsis_gcc.h **** {
 235:Drivers/CMSIS/Include/cmsis_gcc.h ****   uint32_t result;
 236:Drivers/CMSIS/Include/cmsis_gcc.h **** 
 237:Drivers/CMSIS/Include/cmsis_gcc.h ****   __ASM volatile ("MRS %0, xpsr" : "=r" (result) );
 238:Drivers/CMSIS/Include/cmsis_gcc.h ****   return(result);
 239:Drivers/CMSIS/Include/cmsis_gcc.h **** }
 240:Drivers/CMSIS/Include/cmsis_gcc.h **** 
 241:Drivers/CMSIS/Include/cmsis_gcc.h **** 
 242:Drivers/CMSIS/Include/cmsis_gcc.h **** /**
 243:Drivers/CMSIS/Include/cmsis_gcc.h ****   \brief   Get Process Stack Pointer
 244:Drivers/CMSIS/Include/cmsis_gcc.h ****   \details Returns the current value of the Process Stack Pointer (PSP).
 245:Drivers/CMSIS/Include/cmsis_gcc.h ****   \return               PSP Register value
 246:Drivers/CMSIS/Include/cmsis_gcc.h ****  */
 247:Drivers/CMSIS/Include/cmsis_gcc.h **** __STATIC_FORCEINLINE uint32_t __get_PSP(void)
 248:Drivers/CMSIS/Include/cmsis_gcc.h **** {
 249:Drivers/CMSIS/Include/cmsis_gcc.h ****   uint32_t result;
 250:Drivers/CMSIS/Include/cmsis_gcc.h **** 
 251:Drivers/CMSIS/Include/cmsis_gcc.h ****   __ASM volatile ("MRS %0, psp"  : "=r" (result) );
 252:Drivers/CMSIS/Include/cmsis_gcc.h ****   return(result);
 253:Drivers/CMSIS/Include/cmsis_gcc.h **** }
 254:Drivers/CMSIS/Include/cmsis_gcc.h **** 
 255:Drivers/CMSIS/Include/cmsis_gcc.h **** 
 256:Drivers/CMSIS/Include/cmsis_gcc.h **** #if (defined (__ARM_FEATURE_CMSE ) && (__ARM_FEATURE_CMSE == 3))
 257:Drivers/CMSIS/Include/cmsis_gcc.h **** /**
 258:Drivers/CMSIS/Include/cmsis_gcc.h ****   \brief   Get Process Stack Pointer (non-secure)
 259:Drivers/CMSIS/Include/cmsis_gcc.h ****   \details Returns the current value of the non-secure Process Stack Pointer (PSP) when in secure s
 260:Drivers/CMSIS/Include/cmsis_gcc.h ****   \return               PSP Register value
 261:Drivers/CMSIS/Include/cmsis_gcc.h ****  */
 262:Drivers/CMSIS/Include/cmsis_gcc.h **** __STATIC_FORCEINLINE uint32_t __TZ_get_PSP_NS(void)
 263:Drivers/CMSIS/Include/cmsis_gcc.h **** {
 264:Drivers/CMSIS/Include/cmsis_gcc.h ****   uint32_t result;
 265:Drivers/CMSIS/Include/cmsis_gcc.h **** 
 266:Drivers/CMSIS/Include/cmsis_gcc.h ****   __ASM volatile ("MRS %0, psp_ns"  : "=r" (result) );
 267:Drivers/CMSIS/Include/cmsis_gcc.h ****   return(result);
 268:Drivers/CMSIS/Include/cmsis_gcc.h **** }
 269:Drivers/CMSIS/Include/cmsis_gcc.h **** #endif
 270:Drivers/CMSIS/Include/cmsis_gcc.h **** 
 271:Drivers/CMSIS/Include/cmsis_gcc.h **** 
 272:Drivers/CMSIS/Include/cmsis_gcc.h **** /**
 273:Drivers/CMSIS/Include/cmsis_gcc.h ****   \brief   Set Process Stack Pointer
 274:Drivers/CMSIS/Include/cmsis_gcc.h ****   \details Assigns the given value to the Process Stack Pointer (PSP).
 275:Drivers/CMSIS/Include/cmsis_gcc.h ****   \param [in]    topOfProcStack  Process Stack Pointer value to set
 276:Drivers/CMSIS/Include/cmsis_gcc.h ****  */
 277:Drivers/CMSIS/Include/cmsis_gcc.h **** __STATIC_FORCEINLINE void __set_PSP(uint32_t topOfProcStack)
 278:Drivers/CMSIS/Include/cmsis_gcc.h **** {
 279:Drivers/CMSIS/Include/cmsis_gcc.h ****   __ASM volatile ("MSR psp, %0" : : "r" (topOfProcStack) : );
 280:Drivers/CMSIS/Include/cmsis_gcc.h **** }
 281:Drivers/CMSIS/Include/cmsis_gcc.h **** 
 282:Drivers/CMSIS/Include/cmsis_gcc.h **** 
 283:Drivers/CMSIS/Include/cmsis_gcc.h **** #if (defined (__ARM_FEATURE_CMSE ) && (__ARM_FEATURE_CMSE == 3))
 284:Drivers/CMSIS/Include/cmsis_gcc.h **** /**
ARM GAS  /tmp/cce47g5y.s 			page 22


 285:Drivers/CMSIS/Include/cmsis_gcc.h ****   \brief   Set Process Stack Pointer (non-secure)
 286:Drivers/CMSIS/Include/cmsis_gcc.h ****   \details Assigns the given value to the non-secure Process Stack Pointer (PSP) when in secure sta
 287:Drivers/CMSIS/Include/cmsis_gcc.h ****   \param [in]    topOfProcStack  Process Stack Pointer value to set
 288:Drivers/CMSIS/Include/cmsis_gcc.h ****  */
 289:Drivers/CMSIS/Include/cmsis_gcc.h **** __STATIC_FORCEINLINE void __TZ_set_PSP_NS(uint32_t topOfProcStack)
 290:Drivers/CMSIS/Include/cmsis_gcc.h **** {
 291:Drivers/CMSIS/Include/cmsis_gcc.h ****   __ASM volatile ("MSR psp_ns, %0" : : "r" (topOfProcStack) : );
 292:Drivers/CMSIS/Include/cmsis_gcc.h **** }
 293:Drivers/CMSIS/Include/cmsis_gcc.h **** #endif
 294:Drivers/CMSIS/Include/cmsis_gcc.h **** 
 295:Drivers/CMSIS/Include/cmsis_gcc.h **** 
 296:Drivers/CMSIS/Include/cmsis_gcc.h **** /**
 297:Drivers/CMSIS/Include/cmsis_gcc.h ****   \brief   Get Main Stack Pointer
 298:Drivers/CMSIS/Include/cmsis_gcc.h ****   \details Returns the current value of the Main Stack Pointer (MSP).
 299:Drivers/CMSIS/Include/cmsis_gcc.h ****   \return               MSP Register value
 300:Drivers/CMSIS/Include/cmsis_gcc.h ****  */
 301:Drivers/CMSIS/Include/cmsis_gcc.h **** __STATIC_FORCEINLINE uint32_t __get_MSP(void)
 302:Drivers/CMSIS/Include/cmsis_gcc.h **** {
 303:Drivers/CMSIS/Include/cmsis_gcc.h ****   uint32_t result;
 304:Drivers/CMSIS/Include/cmsis_gcc.h **** 
 305:Drivers/CMSIS/Include/cmsis_gcc.h ****   __ASM volatile ("MRS %0, msp" : "=r" (result) );
 306:Drivers/CMSIS/Include/cmsis_gcc.h ****   return(result);
 307:Drivers/CMSIS/Include/cmsis_gcc.h **** }
 308:Drivers/CMSIS/Include/cmsis_gcc.h **** 
 309:Drivers/CMSIS/Include/cmsis_gcc.h **** 
 310:Drivers/CMSIS/Include/cmsis_gcc.h **** #if (defined (__ARM_FEATURE_CMSE ) && (__ARM_FEATURE_CMSE == 3))
 311:Drivers/CMSIS/Include/cmsis_gcc.h **** /**
 312:Drivers/CMSIS/Include/cmsis_gcc.h ****   \brief   Get Main Stack Pointer (non-secure)
 313:Drivers/CMSIS/Include/cmsis_gcc.h ****   \details Returns the current value of the non-secure Main Stack Pointer (MSP) when in secure stat
 314:Drivers/CMSIS/Include/cmsis_gcc.h ****   \return               MSP Register value
 315:Drivers/CMSIS/Include/cmsis_gcc.h ****  */
 316:Drivers/CMSIS/Include/cmsis_gcc.h **** __STATIC_FORCEINLINE uint32_t __TZ_get_MSP_NS(void)
 317:Drivers/CMSIS/Include/cmsis_gcc.h **** {
 318:Drivers/CMSIS/Include/cmsis_gcc.h ****   uint32_t result;
 319:Drivers/CMSIS/Include/cmsis_gcc.h **** 
 320:Drivers/CMSIS/Include/cmsis_gcc.h ****   __ASM volatile ("MRS %0, msp_ns" : "=r" (result) );
 321:Drivers/CMSIS/Include/cmsis_gcc.h ****   return(result);
 322:Drivers/CMSIS/Include/cmsis_gcc.h **** }
 323:Drivers/CMSIS/Include/cmsis_gcc.h **** #endif
 324:Drivers/CMSIS/Include/cmsis_gcc.h **** 
 325:Drivers/CMSIS/Include/cmsis_gcc.h **** 
 326:Drivers/CMSIS/Include/cmsis_gcc.h **** /**
 327:Drivers/CMSIS/Include/cmsis_gcc.h ****   \brief   Set Main Stack Pointer
 328:Drivers/CMSIS/Include/cmsis_gcc.h ****   \details Assigns the given value to the Main Stack Pointer (MSP).
 329:Drivers/CMSIS/Include/cmsis_gcc.h ****   \param [in]    topOfMainStack  Main Stack Pointer value to set
 330:Drivers/CMSIS/Include/cmsis_gcc.h ****  */
 331:Drivers/CMSIS/Include/cmsis_gcc.h **** __STATIC_FORCEINLINE void __set_MSP(uint32_t topOfMainStack)
 332:Drivers/CMSIS/Include/cmsis_gcc.h **** {
 333:Drivers/CMSIS/Include/cmsis_gcc.h ****   __ASM volatile ("MSR msp, %0" : : "r" (topOfMainStack) : );
 334:Drivers/CMSIS/Include/cmsis_gcc.h **** }
 335:Drivers/CMSIS/Include/cmsis_gcc.h **** 
 336:Drivers/CMSIS/Include/cmsis_gcc.h **** 
 337:Drivers/CMSIS/Include/cmsis_gcc.h **** #if (defined (__ARM_FEATURE_CMSE ) && (__ARM_FEATURE_CMSE == 3))
 338:Drivers/CMSIS/Include/cmsis_gcc.h **** /**
 339:Drivers/CMSIS/Include/cmsis_gcc.h ****   \brief   Set Main Stack Pointer (non-secure)
 340:Drivers/CMSIS/Include/cmsis_gcc.h ****   \details Assigns the given value to the non-secure Main Stack Pointer (MSP) when in secure state.
 341:Drivers/CMSIS/Include/cmsis_gcc.h ****   \param [in]    topOfMainStack  Main Stack Pointer value to set
ARM GAS  /tmp/cce47g5y.s 			page 23


 342:Drivers/CMSIS/Include/cmsis_gcc.h ****  */
 343:Drivers/CMSIS/Include/cmsis_gcc.h **** __STATIC_FORCEINLINE void __TZ_set_MSP_NS(uint32_t topOfMainStack)
 344:Drivers/CMSIS/Include/cmsis_gcc.h **** {
 345:Drivers/CMSIS/Include/cmsis_gcc.h ****   __ASM volatile ("MSR msp_ns, %0" : : "r" (topOfMainStack) : );
 346:Drivers/CMSIS/Include/cmsis_gcc.h **** }
 347:Drivers/CMSIS/Include/cmsis_gcc.h **** #endif
 348:Drivers/CMSIS/Include/cmsis_gcc.h **** 
 349:Drivers/CMSIS/Include/cmsis_gcc.h **** 
 350:Drivers/CMSIS/Include/cmsis_gcc.h **** #if (defined (__ARM_FEATURE_CMSE ) && (__ARM_FEATURE_CMSE == 3))
 351:Drivers/CMSIS/Include/cmsis_gcc.h **** /**
 352:Drivers/CMSIS/Include/cmsis_gcc.h ****   \brief   Get Stack Pointer (non-secure)
 353:Drivers/CMSIS/Include/cmsis_gcc.h ****   \details Returns the current value of the non-secure Stack Pointer (SP) when in secure state.
 354:Drivers/CMSIS/Include/cmsis_gcc.h ****   \return               SP Register value
 355:Drivers/CMSIS/Include/cmsis_gcc.h ****  */
 356:Drivers/CMSIS/Include/cmsis_gcc.h **** __STATIC_FORCEINLINE uint32_t __TZ_get_SP_NS(void)
 357:Drivers/CMSIS/Include/cmsis_gcc.h **** {
 358:Drivers/CMSIS/Include/cmsis_gcc.h ****   uint32_t result;
 359:Drivers/CMSIS/Include/cmsis_gcc.h **** 
 360:Drivers/CMSIS/Include/cmsis_gcc.h ****   __ASM volatile ("MRS %0, sp_ns" : "=r" (result) );
 361:Drivers/CMSIS/Include/cmsis_gcc.h ****   return(result);
 362:Drivers/CMSIS/Include/cmsis_gcc.h **** }
 363:Drivers/CMSIS/Include/cmsis_gcc.h **** 
 364:Drivers/CMSIS/Include/cmsis_gcc.h **** 
 365:Drivers/CMSIS/Include/cmsis_gcc.h **** /**
 366:Drivers/CMSIS/Include/cmsis_gcc.h ****   \brief   Set Stack Pointer (non-secure)
 367:Drivers/CMSIS/Include/cmsis_gcc.h ****   \details Assigns the given value to the non-secure Stack Pointer (SP) when in secure state.
 368:Drivers/CMSIS/Include/cmsis_gcc.h ****   \param [in]    topOfStack  Stack Pointer value to set
 369:Drivers/CMSIS/Include/cmsis_gcc.h ****  */
 370:Drivers/CMSIS/Include/cmsis_gcc.h **** __STATIC_FORCEINLINE void __TZ_set_SP_NS(uint32_t topOfStack)
 371:Drivers/CMSIS/Include/cmsis_gcc.h **** {
 372:Drivers/CMSIS/Include/cmsis_gcc.h ****   __ASM volatile ("MSR sp_ns, %0" : : "r" (topOfStack) : );
 373:Drivers/CMSIS/Include/cmsis_gcc.h **** }
 374:Drivers/CMSIS/Include/cmsis_gcc.h **** #endif
 375:Drivers/CMSIS/Include/cmsis_gcc.h **** 
 376:Drivers/CMSIS/Include/cmsis_gcc.h **** 
 377:Drivers/CMSIS/Include/cmsis_gcc.h **** /**
 378:Drivers/CMSIS/Include/cmsis_gcc.h ****   \brief   Get Priority Mask
 379:Drivers/CMSIS/Include/cmsis_gcc.h ****   \details Returns the current state of the priority mask bit from the Priority Mask Register.
 380:Drivers/CMSIS/Include/cmsis_gcc.h ****   \return               Priority Mask value
 381:Drivers/CMSIS/Include/cmsis_gcc.h ****  */
 382:Drivers/CMSIS/Include/cmsis_gcc.h **** __STATIC_FORCEINLINE uint32_t __get_PRIMASK(void)
 383:Drivers/CMSIS/Include/cmsis_gcc.h **** {
 384:Drivers/CMSIS/Include/cmsis_gcc.h ****   uint32_t result;
 385:Drivers/CMSIS/Include/cmsis_gcc.h **** 
 386:Drivers/CMSIS/Include/cmsis_gcc.h ****   __ASM volatile ("MRS %0, primask" : "=r" (result) :: "memory");
  82              		.loc 2 386 0
  83              		.syntax unified
  84              	@ 386 "Drivers/CMSIS/Include/cmsis_gcc.h" 1
  85 0006 EFF31083 		MRS r3, primask
  86              	@ 0 "" 2
  87              		.thumb
  88              		.syntax unified
  89              	.LBE337:
  90              	.LBE336:
 138:Middlewares/Third_Party/FreeRTOS/Source/CMSIS_RTOS_V2/cmsis_os2.c ****     stat = osErrorISR;
  91              		.loc 1 138 0
  92 000a 9BB9     		cbnz	r3, .L8
ARM GAS  /tmp/cce47g5y.s 			page 24


 138:Middlewares/Third_Party/FreeRTOS/Source/CMSIS_RTOS_V2/cmsis_os2.c ****     stat = osErrorISR;
  93              		.loc 1 138 0 is_stmt 0 discriminator 2
  94 000c 0C4B     		ldr	r3, .L12
  95 000e 1B68     		ldr	r3, [r3]
  96 0010 022B     		cmp	r3, #2
  97 0012 05D0     		beq	.L11
  98              	.L6:
 142:Middlewares/Third_Party/FreeRTOS/Source/CMSIS_RTOS_V2/cmsis_os2.c ****       #if defined(USE_FreeRTOS_HEAP_5)
  99              		.loc 1 142 0 is_stmt 1
 100 0014 8BB9     		cbnz	r3, .L10
 146:Middlewares/Third_Party/FreeRTOS/Source/CMSIS_RTOS_V2/cmsis_os2.c ****       stat = osOK;
 101              		.loc 1 146 0
 102 0016 0122     		movs	r2, #1
 103 0018 094B     		ldr	r3, .L12
 104 001a 1A60     		str	r2, [r3]
 105              	.LVL4:
 147:Middlewares/Third_Party/FreeRTOS/Source/CMSIS_RTOS_V2/cmsis_os2.c ****     } else {
 106              		.loc 1 147 0
 107 001c 0020     		movs	r0, #0
 108 001e 7047     		bx	lr
 109              	.LVL5:
 110              	.L11:
 111              	.LBB338:
 112              	.LBB339:
 387:Drivers/CMSIS/Include/cmsis_gcc.h ****   return(result);
 388:Drivers/CMSIS/Include/cmsis_gcc.h **** }
 389:Drivers/CMSIS/Include/cmsis_gcc.h **** 
 390:Drivers/CMSIS/Include/cmsis_gcc.h **** 
 391:Drivers/CMSIS/Include/cmsis_gcc.h **** #if (defined (__ARM_FEATURE_CMSE ) && (__ARM_FEATURE_CMSE == 3))
 392:Drivers/CMSIS/Include/cmsis_gcc.h **** /**
 393:Drivers/CMSIS/Include/cmsis_gcc.h ****   \brief   Get Priority Mask (non-secure)
 394:Drivers/CMSIS/Include/cmsis_gcc.h ****   \details Returns the current state of the non-secure priority mask bit from the Priority Mask Reg
 395:Drivers/CMSIS/Include/cmsis_gcc.h ****   \return               Priority Mask value
 396:Drivers/CMSIS/Include/cmsis_gcc.h ****  */
 397:Drivers/CMSIS/Include/cmsis_gcc.h **** __STATIC_FORCEINLINE uint32_t __TZ_get_PRIMASK_NS(void)
 398:Drivers/CMSIS/Include/cmsis_gcc.h **** {
 399:Drivers/CMSIS/Include/cmsis_gcc.h ****   uint32_t result;
 400:Drivers/CMSIS/Include/cmsis_gcc.h **** 
 401:Drivers/CMSIS/Include/cmsis_gcc.h ****   __ASM volatile ("MRS %0, primask_ns" : "=r" (result) :: "memory");
 402:Drivers/CMSIS/Include/cmsis_gcc.h ****   return(result);
 403:Drivers/CMSIS/Include/cmsis_gcc.h **** }
 404:Drivers/CMSIS/Include/cmsis_gcc.h **** #endif
 405:Drivers/CMSIS/Include/cmsis_gcc.h **** 
 406:Drivers/CMSIS/Include/cmsis_gcc.h **** 
 407:Drivers/CMSIS/Include/cmsis_gcc.h **** /**
 408:Drivers/CMSIS/Include/cmsis_gcc.h ****   \brief   Set Priority Mask
 409:Drivers/CMSIS/Include/cmsis_gcc.h ****   \details Assigns the given value to the Priority Mask Register.
 410:Drivers/CMSIS/Include/cmsis_gcc.h ****   \param [in]    priMask  Priority Mask
 411:Drivers/CMSIS/Include/cmsis_gcc.h ****  */
 412:Drivers/CMSIS/Include/cmsis_gcc.h **** __STATIC_FORCEINLINE void __set_PRIMASK(uint32_t priMask)
 413:Drivers/CMSIS/Include/cmsis_gcc.h **** {
 414:Drivers/CMSIS/Include/cmsis_gcc.h ****   __ASM volatile ("MSR primask, %0" : : "r" (priMask) : "memory");
 415:Drivers/CMSIS/Include/cmsis_gcc.h **** }
 416:Drivers/CMSIS/Include/cmsis_gcc.h **** 
 417:Drivers/CMSIS/Include/cmsis_gcc.h **** 
 418:Drivers/CMSIS/Include/cmsis_gcc.h **** #if (defined (__ARM_FEATURE_CMSE ) && (__ARM_FEATURE_CMSE == 3))
 419:Drivers/CMSIS/Include/cmsis_gcc.h **** /**
ARM GAS  /tmp/cce47g5y.s 			page 25


 420:Drivers/CMSIS/Include/cmsis_gcc.h ****   \brief   Set Priority Mask (non-secure)
 421:Drivers/CMSIS/Include/cmsis_gcc.h ****   \details Assigns the given value to the non-secure Priority Mask Register when in secure state.
 422:Drivers/CMSIS/Include/cmsis_gcc.h ****   \param [in]    priMask  Priority Mask
 423:Drivers/CMSIS/Include/cmsis_gcc.h ****  */
 424:Drivers/CMSIS/Include/cmsis_gcc.h **** __STATIC_FORCEINLINE void __TZ_set_PRIMASK_NS(uint32_t priMask)
 425:Drivers/CMSIS/Include/cmsis_gcc.h **** {
 426:Drivers/CMSIS/Include/cmsis_gcc.h ****   __ASM volatile ("MSR primask_ns, %0" : : "r" (priMask) : "memory");
 427:Drivers/CMSIS/Include/cmsis_gcc.h **** }
 428:Drivers/CMSIS/Include/cmsis_gcc.h **** #endif
 429:Drivers/CMSIS/Include/cmsis_gcc.h **** 
 430:Drivers/CMSIS/Include/cmsis_gcc.h **** 
 431:Drivers/CMSIS/Include/cmsis_gcc.h **** #if ((defined (__ARM_ARCH_7M__      ) && (__ARM_ARCH_7M__      == 1)) || \
 432:Drivers/CMSIS/Include/cmsis_gcc.h ****      (defined (__ARM_ARCH_7EM__     ) && (__ARM_ARCH_7EM__     == 1)) || \
 433:Drivers/CMSIS/Include/cmsis_gcc.h ****      (defined (__ARM_ARCH_8M_MAIN__ ) && (__ARM_ARCH_8M_MAIN__ == 1))    )
 434:Drivers/CMSIS/Include/cmsis_gcc.h **** /**
 435:Drivers/CMSIS/Include/cmsis_gcc.h ****   \brief   Enable FIQ
 436:Drivers/CMSIS/Include/cmsis_gcc.h ****   \details Enables FIQ interrupts by clearing the F-bit in the CPSR.
 437:Drivers/CMSIS/Include/cmsis_gcc.h ****            Can only be executed in Privileged modes.
 438:Drivers/CMSIS/Include/cmsis_gcc.h ****  */
 439:Drivers/CMSIS/Include/cmsis_gcc.h **** __STATIC_FORCEINLINE void __enable_fault_irq(void)
 440:Drivers/CMSIS/Include/cmsis_gcc.h **** {
 441:Drivers/CMSIS/Include/cmsis_gcc.h ****   __ASM volatile ("cpsie f" : : : "memory");
 442:Drivers/CMSIS/Include/cmsis_gcc.h **** }
 443:Drivers/CMSIS/Include/cmsis_gcc.h **** 
 444:Drivers/CMSIS/Include/cmsis_gcc.h **** 
 445:Drivers/CMSIS/Include/cmsis_gcc.h **** /**
 446:Drivers/CMSIS/Include/cmsis_gcc.h ****   \brief   Disable FIQ
 447:Drivers/CMSIS/Include/cmsis_gcc.h ****   \details Disables FIQ interrupts by setting the F-bit in the CPSR.
 448:Drivers/CMSIS/Include/cmsis_gcc.h ****            Can only be executed in Privileged modes.
 449:Drivers/CMSIS/Include/cmsis_gcc.h ****  */
 450:Drivers/CMSIS/Include/cmsis_gcc.h **** __STATIC_FORCEINLINE void __disable_fault_irq(void)
 451:Drivers/CMSIS/Include/cmsis_gcc.h **** {
 452:Drivers/CMSIS/Include/cmsis_gcc.h ****   __ASM volatile ("cpsid f" : : : "memory");
 453:Drivers/CMSIS/Include/cmsis_gcc.h **** }
 454:Drivers/CMSIS/Include/cmsis_gcc.h **** 
 455:Drivers/CMSIS/Include/cmsis_gcc.h **** 
 456:Drivers/CMSIS/Include/cmsis_gcc.h **** /**
 457:Drivers/CMSIS/Include/cmsis_gcc.h ****   \brief   Get Base Priority
 458:Drivers/CMSIS/Include/cmsis_gcc.h ****   \details Returns the current value of the Base Priority register.
 459:Drivers/CMSIS/Include/cmsis_gcc.h ****   \return               Base Priority register value
 460:Drivers/CMSIS/Include/cmsis_gcc.h ****  */
 461:Drivers/CMSIS/Include/cmsis_gcc.h **** __STATIC_FORCEINLINE uint32_t __get_BASEPRI(void)
 462:Drivers/CMSIS/Include/cmsis_gcc.h **** {
 463:Drivers/CMSIS/Include/cmsis_gcc.h ****   uint32_t result;
 464:Drivers/CMSIS/Include/cmsis_gcc.h **** 
 465:Drivers/CMSIS/Include/cmsis_gcc.h ****   __ASM volatile ("MRS %0, basepri" : "=r" (result) );
 113              		.loc 2 465 0
 114              		.syntax unified
 115              	@ 465 "Drivers/CMSIS/Include/cmsis_gcc.h" 1
 116 0020 EFF31182 		MRS r2, basepri
 117              	@ 0 "" 2
 118              		.thumb
 119              		.syntax unified
 120              	.LBE339:
 121              	.LBE338:
 138:Middlewares/Third_Party/FreeRTOS/Source/CMSIS_RTOS_V2/cmsis_os2.c ****     stat = osErrorISR;
 122              		.loc 1 138 0
ARM GAS  /tmp/cce47g5y.s 			page 26


 123 0024 002A     		cmp	r2, #0
 124 0026 F5D0     		beq	.L6
 139:Middlewares/Third_Party/FreeRTOS/Source/CMSIS_RTOS_V2/cmsis_os2.c ****   }
 125              		.loc 1 139 0
 126 0028 6FF00500 		mvn	r0, #5
 127 002c 7047     		bx	lr
 128              	.L7:
 129 002e 6FF00500 		mvn	r0, #5
 130 0032 7047     		bx	lr
 131              	.L8:
 132 0034 6FF00500 		mvn	r0, #5
 133 0038 7047     		bx	lr
 134              	.L10:
 149:Middlewares/Third_Party/FreeRTOS/Source/CMSIS_RTOS_V2/cmsis_os2.c ****     }
 135              		.loc 1 149 0
 136 003a 4FF0FF30 		mov	r0, #-1
 137              	.LVL6:
 154:Middlewares/Third_Party/FreeRTOS/Source/CMSIS_RTOS_V2/cmsis_os2.c **** 
 138              		.loc 1 154 0
 139 003e 7047     		bx	lr
 140              	.L13:
 141              		.align	2
 142              	.L12:
 143 0040 00000000 		.word	.LANCHOR0
 144              		.cfi_endproc
 145              	.LFE48:
 147              		.section	.text.osKernelGetInfo,"ax",%progbits
 148              		.align	1
 149              		.global	osKernelGetInfo
 150              		.syntax unified
 151              		.thumb
 152              		.thumb_func
 153              		.fpu softvfp
 155              	osKernelGetInfo:
 156              	.LFB49:
 156:Middlewares/Third_Party/FreeRTOS/Source/CMSIS_RTOS_V2/cmsis_os2.c **** 
 157              		.loc 1 156 0
 158              		.cfi_startproc
 159              		@ args = 0, pretend = 0, frame = 0
 160              		@ frame_needed = 0, uses_anonymous_args = 0
 161              	.LVL7:
 162 0000 10B5     		push	{r4, lr}
 163              	.LCFI1:
 164              		.cfi_def_cfa_offset 8
 165              		.cfi_offset 4, -8
 166              		.cfi_offset 14, -4
 167 0002 0C46     		mov	r4, r1
 158:Middlewares/Third_Party/FreeRTOS/Source/CMSIS_RTOS_V2/cmsis_os2.c ****     version->api    = KERNEL_VERSION;
 168              		.loc 1 158 0
 169 0004 10B1     		cbz	r0, .L15
 159:Middlewares/Third_Party/FreeRTOS/Source/CMSIS_RTOS_V2/cmsis_os2.c ****     version->kernel = KERNEL_VERSION;
 170              		.loc 1 159 0
 171 0006 0749     		ldr	r1, .L20
 172              	.LVL8:
 173 0008 0160     		str	r1, [r0]
 160:Middlewares/Third_Party/FreeRTOS/Source/CMSIS_RTOS_V2/cmsis_os2.c ****   }
 174              		.loc 1 160 0
ARM GAS  /tmp/cce47g5y.s 			page 27


 175 000a 4160     		str	r1, [r0, #4]
 176              	.L15:
 163:Middlewares/Third_Party/FreeRTOS/Source/CMSIS_RTOS_V2/cmsis_os2.c ****     if (id_size > sizeof(KERNEL_ID)) {
 177              		.loc 1 163 0
 178 000c 3CB1     		cbz	r4, .L16
 163:Middlewares/Third_Party/FreeRTOS/Source/CMSIS_RTOS_V2/cmsis_os2.c ****     if (id_size > sizeof(KERNEL_ID)) {
 179              		.loc 1 163 0 is_stmt 0 discriminator 1
 180 000e 32B1     		cbz	r2, .L16
 164:Middlewares/Third_Party/FreeRTOS/Source/CMSIS_RTOS_V2/cmsis_os2.c ****       id_size = sizeof(KERNEL_ID);
 181              		.loc 1 164 0 is_stmt 1
 182 0010 112A     		cmp	r2, #17
 183 0012 00D9     		bls	.L17
 165:Middlewares/Third_Party/FreeRTOS/Source/CMSIS_RTOS_V2/cmsis_os2.c ****     }
 184              		.loc 1 165 0
 185 0014 1122     		movs	r2, #17
 186              	.LVL9:
 187              	.L17:
 167:Middlewares/Third_Party/FreeRTOS/Source/CMSIS_RTOS_V2/cmsis_os2.c ****   }
 188              		.loc 1 167 0
 189 0016 0449     		ldr	r1, .L20+4
 190 0018 2046     		mov	r0, r4
 191              	.LVL10:
 192 001a FFF7FEFF 		bl	memcpy
 193              	.LVL11:
 194              	.L16:
 171:Middlewares/Third_Party/FreeRTOS/Source/CMSIS_RTOS_V2/cmsis_os2.c **** 
 195              		.loc 1 171 0
 196 001e 0020     		movs	r0, #0
 197 0020 10BD     		pop	{r4, pc}
 198              	.LVL12:
 199              	.L21:
 200 0022 00BF     		.align	2
 201              	.L20:
 202 0024 01E1F505 		.word	100000001
 203 0028 00000000 		.word	.LC0
 204              		.cfi_endproc
 205              	.LFE49:
 207              		.section	.text.osKernelGetState,"ax",%progbits
 208              		.align	1
 209              		.global	osKernelGetState
 210              		.syntax unified
 211              		.thumb
 212              		.thumb_func
 213              		.fpu softvfp
 215              	osKernelGetState:
 216              	.LFB50:
 173:Middlewares/Third_Party/FreeRTOS/Source/CMSIS_RTOS_V2/cmsis_os2.c ****   osKernelState_t state;
 217              		.loc 1 173 0
 218              		.cfi_startproc
 219              		@ args = 0, pretend = 0, frame = 0
 220              		@ frame_needed = 0, uses_anonymous_args = 0
 221 0000 08B5     		push	{r3, lr}
 222              	.LCFI2:
 223              		.cfi_def_cfa_offset 8
 224              		.cfi_offset 3, -8
 225              		.cfi_offset 14, -4
 176:Middlewares/Third_Party/FreeRTOS/Source/CMSIS_RTOS_V2/cmsis_os2.c ****     case taskSCHEDULER_RUNNING:
ARM GAS  /tmp/cce47g5y.s 			page 28


 226              		.loc 1 176 0
 227 0002 FFF7FEFF 		bl	xTaskGetSchedulerState
 228              	.LVL13:
 229 0006 50B1     		cbz	r0, .L26
 230 0008 0228     		cmp	r0, #2
 231 000a 01D1     		bne	.L28
 178:Middlewares/Third_Party/FreeRTOS/Source/CMSIS_RTOS_V2/cmsis_os2.c ****       break;
 232              		.loc 1 178 0
 233 000c 0220     		movs	r0, #2
 234 000e 08BD     		pop	{r3, pc}
 235              	.L28:
 187:Middlewares/Third_Party/FreeRTOS/Source/CMSIS_RTOS_V2/cmsis_os2.c ****         state = osKernelReady;
 236              		.loc 1 187 0
 237 0010 044B     		ldr	r3, .L31
 238 0012 1868     		ldr	r0, [r3]
 239 0014 0128     		cmp	r0, #1
 240 0016 01D0     		beq	.L30
 190:Middlewares/Third_Party/FreeRTOS/Source/CMSIS_RTOS_V2/cmsis_os2.c ****       }
 241              		.loc 1 190 0
 242 0018 0020     		movs	r0, #0
 243              	.LVL14:
 196:Middlewares/Third_Party/FreeRTOS/Source/CMSIS_RTOS_V2/cmsis_os2.c **** 
 244              		.loc 1 196 0
 245 001a 08BD     		pop	{r3, pc}
 246              	.LVL15:
 247              	.L30:
 248 001c 08BD     		pop	{r3, pc}
 249              	.L26:
 182:Middlewares/Third_Party/FreeRTOS/Source/CMSIS_RTOS_V2/cmsis_os2.c ****       break;
 250              		.loc 1 182 0
 251 001e 0320     		movs	r0, #3
 252 0020 08BD     		pop	{r3, pc}
 253              	.L32:
 254 0022 00BF     		.align	2
 255              	.L31:
 256 0024 00000000 		.word	.LANCHOR0
 257              		.cfi_endproc
 258              	.LFE50:
 260              		.section	.text.osKernelStart,"ax",%progbits
 261              		.align	1
 262              		.global	osKernelStart
 263              		.syntax unified
 264              		.thumb
 265              		.thumb_func
 266              		.fpu softvfp
 268              	osKernelStart:
 269              	.LFB51:
 198:Middlewares/Third_Party/FreeRTOS/Source/CMSIS_RTOS_V2/cmsis_os2.c ****   osStatus_t stat;
 270              		.loc 1 198 0
 271              		.cfi_startproc
 272              		@ args = 0, pretend = 0, frame = 0
 273              		@ frame_needed = 0, uses_anonymous_args = 0
 274 0000 08B5     		push	{r3, lr}
 275              	.LCFI3:
 276              		.cfi_def_cfa_offset 8
 277              		.cfi_offset 3, -8
 278              		.cfi_offset 14, -4
ARM GAS  /tmp/cce47g5y.s 			page 29


 279              	.LBB340:
 280              	.LBB341:
 209:Drivers/CMSIS/Include/cmsis_gcc.h ****   return(result);
 281              		.loc 2 209 0
 282              		.syntax unified
 283              	@ 209 "Drivers/CMSIS/Include/cmsis_gcc.h" 1
 284 0002 EFF30583 		MRS r3, ipsr
 285              	@ 0 "" 2
 286              		.thumb
 287              		.syntax unified
 288              	.LBE341:
 289              	.LBE340:
 201:Middlewares/Third_Party/FreeRTOS/Source/CMSIS_RTOS_V2/cmsis_os2.c ****     stat = osErrorISR;
 290              		.loc 1 201 0
 291 0006 B3B9     		cbnz	r3, .L36
 292              	.LBB342:
 293              	.LBB343:
 386:Drivers/CMSIS/Include/cmsis_gcc.h ****   return(result);
 294              		.loc 2 386 0
 295              		.syntax unified
 296              	@ 386 "Drivers/CMSIS/Include/cmsis_gcc.h" 1
 297 0008 EFF31083 		MRS r3, primask
 298              	@ 0 "" 2
 299              		.thumb
 300              		.syntax unified
 301              	.LBE343:
 302              	.LBE342:
 201:Middlewares/Third_Party/FreeRTOS/Source/CMSIS_RTOS_V2/cmsis_os2.c ****     stat = osErrorISR;
 303              		.loc 1 201 0
 304 000c B3B9     		cbnz	r3, .L37
 201:Middlewares/Third_Party/FreeRTOS/Source/CMSIS_RTOS_V2/cmsis_os2.c ****     stat = osErrorISR;
 305              		.loc 1 201 0 is_stmt 0 discriminator 2
 306 000e 0E4B     		ldr	r3, .L42
 307 0010 1B68     		ldr	r3, [r3]
 308 0012 022B     		cmp	r3, #2
 309 0014 08D0     		beq	.L41
 310              	.L35:
 205:Middlewares/Third_Party/FreeRTOS/Source/CMSIS_RTOS_V2/cmsis_os2.c ****       KernelState = osKernelRunning;
 311              		.loc 1 205 0 is_stmt 1
 312 0016 012B     		cmp	r3, #1
 313 0018 13D1     		bne	.L39
 206:Middlewares/Third_Party/FreeRTOS/Source/CMSIS_RTOS_V2/cmsis_os2.c ****       vTaskStartScheduler();
 314              		.loc 1 206 0
 315 001a 0222     		movs	r2, #2
 316 001c 0A4B     		ldr	r3, .L42
 317 001e 1A60     		str	r2, [r3]
 207:Middlewares/Third_Party/FreeRTOS/Source/CMSIS_RTOS_V2/cmsis_os2.c ****       stat = osOK;
 318              		.loc 1 207 0
 319 0020 FFF7FEFF 		bl	vTaskStartScheduler
 320              	.LVL16:
 208:Middlewares/Third_Party/FreeRTOS/Source/CMSIS_RTOS_V2/cmsis_os2.c ****     } else {
 321              		.loc 1 208 0
 322 0024 0020     		movs	r0, #0
 323 0026 08BD     		pop	{r3, pc}
 324              	.LVL17:
 325              	.L41:
 326              	.LBB344:
ARM GAS  /tmp/cce47g5y.s 			page 30


 327              	.LBB345:
 328              		.loc 2 465 0
 329              		.syntax unified
 330              	@ 465 "Drivers/CMSIS/Include/cmsis_gcc.h" 1
 331 0028 EFF31182 		MRS r2, basepri
 332              	@ 0 "" 2
 333              		.thumb
 334              		.syntax unified
 335              	.LBE345:
 336              	.LBE344:
 201:Middlewares/Third_Party/FreeRTOS/Source/CMSIS_RTOS_V2/cmsis_os2.c ****     stat = osErrorISR;
 337              		.loc 1 201 0
 338 002c 002A     		cmp	r2, #0
 339 002e F2D0     		beq	.L35
 202:Middlewares/Third_Party/FreeRTOS/Source/CMSIS_RTOS_V2/cmsis_os2.c ****   }
 340              		.loc 1 202 0
 341 0030 6FF00500 		mvn	r0, #5
 342 0034 08BD     		pop	{r3, pc}
 343              	.L36:
 344 0036 6FF00500 		mvn	r0, #5
 345 003a 08BD     		pop	{r3, pc}
 346              	.L37:
 347 003c 6FF00500 		mvn	r0, #5
 348 0040 08BD     		pop	{r3, pc}
 349              	.L39:
 210:Middlewares/Third_Party/FreeRTOS/Source/CMSIS_RTOS_V2/cmsis_os2.c ****     }
 350              		.loc 1 210 0
 351 0042 4FF0FF30 		mov	r0, #-1
 352              	.LVL18:
 215:Middlewares/Third_Party/FreeRTOS/Source/CMSIS_RTOS_V2/cmsis_os2.c **** 
 353              		.loc 1 215 0
 354 0046 08BD     		pop	{r3, pc}
 355              	.L43:
 356              		.align	2
 357              	.L42:
 358 0048 00000000 		.word	.LANCHOR0
 359              		.cfi_endproc
 360              	.LFE51:
 362              		.section	.text.osKernelLock,"ax",%progbits
 363              		.align	1
 364              		.global	osKernelLock
 365              		.syntax unified
 366              		.thumb
 367              		.thumb_func
 368              		.fpu softvfp
 370              	osKernelLock:
 371              	.LFB52:
 217:Middlewares/Third_Party/FreeRTOS/Source/CMSIS_RTOS_V2/cmsis_os2.c ****   int32_t lock;
 372              		.loc 1 217 0
 373              		.cfi_startproc
 374              		@ args = 0, pretend = 0, frame = 0
 375              		@ frame_needed = 0, uses_anonymous_args = 0
 376 0000 08B5     		push	{r3, lr}
 377              	.LCFI4:
 378              		.cfi_def_cfa_offset 8
 379              		.cfi_offset 3, -8
 380              		.cfi_offset 14, -4
ARM GAS  /tmp/cce47g5y.s 			page 31


 381              	.LBB346:
 382              	.LBB347:
 209:Drivers/CMSIS/Include/cmsis_gcc.h ****   return(result);
 383              		.loc 2 209 0
 384              		.syntax unified
 385              	@ 209 "Drivers/CMSIS/Include/cmsis_gcc.h" 1
 386 0002 EFF30583 		MRS r3, ipsr
 387              	@ 0 "" 2
 388              		.thumb
 389              		.syntax unified
 390              	.LBE347:
 391              	.LBE346:
 220:Middlewares/Third_Party/FreeRTOS/Source/CMSIS_RTOS_V2/cmsis_os2.c ****     lock = (int32_t)osErrorISR;
 392              		.loc 1 220 0
 393 0006 DBB9     		cbnz	r3, .L49
 394              	.LBB348:
 395              	.LBB349:
 386:Drivers/CMSIS/Include/cmsis_gcc.h ****   return(result);
 396              		.loc 2 386 0
 397              		.syntax unified
 398              	@ 386 "Drivers/CMSIS/Include/cmsis_gcc.h" 1
 399 0008 EFF31083 		MRS r3, primask
 400              	@ 0 "" 2
 401              		.thumb
 402              		.syntax unified
 403              	.LBE349:
 404              	.LBE348:
 220:Middlewares/Third_Party/FreeRTOS/Source/CMSIS_RTOS_V2/cmsis_os2.c ****     lock = (int32_t)osErrorISR;
 405              		.loc 1 220 0
 406 000c DBB9     		cbnz	r3, .L50
 220:Middlewares/Third_Party/FreeRTOS/Source/CMSIS_RTOS_V2/cmsis_os2.c ****     lock = (int32_t)osErrorISR;
 407              		.loc 1 220 0 is_stmt 0 discriminator 2
 408 000e 0F4B     		ldr	r3, .L56
 409 0010 1B68     		ldr	r3, [r3]
 410 0012 022B     		cmp	r3, #2
 411 0014 07D0     		beq	.L55
 412              	.L46:
 224:Middlewares/Third_Party/FreeRTOS/Source/CMSIS_RTOS_V2/cmsis_os2.c ****       case taskSCHEDULER_SUSPENDED:
 413              		.loc 1 224 0 is_stmt 1
 414 0016 FFF7FEFF 		bl	xTaskGetSchedulerState
 415              	.LVL19:
 416 001a 58B1     		cbz	r0, .L47
 417 001c 0228     		cmp	r0, #2
 418 001e 0BD0     		beq	.L48
 236:Middlewares/Third_Party/FreeRTOS/Source/CMSIS_RTOS_V2/cmsis_os2.c ****         break;
 419              		.loc 1 236 0
 420 0020 4FF0FF30 		mov	r0, #-1
 421              	.LVL20:
 242:Middlewares/Third_Party/FreeRTOS/Source/CMSIS_RTOS_V2/cmsis_os2.c **** 
 422              		.loc 1 242 0
 423 0024 08BD     		pop	{r3, pc}
 424              	.LVL21:
 425              	.L55:
 426              	.LBB350:
 427              	.LBB351:
 428              		.loc 2 465 0
 429              		.syntax unified
ARM GAS  /tmp/cce47g5y.s 			page 32


 430              	@ 465 "Drivers/CMSIS/Include/cmsis_gcc.h" 1
 431 0026 EFF31183 		MRS r3, basepri
 432              	@ 0 "" 2
 433              		.thumb
 434              		.syntax unified
 435              	.LBE351:
 436              	.LBE350:
 220:Middlewares/Third_Party/FreeRTOS/Source/CMSIS_RTOS_V2/cmsis_os2.c ****     lock = (int32_t)osErrorISR;
 437              		.loc 1 220 0
 438 002a 002B     		cmp	r3, #0
 439 002c F3D0     		beq	.L46
 221:Middlewares/Third_Party/FreeRTOS/Source/CMSIS_RTOS_V2/cmsis_os2.c ****   }
 440              		.loc 1 221 0
 441 002e 6FF00500 		mvn	r0, #5
 442 0032 08BD     		pop	{r3, pc}
 443              	.L47:
 226:Middlewares/Third_Party/FreeRTOS/Source/CMSIS_RTOS_V2/cmsis_os2.c ****         break;
 444              		.loc 1 226 0
 445 0034 0120     		movs	r0, #1
 446 0036 08BD     		pop	{r3, pc}
 447              	.L48:
 230:Middlewares/Third_Party/FreeRTOS/Source/CMSIS_RTOS_V2/cmsis_os2.c ****         lock = 0;
 448              		.loc 1 230 0
 449 0038 FFF7FEFF 		bl	vTaskSuspendAll
 450              	.LVL22:
 231:Middlewares/Third_Party/FreeRTOS/Source/CMSIS_RTOS_V2/cmsis_os2.c ****         break;
 451              		.loc 1 231 0
 452 003c 0020     		movs	r0, #0
 232:Middlewares/Third_Party/FreeRTOS/Source/CMSIS_RTOS_V2/cmsis_os2.c **** 
 453              		.loc 1 232 0
 454 003e 08BD     		pop	{r3, pc}
 455              	.LVL23:
 456              	.L49:
 221:Middlewares/Third_Party/FreeRTOS/Source/CMSIS_RTOS_V2/cmsis_os2.c ****   }
 457              		.loc 1 221 0
 458 0040 6FF00500 		mvn	r0, #5
 459 0044 08BD     		pop	{r3, pc}
 460              	.L50:
 461 0046 6FF00500 		mvn	r0, #5
 462 004a 08BD     		pop	{r3, pc}
 463              	.L57:
 464              		.align	2
 465              	.L56:
 466 004c 00000000 		.word	.LANCHOR0
 467              		.cfi_endproc
 468              	.LFE52:
 470              		.section	.text.osKernelUnlock,"ax",%progbits
 471              		.align	1
 472              		.global	osKernelUnlock
 473              		.syntax unified
 474              		.thumb
 475              		.thumb_func
 476              		.fpu softvfp
 478              	osKernelUnlock:
 479              	.LFB53:
 244:Middlewares/Third_Party/FreeRTOS/Source/CMSIS_RTOS_V2/cmsis_os2.c ****   int32_t lock;
 480              		.loc 1 244 0
ARM GAS  /tmp/cce47g5y.s 			page 33


 481              		.cfi_startproc
 482              		@ args = 0, pretend = 0, frame = 0
 483              		@ frame_needed = 0, uses_anonymous_args = 0
 484 0000 08B5     		push	{r3, lr}
 485              	.LCFI5:
 486              		.cfi_def_cfa_offset 8
 487              		.cfi_offset 3, -8
 488              		.cfi_offset 14, -4
 489              	.LBB352:
 490              	.LBB353:
 209:Drivers/CMSIS/Include/cmsis_gcc.h ****   return(result);
 491              		.loc 2 209 0
 492              		.syntax unified
 493              	@ 209 "Drivers/CMSIS/Include/cmsis_gcc.h" 1
 494 0002 EFF30583 		MRS r3, ipsr
 495              	@ 0 "" 2
 496              		.thumb
 497              		.syntax unified
 498              	.LBE353:
 499              	.LBE352:
 247:Middlewares/Third_Party/FreeRTOS/Source/CMSIS_RTOS_V2/cmsis_os2.c ****     lock = (int32_t)osErrorISR;
 500              		.loc 1 247 0
 501 0006 EBB9     		cbnz	r3, .L63
 502              	.LBB354:
 503              	.LBB355:
 386:Drivers/CMSIS/Include/cmsis_gcc.h ****   return(result);
 504              		.loc 2 386 0
 505              		.syntax unified
 506              	@ 386 "Drivers/CMSIS/Include/cmsis_gcc.h" 1
 507 0008 EFF31083 		MRS r3, primask
 508              	@ 0 "" 2
 509              		.thumb
 510              		.syntax unified
 511              	.LBE355:
 512              	.LBE354:
 247:Middlewares/Third_Party/FreeRTOS/Source/CMSIS_RTOS_V2/cmsis_os2.c ****     lock = (int32_t)osErrorISR;
 513              		.loc 1 247 0
 514 000c EBB9     		cbnz	r3, .L64
 247:Middlewares/Third_Party/FreeRTOS/Source/CMSIS_RTOS_V2/cmsis_os2.c ****     lock = (int32_t)osErrorISR;
 515              		.loc 1 247 0 is_stmt 0 discriminator 2
 516 000e 144B     		ldr	r3, .L72
 517 0010 1B68     		ldr	r3, [r3]
 518 0012 022B     		cmp	r3, #2
 519 0014 06D0     		beq	.L71
 520              	.L60:
 251:Middlewares/Third_Party/FreeRTOS/Source/CMSIS_RTOS_V2/cmsis_os2.c ****       case taskSCHEDULER_SUSPENDED:
 521              		.loc 1 251 0 is_stmt 1
 522 0016 FFF7FEFF 		bl	xTaskGetSchedulerState
 523              	.LVL24:
 524 001a 50B1     		cbz	r0, .L61
 525 001c 0228     		cmp	r0, #2
 526 001e 17D1     		bne	.L69
 263:Middlewares/Third_Party/FreeRTOS/Source/CMSIS_RTOS_V2/cmsis_os2.c ****         break;
 527              		.loc 1 263 0
 528 0020 0020     		movs	r0, #0
 529 0022 08BD     		pop	{r3, pc}
 530              	.L71:
ARM GAS  /tmp/cce47g5y.s 			page 34


 531              	.LBB356:
 532              	.LBB357:
 533              		.loc 2 465 0
 534              		.syntax unified
 535              	@ 465 "Drivers/CMSIS/Include/cmsis_gcc.h" 1
 536 0024 EFF31183 		MRS r3, basepri
 537              	@ 0 "" 2
 538              		.thumb
 539              		.syntax unified
 540              	.LBE357:
 541              	.LBE356:
 247:Middlewares/Third_Party/FreeRTOS/Source/CMSIS_RTOS_V2/cmsis_os2.c ****     lock = (int32_t)osErrorISR;
 542              		.loc 1 247 0
 543 0028 002B     		cmp	r3, #0
 544 002a F4D0     		beq	.L60
 248:Middlewares/Third_Party/FreeRTOS/Source/CMSIS_RTOS_V2/cmsis_os2.c ****   }
 545              		.loc 1 248 0
 546 002c 6FF00500 		mvn	r0, #5
 547 0030 08BD     		pop	{r3, pc}
 548              	.L61:
 549              	.LVL25:
 255:Middlewares/Third_Party/FreeRTOS/Source/CMSIS_RTOS_V2/cmsis_os2.c ****           if (xTaskGetSchedulerState() == taskSCHEDULER_SUSPENDED) {
 550              		.loc 1 255 0
 551 0032 FFF7FEFF 		bl	xTaskResumeAll
 552              	.LVL26:
 553 0036 0128     		cmp	r0, #1
 554 0038 0DD0     		beq	.L67
 256:Middlewares/Third_Party/FreeRTOS/Source/CMSIS_RTOS_V2/cmsis_os2.c ****             lock = (int32_t)osError;
 555              		.loc 1 256 0
 556 003a FFF7FEFF 		bl	xTaskGetSchedulerState
 557              	.LVL27:
 558 003e 60B1     		cbz	r0, .L68
 253:Middlewares/Third_Party/FreeRTOS/Source/CMSIS_RTOS_V2/cmsis_os2.c **** 
 559              		.loc 1 253 0
 560 0040 0120     		movs	r0, #1
 561 0042 08BD     		pop	{r3, pc}
 562              	.LVL28:
 563              	.L63:
 248:Middlewares/Third_Party/FreeRTOS/Source/CMSIS_RTOS_V2/cmsis_os2.c ****   }
 564              		.loc 1 248 0
 565 0044 6FF00500 		mvn	r0, #5
 566 0048 08BD     		pop	{r3, pc}
 567              	.L64:
 568 004a 6FF00500 		mvn	r0, #5
 569 004e 08BD     		pop	{r3, pc}
 570              	.L69:
 268:Middlewares/Third_Party/FreeRTOS/Source/CMSIS_RTOS_V2/cmsis_os2.c ****         break;
 571              		.loc 1 268 0
 572 0050 4FF0FF30 		mov	r0, #-1
 573 0054 08BD     		pop	{r3, pc}
 574              	.LVL29:
 575              	.L67:
 253:Middlewares/Third_Party/FreeRTOS/Source/CMSIS_RTOS_V2/cmsis_os2.c **** 
 576              		.loc 1 253 0
 577 0056 0120     		movs	r0, #1
 578 0058 08BD     		pop	{r3, pc}
 579              	.L68:
ARM GAS  /tmp/cce47g5y.s 			page 35


 257:Middlewares/Third_Party/FreeRTOS/Source/CMSIS_RTOS_V2/cmsis_os2.c ****           }
 580              		.loc 1 257 0
 581 005a 4FF0FF30 		mov	r0, #-1
 582              	.LVL30:
 274:Middlewares/Third_Party/FreeRTOS/Source/CMSIS_RTOS_V2/cmsis_os2.c **** 
 583              		.loc 1 274 0
 584 005e 08BD     		pop	{r3, pc}
 585              	.L73:
 586              		.align	2
 587              	.L72:
 588 0060 00000000 		.word	.LANCHOR0
 589              		.cfi_endproc
 590              	.LFE53:
 592              		.section	.text.osKernelRestoreLock,"ax",%progbits
 593              		.align	1
 594              		.global	osKernelRestoreLock
 595              		.syntax unified
 596              		.thumb
 597              		.thumb_func
 598              		.fpu softvfp
 600              	osKernelRestoreLock:
 601              	.LFB54:
 276:Middlewares/Third_Party/FreeRTOS/Source/CMSIS_RTOS_V2/cmsis_os2.c **** 
 602              		.loc 1 276 0
 603              		.cfi_startproc
 604              		@ args = 0, pretend = 0, frame = 0
 605              		@ frame_needed = 0, uses_anonymous_args = 0
 606              	.LVL31:
 607 0000 10B5     		push	{r4, lr}
 608              	.LCFI6:
 609              		.cfi_def_cfa_offset 8
 610              		.cfi_offset 4, -8
 611              		.cfi_offset 14, -4
 612              	.LBB358:
 613              	.LBB359:
 209:Drivers/CMSIS/Include/cmsis_gcc.h ****   return(result);
 614              		.loc 2 209 0
 615              		.syntax unified
 616              	@ 209 "Drivers/CMSIS/Include/cmsis_gcc.h" 1
 617 0002 EFF30583 		MRS r3, ipsr
 618              	@ 0 "" 2
 619              		.thumb
 620              		.syntax unified
 621              	.LBE359:
 622              	.LBE358:
 278:Middlewares/Third_Party/FreeRTOS/Source/CMSIS_RTOS_V2/cmsis_os2.c ****     lock = (int32_t)osErrorISR;
 623              		.loc 1 278 0
 624 0006 1BBB     		cbnz	r3, .L79
 625 0008 0446     		mov	r4, r0
 626              	.LBB360:
 627              	.LBB361:
 386:Drivers/CMSIS/Include/cmsis_gcc.h ****   return(result);
 628              		.loc 2 386 0
 629              		.syntax unified
 630              	@ 386 "Drivers/CMSIS/Include/cmsis_gcc.h" 1
 631 000a EFF31083 		MRS r3, primask
 632              	@ 0 "" 2
ARM GAS  /tmp/cce47g5y.s 			page 36


 633              		.thumb
 634              		.syntax unified
 635              	.LBE361:
 636              	.LBE360:
 278:Middlewares/Third_Party/FreeRTOS/Source/CMSIS_RTOS_V2/cmsis_os2.c ****     lock = (int32_t)osErrorISR;
 637              		.loc 1 278 0
 638 000e 13BB     		cbnz	r3, .L80
 278:Middlewares/Third_Party/FreeRTOS/Source/CMSIS_RTOS_V2/cmsis_os2.c ****     lock = (int32_t)osErrorISR;
 639              		.loc 1 278 0 is_stmt 0 discriminator 2
 640 0010 174B     		ldr	r3, .L90
 641 0012 1B68     		ldr	r3, [r3]
 642 0014 022B     		cmp	r3, #2
 643 0016 11D0     		beq	.L87
 644              	.L76:
 282:Middlewares/Third_Party/FreeRTOS/Source/CMSIS_RTOS_V2/cmsis_os2.c ****       case taskSCHEDULER_SUSPENDED:
 645              		.loc 1 282 0 is_stmt 1
 646 0018 FFF7FEFF 		bl	xTaskGetSchedulerState
 647              	.LVL32:
 648 001c 08B1     		cbz	r0, .L77
 649 001e 0228     		cmp	r0, #2
 650 0020 1CD1     		bne	.L85
 651              	.L77:
 285:Middlewares/Third_Party/FreeRTOS/Source/CMSIS_RTOS_V2/cmsis_os2.c ****           vTaskSuspendAll();
 652              		.loc 1 285 0
 653 0022 012C     		cmp	r4, #1
 654 0024 11D0     		beq	.L88
 289:Middlewares/Third_Party/FreeRTOS/Source/CMSIS_RTOS_V2/cmsis_os2.c ****             lock = (int32_t)osError;
 655              		.loc 1 289 0
 656 0026 E4B9     		cbnz	r4, .L83
 293:Middlewares/Third_Party/FreeRTOS/Source/CMSIS_RTOS_V2/cmsis_os2.c ****               if (xTaskGetSchedulerState() != taskSCHEDULER_RUNNING) {
 657              		.loc 1 293 0
 658 0028 FFF7FEFF 		bl	xTaskResumeAll
 659              	.LVL33:
 660 002c 0128     		cmp	r0, #1
 661 002e 03D0     		beq	.L75
 294:Middlewares/Third_Party/FreeRTOS/Source/CMSIS_RTOS_V2/cmsis_os2.c ****                 lock = (int32_t)osError;
 662              		.loc 1 294 0
 663 0030 FFF7FEFF 		bl	xTaskGetSchedulerState
 664              	.LVL34:
 665 0034 0228     		cmp	r0, #2
 666 0036 17D1     		bne	.L89
 667              	.LVL35:
 668              	.L75:
 310:Middlewares/Third_Party/FreeRTOS/Source/CMSIS_RTOS_V2/cmsis_os2.c **** 
 669              		.loc 1 310 0
 670 0038 2046     		mov	r0, r4
 671 003a 10BD     		pop	{r4, pc}
 672              	.LVL36:
 673              	.L87:
 674              	.LBB362:
 675              	.LBB363:
 676              		.loc 2 465 0
 677              		.syntax unified
 678              	@ 465 "Drivers/CMSIS/Include/cmsis_gcc.h" 1
 679 003c EFF31183 		MRS r3, basepri
 680              	@ 0 "" 2
 681              		.thumb
ARM GAS  /tmp/cce47g5y.s 			page 37


 682              		.syntax unified
 683              	.LBE363:
 684              	.LBE362:
 278:Middlewares/Third_Party/FreeRTOS/Source/CMSIS_RTOS_V2/cmsis_os2.c ****     lock = (int32_t)osErrorISR;
 685              		.loc 1 278 0
 686 0040 002B     		cmp	r3, #0
 687 0042 E9D0     		beq	.L76
 279:Middlewares/Third_Party/FreeRTOS/Source/CMSIS_RTOS_V2/cmsis_os2.c ****   }
 688              		.loc 1 279 0
 689 0044 6FF00504 		mvn	r4, #5
 690 0048 F6E7     		b	.L75
 691              	.LVL37:
 692              	.L88:
 286:Middlewares/Third_Party/FreeRTOS/Source/CMSIS_RTOS_V2/cmsis_os2.c ****         }
 693              		.loc 1 286 0
 694 004a FFF7FEFF 		bl	vTaskSuspendAll
 695              	.LVL38:
 696 004e F3E7     		b	.L75
 697              	.LVL39:
 698              	.L79:
 279:Middlewares/Third_Party/FreeRTOS/Source/CMSIS_RTOS_V2/cmsis_os2.c ****   }
 699              		.loc 1 279 0
 700 0050 6FF00504 		mvn	r4, #5
 701 0054 F0E7     		b	.L75
 702              	.L80:
 703 0056 6FF00504 		mvn	r4, #5
 704 005a EDE7     		b	.L75
 705              	.LVL40:
 706              	.L85:
 304:Middlewares/Third_Party/FreeRTOS/Source/CMSIS_RTOS_V2/cmsis_os2.c ****         break;
 707              		.loc 1 304 0
 708 005c 4FF0FF34 		mov	r4, #-1
 709              	.LVL41:
 710 0060 EAE7     		b	.L75
 711              	.LVL42:
 712              	.L83:
 290:Middlewares/Third_Party/FreeRTOS/Source/CMSIS_RTOS_V2/cmsis_os2.c ****           }
 713              		.loc 1 290 0
 714 0062 4FF0FF34 		mov	r4, #-1
 715              	.LVL43:
 716 0066 E7E7     		b	.L75
 717              	.LVL44:
 718              	.L89:
 295:Middlewares/Third_Party/FreeRTOS/Source/CMSIS_RTOS_V2/cmsis_os2.c ****               }
 719              		.loc 1 295 0
 720 0068 4FF0FF34 		mov	r4, #-1
 721              	.LVL45:
 722 006c E4E7     		b	.L75
 723              	.L91:
 724 006e 00BF     		.align	2
 725              	.L90:
 726 0070 00000000 		.word	.LANCHOR0
 727              		.cfi_endproc
 728              	.LFE54:
 730              		.section	.text.osKernelGetTickCount,"ax",%progbits
 731              		.align	1
 732              		.global	osKernelGetTickCount
ARM GAS  /tmp/cce47g5y.s 			page 38


 733              		.syntax unified
 734              		.thumb
 735              		.thumb_func
 736              		.fpu softvfp
 738              	osKernelGetTickCount:
 739              	.LFB55:
 312:Middlewares/Third_Party/FreeRTOS/Source/CMSIS_RTOS_V2/cmsis_os2.c ****   TickType_t ticks;
 740              		.loc 1 312 0
 741              		.cfi_startproc
 742              		@ args = 0, pretend = 0, frame = 0
 743              		@ frame_needed = 0, uses_anonymous_args = 0
 744 0000 08B5     		push	{r3, lr}
 745              	.LCFI7:
 746              		.cfi_def_cfa_offset 8
 747              		.cfi_offset 3, -8
 748              		.cfi_offset 14, -4
 749              	.LBB364:
 750              	.LBB365:
 209:Drivers/CMSIS/Include/cmsis_gcc.h ****   return(result);
 751              		.loc 2 209 0
 752              		.syntax unified
 753              	@ 209 "Drivers/CMSIS/Include/cmsis_gcc.h" 1
 754 0002 EFF30583 		MRS r3, ipsr
 755              	@ 0 "" 2
 756              		.thumb
 757              		.syntax unified
 758              	.LBE365:
 759              	.LBE364:
 315:Middlewares/Third_Party/FreeRTOS/Source/CMSIS_RTOS_V2/cmsis_os2.c ****     ticks = xTaskGetTickCountFromISR();
 760              		.loc 1 315 0
 761 0006 6BB9     		cbnz	r3, .L93
 762              	.LBB366:
 763              	.LBB367:
 386:Drivers/CMSIS/Include/cmsis_gcc.h ****   return(result);
 764              		.loc 2 386 0
 765              		.syntax unified
 766              	@ 386 "Drivers/CMSIS/Include/cmsis_gcc.h" 1
 767 0008 EFF31083 		MRS r3, primask
 768              	@ 0 "" 2
 769              		.thumb
 770              		.syntax unified
 771              	.LBE367:
 772              	.LBE366:
 315:Middlewares/Third_Party/FreeRTOS/Source/CMSIS_RTOS_V2/cmsis_os2.c ****     ticks = xTaskGetTickCountFromISR();
 773              		.loc 1 315 0
 774 000c 53B9     		cbnz	r3, .L93
 315:Middlewares/Third_Party/FreeRTOS/Source/CMSIS_RTOS_V2/cmsis_os2.c ****     ticks = xTaskGetTickCountFromISR();
 775              		.loc 1 315 0 is_stmt 0 discriminator 2
 776 000e 074B     		ldr	r3, .L98
 777 0010 1B68     		ldr	r3, [r3]
 778 0012 022B     		cmp	r3, #2
 779 0014 02D0     		beq	.L97
 780              	.L94:
 318:Middlewares/Third_Party/FreeRTOS/Source/CMSIS_RTOS_V2/cmsis_os2.c ****   }
 781              		.loc 1 318 0 is_stmt 1
 782 0016 FFF7FEFF 		bl	xTaskGetTickCount
 783              	.LVL46:
ARM GAS  /tmp/cce47g5y.s 			page 39


 322:Middlewares/Third_Party/FreeRTOS/Source/CMSIS_RTOS_V2/cmsis_os2.c **** 
 784              		.loc 1 322 0
 785 001a 08BD     		pop	{r3, pc}
 786              	.LVL47:
 787              	.L97:
 788              	.LBB368:
 789              	.LBB369:
 790              		.loc 2 465 0
 791              		.syntax unified
 792              	@ 465 "Drivers/CMSIS/Include/cmsis_gcc.h" 1
 793 001c EFF31183 		MRS r3, basepri
 794              	@ 0 "" 2
 795              		.thumb
 796              		.syntax unified
 797              	.LBE369:
 798              	.LBE368:
 315:Middlewares/Third_Party/FreeRTOS/Source/CMSIS_RTOS_V2/cmsis_os2.c ****     ticks = xTaskGetTickCountFromISR();
 799              		.loc 1 315 0
 800 0020 002B     		cmp	r3, #0
 801 0022 F8D0     		beq	.L94
 802              	.L93:
 316:Middlewares/Third_Party/FreeRTOS/Source/CMSIS_RTOS_V2/cmsis_os2.c ****   } else {
 803              		.loc 1 316 0
 804 0024 FFF7FEFF 		bl	xTaskGetTickCountFromISR
 805              	.LVL48:
 806 0028 08BD     		pop	{r3, pc}
 807              	.L99:
 808 002a 00BF     		.align	2
 809              	.L98:
 810 002c 00000000 		.word	.LANCHOR0
 811              		.cfi_endproc
 812              	.LFE55:
 814              		.section	.text.osKernelGetTickFreq,"ax",%progbits
 815              		.align	1
 816              		.global	osKernelGetTickFreq
 817              		.syntax unified
 818              		.thumb
 819              		.thumb_func
 820              		.fpu softvfp
 822              	osKernelGetTickFreq:
 823              	.LFB56:
 324:Middlewares/Third_Party/FreeRTOS/Source/CMSIS_RTOS_V2/cmsis_os2.c ****   return (configTICK_RATE_HZ);
 824              		.loc 1 324 0
 825              		.cfi_startproc
 826              		@ args = 0, pretend = 0, frame = 0
 827              		@ frame_needed = 0, uses_anonymous_args = 0
 828              		@ link register save eliminated.
 326:Middlewares/Third_Party/FreeRTOS/Source/CMSIS_RTOS_V2/cmsis_os2.c **** 
 829              		.loc 1 326 0
 830 0000 4FF47A70 		mov	r0, #1000
 831 0004 7047     		bx	lr
 832              		.cfi_endproc
 833              	.LFE56:
 835              		.section	.text.osKernelGetSysTimerCount,"ax",%progbits
 836              		.align	1
 837              		.global	osKernelGetSysTimerCount
 838              		.syntax unified
ARM GAS  /tmp/cce47g5y.s 			page 40


 839              		.thumb
 840              		.thumb_func
 841              		.fpu softvfp
 843              	osKernelGetSysTimerCount:
 844              	.LFB57:
 328:Middlewares/Third_Party/FreeRTOS/Source/CMSIS_RTOS_V2/cmsis_os2.c ****   TickType_t ticks;
 845              		.loc 1 328 0
 846              		.cfi_startproc
 847              		@ args = 0, pretend = 0, frame = 0
 848              		@ frame_needed = 0, uses_anonymous_args = 0
 849 0000 08B5     		push	{r3, lr}
 850              	.LCFI8:
 851              		.cfi_def_cfa_offset 8
 852              		.cfi_offset 3, -8
 853              		.cfi_offset 14, -4
 854              	.LBB370:
 855              	.LBB371:
 856              		.file 3 "Middlewares/Third_Party/FreeRTOS/Source/portable/GCC/ARM_CM3/portmacro.h"
   1:Middlewares/Third_Party/FreeRTOS/Source/portable/GCC/ARM_CM3/portmacro.h **** /*
   2:Middlewares/Third_Party/FreeRTOS/Source/portable/GCC/ARM_CM3/portmacro.h ****  * FreeRTOS Kernel V10.0.1
   3:Middlewares/Third_Party/FreeRTOS/Source/portable/GCC/ARM_CM3/portmacro.h ****  * Copyright (C) 2017 Amazon.com, Inc. or its affiliates.  All Rights Reserved.
   4:Middlewares/Third_Party/FreeRTOS/Source/portable/GCC/ARM_CM3/portmacro.h ****  *
   5:Middlewares/Third_Party/FreeRTOS/Source/portable/GCC/ARM_CM3/portmacro.h ****  * Permission is hereby granted, free of charge, to any person obtaining a copy of
   6:Middlewares/Third_Party/FreeRTOS/Source/portable/GCC/ARM_CM3/portmacro.h ****  * this software and associated documentation files (the "Software"), to deal in
   7:Middlewares/Third_Party/FreeRTOS/Source/portable/GCC/ARM_CM3/portmacro.h ****  * the Software without restriction, including without limitation the rights to
   8:Middlewares/Third_Party/FreeRTOS/Source/portable/GCC/ARM_CM3/portmacro.h ****  * use, copy, modify, merge, publish, distribute, sublicense, and/or sell copies of
   9:Middlewares/Third_Party/FreeRTOS/Source/portable/GCC/ARM_CM3/portmacro.h ****  * the Software, and to permit persons to whom the Software is furnished to do so,
  10:Middlewares/Third_Party/FreeRTOS/Source/portable/GCC/ARM_CM3/portmacro.h ****  * subject to the following conditions:
  11:Middlewares/Third_Party/FreeRTOS/Source/portable/GCC/ARM_CM3/portmacro.h ****  *
  12:Middlewares/Third_Party/FreeRTOS/Source/portable/GCC/ARM_CM3/portmacro.h ****  * The above copyright notice and this permission notice shall be included in all
  13:Middlewares/Third_Party/FreeRTOS/Source/portable/GCC/ARM_CM3/portmacro.h ****  * copies or substantial portions of the Software.
  14:Middlewares/Third_Party/FreeRTOS/Source/portable/GCC/ARM_CM3/portmacro.h ****  *
  15:Middlewares/Third_Party/FreeRTOS/Source/portable/GCC/ARM_CM3/portmacro.h ****  * THE SOFTWARE IS PROVIDED "AS IS", WITHOUT WARRANTY OF ANY KIND, EXPRESS OR
  16:Middlewares/Third_Party/FreeRTOS/Source/portable/GCC/ARM_CM3/portmacro.h ****  * IMPLIED, INCLUDING BUT NOT LIMITED TO THE WARRANTIES OF MERCHANTABILITY, FITNESS
  17:Middlewares/Third_Party/FreeRTOS/Source/portable/GCC/ARM_CM3/portmacro.h ****  * FOR A PARTICULAR PURPOSE AND NONINFRINGEMENT. IN NO EVENT SHALL THE AUTHORS OR
  18:Middlewares/Third_Party/FreeRTOS/Source/portable/GCC/ARM_CM3/portmacro.h ****  * COPYRIGHT HOLDERS BE LIABLE FOR ANY CLAIM, DAMAGES OR OTHER LIABILITY, WHETHER
  19:Middlewares/Third_Party/FreeRTOS/Source/portable/GCC/ARM_CM3/portmacro.h ****  * IN AN ACTION OF CONTRACT, TORT OR OTHERWISE, ARISING FROM, OUT OF OR IN
  20:Middlewares/Third_Party/FreeRTOS/Source/portable/GCC/ARM_CM3/portmacro.h ****  * CONNECTION WITH THE SOFTWARE OR THE USE OR OTHER DEALINGS IN THE SOFTWARE.
  21:Middlewares/Third_Party/FreeRTOS/Source/portable/GCC/ARM_CM3/portmacro.h ****  *
  22:Middlewares/Third_Party/FreeRTOS/Source/portable/GCC/ARM_CM3/portmacro.h ****  * http://www.FreeRTOS.org
  23:Middlewares/Third_Party/FreeRTOS/Source/portable/GCC/ARM_CM3/portmacro.h ****  * http://aws.amazon.com/freertos
  24:Middlewares/Third_Party/FreeRTOS/Source/portable/GCC/ARM_CM3/portmacro.h ****  *
  25:Middlewares/Third_Party/FreeRTOS/Source/portable/GCC/ARM_CM3/portmacro.h ****  * 1 tab == 4 spaces!
  26:Middlewares/Third_Party/FreeRTOS/Source/portable/GCC/ARM_CM3/portmacro.h ****  */
  27:Middlewares/Third_Party/FreeRTOS/Source/portable/GCC/ARM_CM3/portmacro.h **** 
  28:Middlewares/Third_Party/FreeRTOS/Source/portable/GCC/ARM_CM3/portmacro.h **** 
  29:Middlewares/Third_Party/FreeRTOS/Source/portable/GCC/ARM_CM3/portmacro.h **** #ifndef PORTMACRO_H
  30:Middlewares/Third_Party/FreeRTOS/Source/portable/GCC/ARM_CM3/portmacro.h **** #define PORTMACRO_H
  31:Middlewares/Third_Party/FreeRTOS/Source/portable/GCC/ARM_CM3/portmacro.h **** 
  32:Middlewares/Third_Party/FreeRTOS/Source/portable/GCC/ARM_CM3/portmacro.h **** #ifdef __cplusplus
  33:Middlewares/Third_Party/FreeRTOS/Source/portable/GCC/ARM_CM3/portmacro.h **** extern "C" {
  34:Middlewares/Third_Party/FreeRTOS/Source/portable/GCC/ARM_CM3/portmacro.h **** #endif
  35:Middlewares/Third_Party/FreeRTOS/Source/portable/GCC/ARM_CM3/portmacro.h **** 
  36:Middlewares/Third_Party/FreeRTOS/Source/portable/GCC/ARM_CM3/portmacro.h **** /*-----------------------------------------------------------
  37:Middlewares/Third_Party/FreeRTOS/Source/portable/GCC/ARM_CM3/portmacro.h ****  * Port specific definitions.
  38:Middlewares/Third_Party/FreeRTOS/Source/portable/GCC/ARM_CM3/portmacro.h ****  *
  39:Middlewares/Third_Party/FreeRTOS/Source/portable/GCC/ARM_CM3/portmacro.h ****  * The settings in this file configure FreeRTOS correctly for the
ARM GAS  /tmp/cce47g5y.s 			page 41


  40:Middlewares/Third_Party/FreeRTOS/Source/portable/GCC/ARM_CM3/portmacro.h ****  * given hardware and compiler.
  41:Middlewares/Third_Party/FreeRTOS/Source/portable/GCC/ARM_CM3/portmacro.h ****  *
  42:Middlewares/Third_Party/FreeRTOS/Source/portable/GCC/ARM_CM3/portmacro.h ****  * These settings should not be altered.
  43:Middlewares/Third_Party/FreeRTOS/Source/portable/GCC/ARM_CM3/portmacro.h ****  *-----------------------------------------------------------
  44:Middlewares/Third_Party/FreeRTOS/Source/portable/GCC/ARM_CM3/portmacro.h ****  */
  45:Middlewares/Third_Party/FreeRTOS/Source/portable/GCC/ARM_CM3/portmacro.h **** 
  46:Middlewares/Third_Party/FreeRTOS/Source/portable/GCC/ARM_CM3/portmacro.h **** /* Type definitions. */
  47:Middlewares/Third_Party/FreeRTOS/Source/portable/GCC/ARM_CM3/portmacro.h **** #define portCHAR		char
  48:Middlewares/Third_Party/FreeRTOS/Source/portable/GCC/ARM_CM3/portmacro.h **** #define portFLOAT		float
  49:Middlewares/Third_Party/FreeRTOS/Source/portable/GCC/ARM_CM3/portmacro.h **** #define portDOUBLE		double
  50:Middlewares/Third_Party/FreeRTOS/Source/portable/GCC/ARM_CM3/portmacro.h **** #define portLONG		long
  51:Middlewares/Third_Party/FreeRTOS/Source/portable/GCC/ARM_CM3/portmacro.h **** #define portSHORT		short
  52:Middlewares/Third_Party/FreeRTOS/Source/portable/GCC/ARM_CM3/portmacro.h **** #define portSTACK_TYPE	uint32_t
  53:Middlewares/Third_Party/FreeRTOS/Source/portable/GCC/ARM_CM3/portmacro.h **** #define portBASE_TYPE	long
  54:Middlewares/Third_Party/FreeRTOS/Source/portable/GCC/ARM_CM3/portmacro.h **** 
  55:Middlewares/Third_Party/FreeRTOS/Source/portable/GCC/ARM_CM3/portmacro.h **** typedef portSTACK_TYPE StackType_t;
  56:Middlewares/Third_Party/FreeRTOS/Source/portable/GCC/ARM_CM3/portmacro.h **** typedef long BaseType_t;
  57:Middlewares/Third_Party/FreeRTOS/Source/portable/GCC/ARM_CM3/portmacro.h **** typedef unsigned long UBaseType_t;
  58:Middlewares/Third_Party/FreeRTOS/Source/portable/GCC/ARM_CM3/portmacro.h **** 
  59:Middlewares/Third_Party/FreeRTOS/Source/portable/GCC/ARM_CM3/portmacro.h **** #if( configUSE_16_BIT_TICKS == 1 )
  60:Middlewares/Third_Party/FreeRTOS/Source/portable/GCC/ARM_CM3/portmacro.h **** 	typedef uint16_t TickType_t;
  61:Middlewares/Third_Party/FreeRTOS/Source/portable/GCC/ARM_CM3/portmacro.h **** 	#define portMAX_DELAY ( TickType_t ) 0xffff
  62:Middlewares/Third_Party/FreeRTOS/Source/portable/GCC/ARM_CM3/portmacro.h **** #else
  63:Middlewares/Third_Party/FreeRTOS/Source/portable/GCC/ARM_CM3/portmacro.h **** 	typedef uint32_t TickType_t;
  64:Middlewares/Third_Party/FreeRTOS/Source/portable/GCC/ARM_CM3/portmacro.h **** 	#define portMAX_DELAY ( TickType_t ) 0xffffffffUL
  65:Middlewares/Third_Party/FreeRTOS/Source/portable/GCC/ARM_CM3/portmacro.h **** 
  66:Middlewares/Third_Party/FreeRTOS/Source/portable/GCC/ARM_CM3/portmacro.h **** 	/* 32-bit tick type on a 32-bit architecture, so reads of the tick count do
  67:Middlewares/Third_Party/FreeRTOS/Source/portable/GCC/ARM_CM3/portmacro.h **** 	not need to be guarded with a critical section. */
  68:Middlewares/Third_Party/FreeRTOS/Source/portable/GCC/ARM_CM3/portmacro.h **** 	#define portTICK_TYPE_IS_ATOMIC 1
  69:Middlewares/Third_Party/FreeRTOS/Source/portable/GCC/ARM_CM3/portmacro.h **** #endif
  70:Middlewares/Third_Party/FreeRTOS/Source/portable/GCC/ARM_CM3/portmacro.h **** /*-----------------------------------------------------------*/
  71:Middlewares/Third_Party/FreeRTOS/Source/portable/GCC/ARM_CM3/portmacro.h **** 
  72:Middlewares/Third_Party/FreeRTOS/Source/portable/GCC/ARM_CM3/portmacro.h **** /* Architecture specifics. */
  73:Middlewares/Third_Party/FreeRTOS/Source/portable/GCC/ARM_CM3/portmacro.h **** #define portSTACK_GROWTH			( -1 )
  74:Middlewares/Third_Party/FreeRTOS/Source/portable/GCC/ARM_CM3/portmacro.h **** #define portTICK_PERIOD_MS			( ( TickType_t ) 1000 / configTICK_RATE_HZ )
  75:Middlewares/Third_Party/FreeRTOS/Source/portable/GCC/ARM_CM3/portmacro.h **** #define portBYTE_ALIGNMENT			8
  76:Middlewares/Third_Party/FreeRTOS/Source/portable/GCC/ARM_CM3/portmacro.h **** /*-----------------------------------------------------------*/
  77:Middlewares/Third_Party/FreeRTOS/Source/portable/GCC/ARM_CM3/portmacro.h **** 
  78:Middlewares/Third_Party/FreeRTOS/Source/portable/GCC/ARM_CM3/portmacro.h **** /* Scheduler utilities. */
  79:Middlewares/Third_Party/FreeRTOS/Source/portable/GCC/ARM_CM3/portmacro.h **** #define portYIELD() 															\
  80:Middlewares/Third_Party/FreeRTOS/Source/portable/GCC/ARM_CM3/portmacro.h **** {																				\
  81:Middlewares/Third_Party/FreeRTOS/Source/portable/GCC/ARM_CM3/portmacro.h **** 	/* Set a PendSV to request a context switch. */								\
  82:Middlewares/Third_Party/FreeRTOS/Source/portable/GCC/ARM_CM3/portmacro.h **** 	portNVIC_INT_CTRL_REG = portNVIC_PENDSVSET_BIT;								\
  83:Middlewares/Third_Party/FreeRTOS/Source/portable/GCC/ARM_CM3/portmacro.h **** 																				\
  84:Middlewares/Third_Party/FreeRTOS/Source/portable/GCC/ARM_CM3/portmacro.h **** 	/* Barriers are normally not required but do ensure the code is completely	\
  85:Middlewares/Third_Party/FreeRTOS/Source/portable/GCC/ARM_CM3/portmacro.h **** 	within the specified behaviour for the architecture. */						\
  86:Middlewares/Third_Party/FreeRTOS/Source/portable/GCC/ARM_CM3/portmacro.h **** 	__asm volatile( "dsb" ::: "memory" );										\
  87:Middlewares/Third_Party/FreeRTOS/Source/portable/GCC/ARM_CM3/portmacro.h **** 	__asm volatile( "isb" );													\
  88:Middlewares/Third_Party/FreeRTOS/Source/portable/GCC/ARM_CM3/portmacro.h **** }
  89:Middlewares/Third_Party/FreeRTOS/Source/portable/GCC/ARM_CM3/portmacro.h **** 
  90:Middlewares/Third_Party/FreeRTOS/Source/portable/GCC/ARM_CM3/portmacro.h **** #define portNVIC_INT_CTRL_REG		( * ( ( volatile uint32_t * ) 0xe000ed04 ) )
  91:Middlewares/Third_Party/FreeRTOS/Source/portable/GCC/ARM_CM3/portmacro.h **** #define portNVIC_PENDSVSET_BIT		( 1UL << 28UL )
  92:Middlewares/Third_Party/FreeRTOS/Source/portable/GCC/ARM_CM3/portmacro.h **** #define portEND_SWITCHING_ISR( xSwitchRequired ) if( xSwitchRequired != pdFALSE ) portYIELD()
  93:Middlewares/Third_Party/FreeRTOS/Source/portable/GCC/ARM_CM3/portmacro.h **** #define portYIELD_FROM_ISR( x ) portEND_SWITCHING_ISR( x )
  94:Middlewares/Third_Party/FreeRTOS/Source/portable/GCC/ARM_CM3/portmacro.h **** /*-----------------------------------------------------------*/
  95:Middlewares/Third_Party/FreeRTOS/Source/portable/GCC/ARM_CM3/portmacro.h **** 
  96:Middlewares/Third_Party/FreeRTOS/Source/portable/GCC/ARM_CM3/portmacro.h **** /* Critical section management. */
ARM GAS  /tmp/cce47g5y.s 			page 42


  97:Middlewares/Third_Party/FreeRTOS/Source/portable/GCC/ARM_CM3/portmacro.h **** extern void vPortEnterCritical( void );
  98:Middlewares/Third_Party/FreeRTOS/Source/portable/GCC/ARM_CM3/portmacro.h **** extern void vPortExitCritical( void );
  99:Middlewares/Third_Party/FreeRTOS/Source/portable/GCC/ARM_CM3/portmacro.h **** #define portSET_INTERRUPT_MASK_FROM_ISR()		ulPortRaiseBASEPRI()
 100:Middlewares/Third_Party/FreeRTOS/Source/portable/GCC/ARM_CM3/portmacro.h **** #define portCLEAR_INTERRUPT_MASK_FROM_ISR(x)	vPortSetBASEPRI(x)
 101:Middlewares/Third_Party/FreeRTOS/Source/portable/GCC/ARM_CM3/portmacro.h **** #define portDISABLE_INTERRUPTS()				vPortRaiseBASEPRI()
 102:Middlewares/Third_Party/FreeRTOS/Source/portable/GCC/ARM_CM3/portmacro.h **** #define portENABLE_INTERRUPTS()					vPortSetBASEPRI(0)
 103:Middlewares/Third_Party/FreeRTOS/Source/portable/GCC/ARM_CM3/portmacro.h **** #define portENTER_CRITICAL()					vPortEnterCritical()
 104:Middlewares/Third_Party/FreeRTOS/Source/portable/GCC/ARM_CM3/portmacro.h **** #define portEXIT_CRITICAL()						vPortExitCritical()
 105:Middlewares/Third_Party/FreeRTOS/Source/portable/GCC/ARM_CM3/portmacro.h **** 
 106:Middlewares/Third_Party/FreeRTOS/Source/portable/GCC/ARM_CM3/portmacro.h **** /*-----------------------------------------------------------*/
 107:Middlewares/Third_Party/FreeRTOS/Source/portable/GCC/ARM_CM3/portmacro.h **** 
 108:Middlewares/Third_Party/FreeRTOS/Source/portable/GCC/ARM_CM3/portmacro.h **** /* Task function macros as described on the FreeRTOS.org WEB site.  These are
 109:Middlewares/Third_Party/FreeRTOS/Source/portable/GCC/ARM_CM3/portmacro.h **** not necessary for to use this port.  They are defined so the common demo files
 110:Middlewares/Third_Party/FreeRTOS/Source/portable/GCC/ARM_CM3/portmacro.h **** (which build with all the ports) will build. */
 111:Middlewares/Third_Party/FreeRTOS/Source/portable/GCC/ARM_CM3/portmacro.h **** #define portTASK_FUNCTION_PROTO( vFunction, pvParameters ) void vFunction( void *pvParameters )
 112:Middlewares/Third_Party/FreeRTOS/Source/portable/GCC/ARM_CM3/portmacro.h **** #define portTASK_FUNCTION( vFunction, pvParameters ) void vFunction( void *pvParameters )
 113:Middlewares/Third_Party/FreeRTOS/Source/portable/GCC/ARM_CM3/portmacro.h **** /*-----------------------------------------------------------*/
 114:Middlewares/Third_Party/FreeRTOS/Source/portable/GCC/ARM_CM3/portmacro.h **** 
 115:Middlewares/Third_Party/FreeRTOS/Source/portable/GCC/ARM_CM3/portmacro.h **** /* Tickless idle/low power functionality. */
 116:Middlewares/Third_Party/FreeRTOS/Source/portable/GCC/ARM_CM3/portmacro.h **** #ifndef portSUPPRESS_TICKS_AND_SLEEP
 117:Middlewares/Third_Party/FreeRTOS/Source/portable/GCC/ARM_CM3/portmacro.h **** 	extern void vPortSuppressTicksAndSleep( TickType_t xExpectedIdleTime );
 118:Middlewares/Third_Party/FreeRTOS/Source/portable/GCC/ARM_CM3/portmacro.h **** 	#define portSUPPRESS_TICKS_AND_SLEEP( xExpectedIdleTime ) vPortSuppressTicksAndSleep( xExpectedIdl
 119:Middlewares/Third_Party/FreeRTOS/Source/portable/GCC/ARM_CM3/portmacro.h **** #endif
 120:Middlewares/Third_Party/FreeRTOS/Source/portable/GCC/ARM_CM3/portmacro.h **** /*-----------------------------------------------------------*/
 121:Middlewares/Third_Party/FreeRTOS/Source/portable/GCC/ARM_CM3/portmacro.h **** 
 122:Middlewares/Third_Party/FreeRTOS/Source/portable/GCC/ARM_CM3/portmacro.h **** /* Architecture specific optimisations. */
 123:Middlewares/Third_Party/FreeRTOS/Source/portable/GCC/ARM_CM3/portmacro.h **** #ifndef configUSE_PORT_OPTIMISED_TASK_SELECTION
 124:Middlewares/Third_Party/FreeRTOS/Source/portable/GCC/ARM_CM3/portmacro.h **** 	#define configUSE_PORT_OPTIMISED_TASK_SELECTION 1
 125:Middlewares/Third_Party/FreeRTOS/Source/portable/GCC/ARM_CM3/portmacro.h **** #endif
 126:Middlewares/Third_Party/FreeRTOS/Source/portable/GCC/ARM_CM3/portmacro.h **** 
 127:Middlewares/Third_Party/FreeRTOS/Source/portable/GCC/ARM_CM3/portmacro.h **** #if configUSE_PORT_OPTIMISED_TASK_SELECTION == 1
 128:Middlewares/Third_Party/FreeRTOS/Source/portable/GCC/ARM_CM3/portmacro.h **** 
 129:Middlewares/Third_Party/FreeRTOS/Source/portable/GCC/ARM_CM3/portmacro.h **** 	/* Generic helper function. */
 130:Middlewares/Third_Party/FreeRTOS/Source/portable/GCC/ARM_CM3/portmacro.h **** 	__attribute__( ( always_inline ) ) static inline uint8_t ucPortCountLeadingZeros( uint32_t ulBitma
 131:Middlewares/Third_Party/FreeRTOS/Source/portable/GCC/ARM_CM3/portmacro.h **** 	{
 132:Middlewares/Third_Party/FreeRTOS/Source/portable/GCC/ARM_CM3/portmacro.h **** 	uint8_t ucReturn;
 133:Middlewares/Third_Party/FreeRTOS/Source/portable/GCC/ARM_CM3/portmacro.h **** 
 134:Middlewares/Third_Party/FreeRTOS/Source/portable/GCC/ARM_CM3/portmacro.h **** 		__asm volatile ( "clz %0, %1" : "=r" ( ucReturn ) : "r" ( ulBitmap ) : "memory" );
 135:Middlewares/Third_Party/FreeRTOS/Source/portable/GCC/ARM_CM3/portmacro.h **** 		return ucReturn;
 136:Middlewares/Third_Party/FreeRTOS/Source/portable/GCC/ARM_CM3/portmacro.h **** 	}
 137:Middlewares/Third_Party/FreeRTOS/Source/portable/GCC/ARM_CM3/portmacro.h **** 
 138:Middlewares/Third_Party/FreeRTOS/Source/portable/GCC/ARM_CM3/portmacro.h **** 	/* Check the configuration. */
 139:Middlewares/Third_Party/FreeRTOS/Source/portable/GCC/ARM_CM3/portmacro.h **** 	#if( configMAX_PRIORITIES > 32 )
 140:Middlewares/Third_Party/FreeRTOS/Source/portable/GCC/ARM_CM3/portmacro.h **** 		#error configUSE_PORT_OPTIMISED_TASK_SELECTION can only be set to 1 when configMAX_PRIORITIES is 
 141:Middlewares/Third_Party/FreeRTOS/Source/portable/GCC/ARM_CM3/portmacro.h **** 	#endif
 142:Middlewares/Third_Party/FreeRTOS/Source/portable/GCC/ARM_CM3/portmacro.h **** 
 143:Middlewares/Third_Party/FreeRTOS/Source/portable/GCC/ARM_CM3/portmacro.h **** 	/* Store/clear the ready priorities in a bit map. */
 144:Middlewares/Third_Party/FreeRTOS/Source/portable/GCC/ARM_CM3/portmacro.h **** 	#define portRECORD_READY_PRIORITY( uxPriority, uxReadyPriorities ) ( uxReadyPriorities ) |= ( 1UL 
 145:Middlewares/Third_Party/FreeRTOS/Source/portable/GCC/ARM_CM3/portmacro.h **** 	#define portRESET_READY_PRIORITY( uxPriority, uxReadyPriorities ) ( uxReadyPriorities ) &= ~( 1UL 
 146:Middlewares/Third_Party/FreeRTOS/Source/portable/GCC/ARM_CM3/portmacro.h **** 
 147:Middlewares/Third_Party/FreeRTOS/Source/portable/GCC/ARM_CM3/portmacro.h **** 	/*-----------------------------------------------------------*/
 148:Middlewares/Third_Party/FreeRTOS/Source/portable/GCC/ARM_CM3/portmacro.h **** 
 149:Middlewares/Third_Party/FreeRTOS/Source/portable/GCC/ARM_CM3/portmacro.h **** 	#define portGET_HIGHEST_PRIORITY( uxTopPriority, uxReadyPriorities ) uxTopPriority = ( 31UL - ( ui
 150:Middlewares/Third_Party/FreeRTOS/Source/portable/GCC/ARM_CM3/portmacro.h **** 
 151:Middlewares/Third_Party/FreeRTOS/Source/portable/GCC/ARM_CM3/portmacro.h **** #endif /* configUSE_PORT_OPTIMISED_TASK_SELECTION */
 152:Middlewares/Third_Party/FreeRTOS/Source/portable/GCC/ARM_CM3/portmacro.h **** 
 153:Middlewares/Third_Party/FreeRTOS/Source/portable/GCC/ARM_CM3/portmacro.h **** /*-----------------------------------------------------------*/
ARM GAS  /tmp/cce47g5y.s 			page 43


 154:Middlewares/Third_Party/FreeRTOS/Source/portable/GCC/ARM_CM3/portmacro.h **** 
 155:Middlewares/Third_Party/FreeRTOS/Source/portable/GCC/ARM_CM3/portmacro.h **** #ifdef configASSERT
 156:Middlewares/Third_Party/FreeRTOS/Source/portable/GCC/ARM_CM3/portmacro.h **** 	void vPortValidateInterruptPriority( void );
 157:Middlewares/Third_Party/FreeRTOS/Source/portable/GCC/ARM_CM3/portmacro.h **** 	#define portASSERT_IF_INTERRUPT_PRIORITY_INVALID() 	vPortValidateInterruptPriority()
 158:Middlewares/Third_Party/FreeRTOS/Source/portable/GCC/ARM_CM3/portmacro.h **** #endif
 159:Middlewares/Third_Party/FreeRTOS/Source/portable/GCC/ARM_CM3/portmacro.h **** 
 160:Middlewares/Third_Party/FreeRTOS/Source/portable/GCC/ARM_CM3/portmacro.h **** /* portNOP() is not required by this port. */
 161:Middlewares/Third_Party/FreeRTOS/Source/portable/GCC/ARM_CM3/portmacro.h **** #define portNOP()
 162:Middlewares/Third_Party/FreeRTOS/Source/portable/GCC/ARM_CM3/portmacro.h **** 
 163:Middlewares/Third_Party/FreeRTOS/Source/portable/GCC/ARM_CM3/portmacro.h **** #define portINLINE	__inline
 164:Middlewares/Third_Party/FreeRTOS/Source/portable/GCC/ARM_CM3/portmacro.h **** 
 165:Middlewares/Third_Party/FreeRTOS/Source/portable/GCC/ARM_CM3/portmacro.h **** #ifndef portFORCE_INLINE
 166:Middlewares/Third_Party/FreeRTOS/Source/portable/GCC/ARM_CM3/portmacro.h **** 	#define portFORCE_INLINE inline __attribute__(( always_inline))
 167:Middlewares/Third_Party/FreeRTOS/Source/portable/GCC/ARM_CM3/portmacro.h **** #endif
 168:Middlewares/Third_Party/FreeRTOS/Source/portable/GCC/ARM_CM3/portmacro.h **** 
 169:Middlewares/Third_Party/FreeRTOS/Source/portable/GCC/ARM_CM3/portmacro.h **** portFORCE_INLINE static BaseType_t xPortIsInsideInterrupt( void )
 170:Middlewares/Third_Party/FreeRTOS/Source/portable/GCC/ARM_CM3/portmacro.h **** {
 171:Middlewares/Third_Party/FreeRTOS/Source/portable/GCC/ARM_CM3/portmacro.h **** uint32_t ulCurrentInterrupt;
 172:Middlewares/Third_Party/FreeRTOS/Source/portable/GCC/ARM_CM3/portmacro.h **** BaseType_t xReturn;
 173:Middlewares/Third_Party/FreeRTOS/Source/portable/GCC/ARM_CM3/portmacro.h **** 
 174:Middlewares/Third_Party/FreeRTOS/Source/portable/GCC/ARM_CM3/portmacro.h **** 	/* Obtain the number of the currently executing interrupt. */
 175:Middlewares/Third_Party/FreeRTOS/Source/portable/GCC/ARM_CM3/portmacro.h **** 	__asm volatile( "mrs %0, ipsr" : "=r"( ulCurrentInterrupt ) :: "memory" );
 176:Middlewares/Third_Party/FreeRTOS/Source/portable/GCC/ARM_CM3/portmacro.h **** 
 177:Middlewares/Third_Party/FreeRTOS/Source/portable/GCC/ARM_CM3/portmacro.h **** 	if( ulCurrentInterrupt == 0 )
 178:Middlewares/Third_Party/FreeRTOS/Source/portable/GCC/ARM_CM3/portmacro.h **** 	{
 179:Middlewares/Third_Party/FreeRTOS/Source/portable/GCC/ARM_CM3/portmacro.h **** 		xReturn = pdFALSE;
 180:Middlewares/Third_Party/FreeRTOS/Source/portable/GCC/ARM_CM3/portmacro.h **** 	}
 181:Middlewares/Third_Party/FreeRTOS/Source/portable/GCC/ARM_CM3/portmacro.h **** 	else
 182:Middlewares/Third_Party/FreeRTOS/Source/portable/GCC/ARM_CM3/portmacro.h **** 	{
 183:Middlewares/Third_Party/FreeRTOS/Source/portable/GCC/ARM_CM3/portmacro.h **** 		xReturn = pdTRUE;
 184:Middlewares/Third_Party/FreeRTOS/Source/portable/GCC/ARM_CM3/portmacro.h **** 	}
 185:Middlewares/Third_Party/FreeRTOS/Source/portable/GCC/ARM_CM3/portmacro.h **** 
 186:Middlewares/Third_Party/FreeRTOS/Source/portable/GCC/ARM_CM3/portmacro.h **** 	return xReturn;
 187:Middlewares/Third_Party/FreeRTOS/Source/portable/GCC/ARM_CM3/portmacro.h **** }
 188:Middlewares/Third_Party/FreeRTOS/Source/portable/GCC/ARM_CM3/portmacro.h **** 
 189:Middlewares/Third_Party/FreeRTOS/Source/portable/GCC/ARM_CM3/portmacro.h **** /*-----------------------------------------------------------*/
 190:Middlewares/Third_Party/FreeRTOS/Source/portable/GCC/ARM_CM3/portmacro.h **** 
 191:Middlewares/Third_Party/FreeRTOS/Source/portable/GCC/ARM_CM3/portmacro.h **** portFORCE_INLINE static void vPortRaiseBASEPRI( void )
 192:Middlewares/Third_Party/FreeRTOS/Source/portable/GCC/ARM_CM3/portmacro.h **** {
 193:Middlewares/Third_Party/FreeRTOS/Source/portable/GCC/ARM_CM3/portmacro.h **** uint32_t ulNewBASEPRI;
 194:Middlewares/Third_Party/FreeRTOS/Source/portable/GCC/ARM_CM3/portmacro.h **** 
 195:Middlewares/Third_Party/FreeRTOS/Source/portable/GCC/ARM_CM3/portmacro.h **** 	__asm volatile
 857              		.loc 3 195 0
 858              		.syntax unified
 859              	@ 195 "Middlewares/Third_Party/FreeRTOS/Source/portable/GCC/ARM_CM3/portmacro.h" 1
 860 0002 4FF05003 			mov r3, #80												
 861 0006 83F31188 		msr basepri, r3											
 862 000a BFF36F8F 		isb														
 863 000e BFF34F8F 		dsb														
 864              	
 865              	@ 0 "" 2
 866              		.thumb
 867              		.syntax unified
 868              	.LBE371:
 869              	.LBE370:
 334:Middlewares/Third_Party/FreeRTOS/Source/CMSIS_RTOS_V2/cmsis_os2.c **** 
 870              		.loc 1 334 0
ARM GAS  /tmp/cce47g5y.s 			page 44


 871 0012 FFF7FEFF 		bl	xTaskGetTickCount
 872              	.LVL49:
 336:Middlewares/Third_Party/FreeRTOS/Source/CMSIS_RTOS_V2/cmsis_os2.c ****   portENABLE_INTERRUPTS();
 873              		.loc 1 336 0
 874 0016 064B     		ldr	r3, .L103
 875 0018 1B68     		ldr	r3, [r3]
 876 001a 064A     		ldr	r2, .L103+4
 877 001c A2FB0323 		umull	r2, r3, r2, r3
 878 0020 9B09     		lsrs	r3, r3, #6
 879 0022 03FB00F0 		mul	r0, r3, r0
 880              	.LVL50:
 881              	.LBB372:
 882              	.LBB373:
 196:Middlewares/Third_Party/FreeRTOS/Source/portable/GCC/ARM_CM3/portmacro.h **** 	(
 197:Middlewares/Third_Party/FreeRTOS/Source/portable/GCC/ARM_CM3/portmacro.h **** 		"	mov %0, %1												\n" \
 198:Middlewares/Third_Party/FreeRTOS/Source/portable/GCC/ARM_CM3/portmacro.h **** 		"	msr basepri, %0											\n" \
 199:Middlewares/Third_Party/FreeRTOS/Source/portable/GCC/ARM_CM3/portmacro.h **** 		"	isb														\n" \
 200:Middlewares/Third_Party/FreeRTOS/Source/portable/GCC/ARM_CM3/portmacro.h **** 		"	dsb														\n" \
 201:Middlewares/Third_Party/FreeRTOS/Source/portable/GCC/ARM_CM3/portmacro.h **** 		:"=r" (ulNewBASEPRI) : "i" ( configMAX_SYSCALL_INTERRUPT_PRIORITY ) : "memory"
 202:Middlewares/Third_Party/FreeRTOS/Source/portable/GCC/ARM_CM3/portmacro.h **** 	);
 203:Middlewares/Third_Party/FreeRTOS/Source/portable/GCC/ARM_CM3/portmacro.h **** }
 204:Middlewares/Third_Party/FreeRTOS/Source/portable/GCC/ARM_CM3/portmacro.h **** 
 205:Middlewares/Third_Party/FreeRTOS/Source/portable/GCC/ARM_CM3/portmacro.h **** /*-----------------------------------------------------------*/
 206:Middlewares/Third_Party/FreeRTOS/Source/portable/GCC/ARM_CM3/portmacro.h **** 
 207:Middlewares/Third_Party/FreeRTOS/Source/portable/GCC/ARM_CM3/portmacro.h **** portFORCE_INLINE static uint32_t ulPortRaiseBASEPRI( void )
 208:Middlewares/Third_Party/FreeRTOS/Source/portable/GCC/ARM_CM3/portmacro.h **** {
 209:Middlewares/Third_Party/FreeRTOS/Source/portable/GCC/ARM_CM3/portmacro.h **** uint32_t ulOriginalBASEPRI, ulNewBASEPRI;
 210:Middlewares/Third_Party/FreeRTOS/Source/portable/GCC/ARM_CM3/portmacro.h **** 
 211:Middlewares/Third_Party/FreeRTOS/Source/portable/GCC/ARM_CM3/portmacro.h **** 	__asm volatile
 212:Middlewares/Third_Party/FreeRTOS/Source/portable/GCC/ARM_CM3/portmacro.h **** 	(
 213:Middlewares/Third_Party/FreeRTOS/Source/portable/GCC/ARM_CM3/portmacro.h **** 		"	mrs %0, basepri											\n" \
 214:Middlewares/Third_Party/FreeRTOS/Source/portable/GCC/ARM_CM3/portmacro.h **** 		"	mov %1, %2												\n" \
 215:Middlewares/Third_Party/FreeRTOS/Source/portable/GCC/ARM_CM3/portmacro.h **** 		"	msr basepri, %1											\n" \
 216:Middlewares/Third_Party/FreeRTOS/Source/portable/GCC/ARM_CM3/portmacro.h **** 		"	isb														\n" \
 217:Middlewares/Third_Party/FreeRTOS/Source/portable/GCC/ARM_CM3/portmacro.h **** 		"	dsb														\n" \
 218:Middlewares/Third_Party/FreeRTOS/Source/portable/GCC/ARM_CM3/portmacro.h **** 		:"=r" (ulOriginalBASEPRI), "=r" (ulNewBASEPRI) : "i" ( configMAX_SYSCALL_INTERRUPT_PRIORITY ) : "
 219:Middlewares/Third_Party/FreeRTOS/Source/portable/GCC/ARM_CM3/portmacro.h **** 	);
 220:Middlewares/Third_Party/FreeRTOS/Source/portable/GCC/ARM_CM3/portmacro.h **** 
 221:Middlewares/Third_Party/FreeRTOS/Source/portable/GCC/ARM_CM3/portmacro.h **** 	/* This return will not be reached but is necessary to prevent compiler
 222:Middlewares/Third_Party/FreeRTOS/Source/portable/GCC/ARM_CM3/portmacro.h **** 	warnings. */
 223:Middlewares/Third_Party/FreeRTOS/Source/portable/GCC/ARM_CM3/portmacro.h **** 	return ulOriginalBASEPRI;
 224:Middlewares/Third_Party/FreeRTOS/Source/portable/GCC/ARM_CM3/portmacro.h **** }
 225:Middlewares/Third_Party/FreeRTOS/Source/portable/GCC/ARM_CM3/portmacro.h **** /*-----------------------------------------------------------*/
 226:Middlewares/Third_Party/FreeRTOS/Source/portable/GCC/ARM_CM3/portmacro.h **** 
 227:Middlewares/Third_Party/FreeRTOS/Source/portable/GCC/ARM_CM3/portmacro.h **** portFORCE_INLINE static void vPortSetBASEPRI( uint32_t ulNewMaskValue )
 228:Middlewares/Third_Party/FreeRTOS/Source/portable/GCC/ARM_CM3/portmacro.h **** {
 229:Middlewares/Third_Party/FreeRTOS/Source/portable/GCC/ARM_CM3/portmacro.h **** 	__asm volatile
 883              		.loc 3 229 0
 884 0026 0023     		movs	r3, #0
 885              		.syntax unified
 886              	@ 229 "Middlewares/Third_Party/FreeRTOS/Source/portable/GCC/ARM_CM3/portmacro.h" 1
 887 0028 83F31188 			msr basepri, r3	
 888              	@ 0 "" 2
 889              	.LVL51:
 890              		.thumb
 891              		.syntax unified
 892              	.LBE373:
ARM GAS  /tmp/cce47g5y.s 			page 45


 893              	.LBE372:
 340:Middlewares/Third_Party/FreeRTOS/Source/CMSIS_RTOS_V2/cmsis_os2.c **** 
 894              		.loc 1 340 0
 895 002c 08BD     		pop	{r3, pc}
 896              	.L104:
 897 002e 00BF     		.align	2
 898              	.L103:
 899 0030 00000000 		.word	SystemCoreClock
 900 0034 D34D6210 		.word	274877907
 901              		.cfi_endproc
 902              	.LFE57:
 904              		.section	.text.osKernelGetSysTimerFreq,"ax",%progbits
 905              		.align	1
 906              		.global	osKernelGetSysTimerFreq
 907              		.syntax unified
 908              		.thumb
 909              		.thumb_func
 910              		.fpu softvfp
 912              	osKernelGetSysTimerFreq:
 913              	.LFB58:
 342:Middlewares/Third_Party/FreeRTOS/Source/CMSIS_RTOS_V2/cmsis_os2.c ****   return (configCPU_CLOCK_HZ);
 914              		.loc 1 342 0
 915              		.cfi_startproc
 916              		@ args = 0, pretend = 0, frame = 0
 917              		@ frame_needed = 0, uses_anonymous_args = 0
 918              		@ link register save eliminated.
 344:Middlewares/Third_Party/FreeRTOS/Source/CMSIS_RTOS_V2/cmsis_os2.c **** 
 919              		.loc 1 344 0
 920 0000 014B     		ldr	r3, .L106
 921 0002 1868     		ldr	r0, [r3]
 922 0004 7047     		bx	lr
 923              	.L107:
 924 0006 00BF     		.align	2
 925              	.L106:
 926 0008 00000000 		.word	SystemCoreClock
 927              		.cfi_endproc
 928              	.LFE58:
 930              		.section	.text.osThreadNew,"ax",%progbits
 931              		.align	1
 932              		.global	osThreadNew
 933              		.syntax unified
 934              		.thumb
 935              		.thumb_func
 936              		.fpu softvfp
 938              	osThreadNew:
 939              	.LFB59:
 348:Middlewares/Third_Party/FreeRTOS/Source/CMSIS_RTOS_V2/cmsis_os2.c ****   char empty;
 940              		.loc 1 348 0
 941              		.cfi_startproc
 942              		@ args = 0, pretend = 0, frame = 8
 943              		@ frame_needed = 0, uses_anonymous_args = 0
 944              	.LVL52:
 945 0000 F0B5     		push	{r4, r5, r6, r7, lr}
 946              	.LCFI9:
 947              		.cfi_def_cfa_offset 20
 948              		.cfi_offset 4, -20
 949              		.cfi_offset 5, -16
ARM GAS  /tmp/cce47g5y.s 			page 46


 950              		.cfi_offset 6, -12
 951              		.cfi_offset 7, -8
 952              		.cfi_offset 14, -4
 953 0002 87B0     		sub	sp, sp, #28
 954              	.LCFI10:
 955              		.cfi_def_cfa_offset 48
 356:Middlewares/Third_Party/FreeRTOS/Source/CMSIS_RTOS_V2/cmsis_os2.c **** 
 956              		.loc 1 356 0
 957 0004 0024     		movs	r4, #0
 958 0006 0494     		str	r4, [sp, #16]
 959              	.LBB374:
 960              	.LBB375:
 209:Drivers/CMSIS/Include/cmsis_gcc.h ****   return(result);
 961              		.loc 2 209 0
 962              		.syntax unified
 963              	@ 209 "Drivers/CMSIS/Include/cmsis_gcc.h" 1
 964 0008 EFF30584 		MRS r4, ipsr
 965              	@ 0 "" 2
 966              		.thumb
 967              		.syntax unified
 968              	.LBE375:
 969              	.LBE374:
 358:Middlewares/Third_Party/FreeRTOS/Source/CMSIS_RTOS_V2/cmsis_os2.c ****     stack = configMINIMAL_STACK_SIZE;
 970              		.loc 1 358 0
 971 000c 54BB     		cbnz	r4, .L109
 972              	.LBB376:
 973              	.LBB377:
 386:Drivers/CMSIS/Include/cmsis_gcc.h ****   return(result);
 974              		.loc 2 386 0
 975              		.syntax unified
 976              	@ 386 "Drivers/CMSIS/Include/cmsis_gcc.h" 1
 977 000e EFF31083 		MRS r3, primask
 978              	@ 0 "" 2
 979              		.thumb
 980              		.syntax unified
 981              	.LBE377:
 982              	.LBE376:
 358:Middlewares/Third_Party/FreeRTOS/Source/CMSIS_RTOS_V2/cmsis_os2.c ****     stack = configMINIMAL_STACK_SIZE;
 983              		.loc 1 358 0
 984 0012 3BBB     		cbnz	r3, .L109
 358:Middlewares/Third_Party/FreeRTOS/Source/CMSIS_RTOS_V2/cmsis_os2.c ****     stack = configMINIMAL_STACK_SIZE;
 985              		.loc 1 358 0 is_stmt 0 discriminator 2
 986 0014 344B     		ldr	r3, .L133
 987 0016 1B68     		ldr	r3, [r3]
 988 0018 022B     		cmp	r3, #2
 989 001a 26D0     		beq	.L128
 990              	.L110:
 358:Middlewares/Third_Party/FreeRTOS/Source/CMSIS_RTOS_V2/cmsis_os2.c ****     stack = configMINIMAL_STACK_SIZE;
 991              		.loc 1 358 0 discriminator 5
 992 001c 10B3     		cbz	r0, .L109
 993              	.LVL53:
 362:Middlewares/Third_Party/FreeRTOS/Source/CMSIS_RTOS_V2/cmsis_os2.c ****     name  = &empty;
 994              		.loc 1 362 0 is_stmt 1
 995 001e 0023     		movs	r3, #0
 996 0020 8DF81730 		strb	r3, [sp, #23]
 997              	.LVL54:
 366:Middlewares/Third_Party/FreeRTOS/Source/CMSIS_RTOS_V2/cmsis_os2.c ****       if (attr->name != NULL) {
ARM GAS  /tmp/cce47g5y.s 			page 47


 998              		.loc 1 366 0
 999 0024 002A     		cmp	r2, #0
 1000 0026 32D0     		beq	.L118
 367:Middlewares/Third_Party/FreeRTOS/Source/CMSIS_RTOS_V2/cmsis_os2.c ****         name = attr->name;
 1001              		.loc 1 367 0
 1002 0028 1668     		ldr	r6, [r2]
 1003 002a 1EB3     		cbz	r6, .L129
 1004              	.L112:
 1005              	.LVL55:
 370:Middlewares/Third_Party/FreeRTOS/Source/CMSIS_RTOS_V2/cmsis_os2.c ****         prio = (UBaseType_t)attr->priority;
 1006              		.loc 1 370 0
 1007 002c 9469     		ldr	r4, [r2, #24]
 1008 002e 04B9     		cbnz	r4, .L113
 360:Middlewares/Third_Party/FreeRTOS/Source/CMSIS_RTOS_V2/cmsis_os2.c **** 
 1009              		.loc 1 360 0
 1010 0030 1824     		movs	r4, #24
 1011              	.L113:
 1012              	.LVL56:
 374:Middlewares/Third_Party/FreeRTOS/Source/CMSIS_RTOS_V2/cmsis_os2.c ****         return (NULL);
 1013              		.loc 1 374 0
 1014 0032 631E     		subs	r3, r4, #1
 1015 0034 372B     		cmp	r3, #55
 1016 0036 52D8     		bhi	.L120
 374:Middlewares/Third_Party/FreeRTOS/Source/CMSIS_RTOS_V2/cmsis_os2.c ****         return (NULL);
 1017              		.loc 1 374 0 is_stmt 0 discriminator 1
 1018 0038 5368     		ldr	r3, [r2, #4]
 1019 003a 13F0010F 		tst	r3, #1
 1020 003e 50D1     		bne	.L121
 378:Middlewares/Third_Party/FreeRTOS/Source/CMSIS_RTOS_V2/cmsis_os2.c ****         /* In FreeRTOS stack is not in bytes, but in sizeof(StackType_t) which is 4 on ARM ports.  
 1021              		.loc 1 378 0 is_stmt 1
 1022 0040 5369     		ldr	r3, [r2, #20]
 1023 0042 D3B1     		cbz	r3, .L122
 381:Middlewares/Third_Party/FreeRTOS/Source/CMSIS_RTOS_V2/cmsis_os2.c ****       }
 1024              		.loc 1 381 0
 1025 0044 4FEA930E 		lsr	lr, r3, #2
 1026              	.LVL57:
 1027              	.L115:
 384:Middlewares/Third_Party/FreeRTOS/Source/CMSIS_RTOS_V2/cmsis_os2.c ****           (attr->stack_mem != NULL) && (attr->stack_size >  0U)) {
 1028              		.loc 1 384 0
 1029 0048 9568     		ldr	r5, [r2, #8]
 1030 004a 2DB1     		cbz	r5, .L116
 384:Middlewares/Third_Party/FreeRTOS/Source/CMSIS_RTOS_V2/cmsis_os2.c ****           (attr->stack_mem != NULL) && (attr->stack_size >  0U)) {
 1031              		.loc 1 384 0 is_stmt 0 discriminator 1
 1032 004c D768     		ldr	r7, [r2, #12]
 1033 004e 5B2F     		cmp	r7, #91
 1034 0050 02D9     		bls	.L116
 384:Middlewares/Third_Party/FreeRTOS/Source/CMSIS_RTOS_V2/cmsis_os2.c ****           (attr->stack_mem != NULL) && (attr->stack_size >  0U)) {
 1035              		.loc 1 384 0 discriminator 2
 1036 0052 1769     		ldr	r7, [r2, #16]
 1037 0054 07B1     		cbz	r7, .L116
 385:Middlewares/Third_Party/FreeRTOS/Source/CMSIS_RTOS_V2/cmsis_os2.c ****         mem = 1;
 1038              		.loc 1 385 0 is_stmt 1
 1039 0056 0BBB     		cbnz	r3, .L123
 1040              	.L116:
 389:Middlewares/Third_Party/FreeRTOS/Source/CMSIS_RTOS_V2/cmsis_os2.c ****           mem = 0;
 1041              		.loc 1 389 0
 1042 0058 95B1     		cbz	r5, .L130
ARM GAS  /tmp/cce47g5y.s 			page 48


 364:Middlewares/Third_Party/FreeRTOS/Source/CMSIS_RTOS_V2/cmsis_os2.c **** 
 1043              		.loc 1 364 0
 1044 005a 4FF0FF35 		mov	r5, #-1
 1045              	.LVL58:
 1046              	.L111:
 398:Middlewares/Third_Party/FreeRTOS/Source/CMSIS_RTOS_V2/cmsis_os2.c ****       hTask = xTaskCreateStatic ((TaskFunction_t)func, name, stack, argument, prio, (StackType_t  *
 1047              		.loc 1 398 0
 1048 005e 012D     		cmp	r5, #1
 1049 0060 23D0     		beq	.L131
 403:Middlewares/Third_Party/FreeRTOS/Source/CMSIS_RTOS_V2/cmsis_os2.c ****         if (xTaskCreate ((TaskFunction_t)func, name, (uint16_t)stack, argument, prio, &hTask) != pd
 1050              		.loc 1 403 0
 1051 0062 75B3     		cbz	r5, .L132
 1052              	.LVL59:
 1053              	.L109:
 411:Middlewares/Third_Party/FreeRTOS/Source/CMSIS_RTOS_V2/cmsis_os2.c **** }
 1054              		.loc 1 411 0
 1055 0064 0498     		ldr	r0, [sp, #16]
 1056              	.L108:
 412:Middlewares/Third_Party/FreeRTOS/Source/CMSIS_RTOS_V2/cmsis_os2.c **** 
 1057              		.loc 1 412 0
 1058 0066 07B0     		add	sp, sp, #28
 1059              	.LCFI11:
 1060              		.cfi_remember_state
 1061              		.cfi_def_cfa_offset 20
 1062              		@ sp needed
 1063 0068 F0BD     		pop	{r4, r5, r6, r7, pc}
 1064              	.LVL60:
 1065              	.L128:
 1066              	.LCFI12:
 1067              		.cfi_restore_state
 1068              	.LBB378:
 1069              	.LBB379:
 1070              		.loc 2 465 0
 1071              		.syntax unified
 1072              	@ 465 "Drivers/CMSIS/Include/cmsis_gcc.h" 1
 1073 006a EFF31183 		MRS r3, basepri
 1074              	@ 0 "" 2
 1075              		.thumb
 1076              		.syntax unified
 1077              	.LBE379:
 1078              	.LBE378:
 358:Middlewares/Third_Party/FreeRTOS/Source/CMSIS_RTOS_V2/cmsis_os2.c ****     stack = configMINIMAL_STACK_SIZE;
 1079              		.loc 1 358 0
 1080 006e 002B     		cmp	r3, #0
 1081 0070 F8D1     		bne	.L109
 1082 0072 D3E7     		b	.L110
 1083              	.LVL61:
 1084              	.L129:
 363:Middlewares/Third_Party/FreeRTOS/Source/CMSIS_RTOS_V2/cmsis_os2.c ****     mem   = -1;
 1085              		.loc 1 363 0
 1086 0074 0DF11706 		add	r6, sp, #23
 1087              	.LVL62:
 1088 0078 D8E7     		b	.L112
 1089              	.LVL63:
 1090              	.L122:
 359:Middlewares/Third_Party/FreeRTOS/Source/CMSIS_RTOS_V2/cmsis_os2.c ****     prio  = (UBaseType_t)osPriorityNormal;
 1091              		.loc 1 359 0
ARM GAS  /tmp/cce47g5y.s 			page 49


 1092 007a 4FF0800E 		mov	lr, #128
 1093 007e E3E7     		b	.L115
 1094              	.LVL64:
 1095              	.L130:
 389:Middlewares/Third_Party/FreeRTOS/Source/CMSIS_RTOS_V2/cmsis_os2.c ****           mem = 0;
 1096              		.loc 1 389 0 discriminator 1
 1097 0080 D368     		ldr	r3, [r2, #12]
 1098 0082 6BB9     		cbnz	r3, .L125
 389:Middlewares/Third_Party/FreeRTOS/Source/CMSIS_RTOS_V2/cmsis_os2.c ****           mem = 0;
 1099              		.loc 1 389 0 is_stmt 0 discriminator 2
 1100 0084 1369     		ldr	r3, [r2, #16]
 1101 0086 73B1     		cbz	r3, .L126
 364:Middlewares/Third_Party/FreeRTOS/Source/CMSIS_RTOS_V2/cmsis_os2.c **** 
 1102              		.loc 1 364 0 is_stmt 1
 1103 0088 4FF0FF35 		mov	r5, #-1
 1104 008c E7E7     		b	.L111
 1105              	.LVL65:
 1106              	.L118:
 395:Middlewares/Third_Party/FreeRTOS/Source/CMSIS_RTOS_V2/cmsis_os2.c ****     }
 1107              		.loc 1 395 0
 1108 008e 0025     		movs	r5, #0
 360:Middlewares/Third_Party/FreeRTOS/Source/CMSIS_RTOS_V2/cmsis_os2.c **** 
 1109              		.loc 1 360 0
 1110 0090 1824     		movs	r4, #24
 359:Middlewares/Third_Party/FreeRTOS/Source/CMSIS_RTOS_V2/cmsis_os2.c ****     prio  = (UBaseType_t)osPriorityNormal;
 1111              		.loc 1 359 0
 1112 0092 4FF0800E 		mov	lr, #128
 363:Middlewares/Third_Party/FreeRTOS/Source/CMSIS_RTOS_V2/cmsis_os2.c ****     mem   = -1;
 1113              		.loc 1 363 0
 1114 0096 0DF11706 		add	r6, sp, #23
 1115              	.LVL66:
 1116 009a E0E7     		b	.L111
 1117              	.LVL67:
 1118              	.L123:
 386:Middlewares/Third_Party/FreeRTOS/Source/CMSIS_RTOS_V2/cmsis_os2.c ****       }
 1119              		.loc 1 386 0
 1120 009c 0125     		movs	r5, #1
 1121 009e DEE7     		b	.L111
 1122              	.L125:
 364:Middlewares/Third_Party/FreeRTOS/Source/CMSIS_RTOS_V2/cmsis_os2.c **** 
 1123              		.loc 1 364 0
 1124 00a0 4FF0FF35 		mov	r5, #-1
 1125 00a4 DBE7     		b	.L111
 1126              	.L126:
 390:Middlewares/Third_Party/FreeRTOS/Source/CMSIS_RTOS_V2/cmsis_os2.c ****         }
 1127              		.loc 1 390 0
 1128 00a6 0025     		movs	r5, #0
 1129 00a8 D9E7     		b	.L111
 1130              	.LVL68:
 1131              	.L131:
 399:Middlewares/Third_Party/FreeRTOS/Source/CMSIS_RTOS_V2/cmsis_os2.c ****                                                                                     (StaticTask_t *
 1132              		.loc 1 399 0
 1133 00aa 1369     		ldr	r3, [r2, #16]
 400:Middlewares/Third_Party/FreeRTOS/Source/CMSIS_RTOS_V2/cmsis_os2.c ****     }
 1134              		.loc 1 400 0
 1135 00ac 9268     		ldr	r2, [r2, #8]
 1136              	.LVL69:
ARM GAS  /tmp/cce47g5y.s 			page 50


 399:Middlewares/Third_Party/FreeRTOS/Source/CMSIS_RTOS_V2/cmsis_os2.c ****                                                                                     (StaticTask_t *
 1137              		.loc 1 399 0
 1138 00ae 0292     		str	r2, [sp, #8]
 1139 00b0 0193     		str	r3, [sp, #4]
 1140 00b2 0094     		str	r4, [sp]
 1141 00b4 0B46     		mov	r3, r1
 1142 00b6 7246     		mov	r2, lr
 1143 00b8 3146     		mov	r1, r6
 1144              	.LVL70:
 1145 00ba FFF7FEFF 		bl	xTaskCreateStatic
 1146              	.LVL71:
 1147 00be 0490     		str	r0, [sp, #16]
 1148 00c0 D0E7     		b	.L109
 1149              	.LVL72:
 1150              	.L132:
 404:Middlewares/Third_Party/FreeRTOS/Source/CMSIS_RTOS_V2/cmsis_os2.c ****           hTask = NULL;
 1151              		.loc 1 404 0
 1152 00c2 04AA     		add	r2, sp, #16
 1153              	.LVL73:
 1154 00c4 0192     		str	r2, [sp, #4]
 1155 00c6 0094     		str	r4, [sp]
 1156 00c8 0B46     		mov	r3, r1
 1157 00ca 1FFA8EF2 		uxth	r2, lr
 1158 00ce 3146     		mov	r1, r6
 1159              	.LVL74:
 1160 00d0 FFF7FEFF 		bl	xTaskCreate
 1161              	.LVL75:
 1162 00d4 0128     		cmp	r0, #1
 1163 00d6 C5D0     		beq	.L109
 405:Middlewares/Third_Party/FreeRTOS/Source/CMSIS_RTOS_V2/cmsis_os2.c ****         }
 1164              		.loc 1 405 0
 1165 00d8 0023     		movs	r3, #0
 1166 00da 0493     		str	r3, [sp, #16]
 1167 00dc C2E7     		b	.L109
 1168              	.LVL76:
 1169              	.L120:
 375:Middlewares/Third_Party/FreeRTOS/Source/CMSIS_RTOS_V2/cmsis_os2.c ****       }
 1170              		.loc 1 375 0
 1171 00de 0020     		movs	r0, #0
 1172              	.LVL77:
 1173 00e0 C1E7     		b	.L108
 1174              	.LVL78:
 1175              	.L121:
 1176 00e2 0020     		movs	r0, #0
 1177              	.LVL79:
 1178 00e4 BFE7     		b	.L108
 1179              	.L134:
 1180 00e6 00BF     		.align	2
 1181              	.L133:
 1182 00e8 00000000 		.word	.LANCHOR0
 1183              		.cfi_endproc
 1184              	.LFE59:
 1186              		.section	.text.osThreadGetName,"ax",%progbits
 1187              		.align	1
 1188              		.global	osThreadGetName
 1189              		.syntax unified
 1190              		.thumb
ARM GAS  /tmp/cce47g5y.s 			page 51


 1191              		.thumb_func
 1192              		.fpu softvfp
 1194              	osThreadGetName:
 1195              	.LFB60:
 414:Middlewares/Third_Party/FreeRTOS/Source/CMSIS_RTOS_V2/cmsis_os2.c ****   TaskHandle_t hTask = (TaskHandle_t)thread_id;
 1196              		.loc 1 414 0
 1197              		.cfi_startproc
 1198              		@ args = 0, pretend = 0, frame = 0
 1199              		@ frame_needed = 0, uses_anonymous_args = 0
 1200              	.LVL80:
 1201 0000 08B5     		push	{r3, lr}
 1202              	.LCFI13:
 1203              		.cfi_def_cfa_offset 8
 1204              		.cfi_offset 3, -8
 1205              		.cfi_offset 14, -4
 1206              	.LVL81:
 1207              	.LBB380:
 1208              	.LBB381:
 209:Drivers/CMSIS/Include/cmsis_gcc.h ****   return(result);
 1209              		.loc 2 209 0
 1210              		.syntax unified
 1211              	@ 209 "Drivers/CMSIS/Include/cmsis_gcc.h" 1
 1212 0002 EFF30583 		MRS r3, ipsr
 1213              	@ 0 "" 2
 1214              		.thumb
 1215              		.syntax unified
 1216              	.LBE381:
 1217              	.LBE380:
 418:Middlewares/Third_Party/FreeRTOS/Source/CMSIS_RTOS_V2/cmsis_os2.c ****     name = NULL;
 1218              		.loc 1 418 0
 1219 0006 83B9     		cbnz	r3, .L138
 1220              	.LBB382:
 1221              	.LBB383:
 386:Drivers/CMSIS/Include/cmsis_gcc.h ****   return(result);
 1222              		.loc 2 386 0
 1223              		.syntax unified
 1224              	@ 386 "Drivers/CMSIS/Include/cmsis_gcc.h" 1
 1225 0008 EFF31083 		MRS r3, primask
 1226              	@ 0 "" 2
 1227              		.thumb
 1228              		.syntax unified
 1229              	.LBE383:
 1230              	.LBE382:
 418:Middlewares/Third_Party/FreeRTOS/Source/CMSIS_RTOS_V2/cmsis_os2.c ****     name = NULL;
 1231              		.loc 1 418 0
 1232 000c 7BB9     		cbnz	r3, .L139
 418:Middlewares/Third_Party/FreeRTOS/Source/CMSIS_RTOS_V2/cmsis_os2.c ****     name = NULL;
 1233              		.loc 1 418 0 is_stmt 0 discriminator 2
 1234 000e 0A4B     		ldr	r3, .L144
 1235 0010 1B68     		ldr	r3, [r3]
 1236 0012 022B     		cmp	r3, #2
 1237 0014 03D0     		beq	.L143
 1238              	.L137:
 418:Middlewares/Third_Party/FreeRTOS/Source/CMSIS_RTOS_V2/cmsis_os2.c ****     name = NULL;
 1239              		.loc 1 418 0 discriminator 5
 1240 0016 60B1     		cbz	r0, .L141
 421:Middlewares/Third_Party/FreeRTOS/Source/CMSIS_RTOS_V2/cmsis_os2.c ****   }
ARM GAS  /tmp/cce47g5y.s 			page 52


 1241              		.loc 1 421 0 is_stmt 1
 1242 0018 FFF7FEFF 		bl	pcTaskGetName
 1243              	.LVL82:
 1244 001c 08BD     		pop	{r3, pc}
 1245              	.LVL83:
 1246              	.L143:
 1247              	.LBB384:
 1248              	.LBB385:
 1249              		.loc 2 465 0
 1250              		.syntax unified
 1251              	@ 465 "Drivers/CMSIS/Include/cmsis_gcc.h" 1
 1252 001e EFF31183 		MRS r3, basepri
 1253              	@ 0 "" 2
 1254              		.thumb
 1255              		.syntax unified
 1256              	.LBE385:
 1257              	.LBE384:
 418:Middlewares/Third_Party/FreeRTOS/Source/CMSIS_RTOS_V2/cmsis_os2.c ****     name = NULL;
 1258              		.loc 1 418 0
 1259 0022 002B     		cmp	r3, #0
 1260 0024 F7D0     		beq	.L137
 419:Middlewares/Third_Party/FreeRTOS/Source/CMSIS_RTOS_V2/cmsis_os2.c ****   } else {
 1261              		.loc 1 419 0
 1262 0026 0020     		movs	r0, #0
 1263              	.LVL84:
 1264 0028 08BD     		pop	{r3, pc}
 1265              	.LVL85:
 1266              	.L138:
 1267 002a 0020     		movs	r0, #0
 1268              	.LVL86:
 1269 002c 08BD     		pop	{r3, pc}
 1270              	.LVL87:
 1271              	.L139:
 1272 002e 0020     		movs	r0, #0
 1273              	.LVL88:
 1274 0030 08BD     		pop	{r3, pc}
 1275              	.LVL89:
 1276              	.L141:
 1277 0032 0020     		movs	r0, #0
 1278              	.LVL90:
 425:Middlewares/Third_Party/FreeRTOS/Source/CMSIS_RTOS_V2/cmsis_os2.c **** 
 1279              		.loc 1 425 0
 1280 0034 08BD     		pop	{r3, pc}
 1281              	.L145:
 1282 0036 00BF     		.align	2
 1283              	.L144:
 1284 0038 00000000 		.word	.LANCHOR0
 1285              		.cfi_endproc
 1286              	.LFE60:
 1288              		.section	.text.osThreadGetId,"ax",%progbits
 1289              		.align	1
 1290              		.global	osThreadGetId
 1291              		.syntax unified
 1292              		.thumb
 1293              		.thumb_func
 1294              		.fpu softvfp
 1296              	osThreadGetId:
ARM GAS  /tmp/cce47g5y.s 			page 53


 1297              	.LFB61:
 427:Middlewares/Third_Party/FreeRTOS/Source/CMSIS_RTOS_V2/cmsis_os2.c ****   osThreadId_t id;
 1298              		.loc 1 427 0
 1299              		.cfi_startproc
 1300              		@ args = 0, pretend = 0, frame = 0
 1301              		@ frame_needed = 0, uses_anonymous_args = 0
 1302 0000 08B5     		push	{r3, lr}
 1303              	.LCFI14:
 1304              		.cfi_def_cfa_offset 8
 1305              		.cfi_offset 3, -8
 1306              		.cfi_offset 14, -4
 1307              	.LBB386:
 1308              	.LBB387:
 209:Drivers/CMSIS/Include/cmsis_gcc.h ****   return(result);
 1309              		.loc 2 209 0
 1310              		.syntax unified
 1311              	@ 209 "Drivers/CMSIS/Include/cmsis_gcc.h" 1
 1312 0002 EFF30583 		MRS r3, ipsr
 1313              	@ 0 "" 2
 1314              		.thumb
 1315              		.syntax unified
 1316              	.LBE387:
 1317              	.LBE386:
 430:Middlewares/Third_Party/FreeRTOS/Source/CMSIS_RTOS_V2/cmsis_os2.c ****     id = NULL;
 1318              		.loc 1 430 0
 1319 0006 7BB9     		cbnz	r3, .L149
 1320              	.LBB388:
 1321              	.LBB389:
 386:Drivers/CMSIS/Include/cmsis_gcc.h ****   return(result);
 1322              		.loc 2 386 0
 1323              		.syntax unified
 1324              	@ 386 "Drivers/CMSIS/Include/cmsis_gcc.h" 1
 1325 0008 EFF31083 		MRS r3, primask
 1326              	@ 0 "" 2
 1327              		.thumb
 1328              		.syntax unified
 1329              	.LBE389:
 1330              	.LBE388:
 430:Middlewares/Third_Party/FreeRTOS/Source/CMSIS_RTOS_V2/cmsis_os2.c ****     id = NULL;
 1331              		.loc 1 430 0
 1332 000c 73B9     		cbnz	r3, .L150
 430:Middlewares/Third_Party/FreeRTOS/Source/CMSIS_RTOS_V2/cmsis_os2.c ****     id = NULL;
 1333              		.loc 1 430 0 is_stmt 0 discriminator 2
 1334 000e 084B     		ldr	r3, .L154
 1335 0010 1B68     		ldr	r3, [r3]
 1336 0012 022B     		cmp	r3, #2
 1337 0014 02D0     		beq	.L153
 1338              	.L148:
 433:Middlewares/Third_Party/FreeRTOS/Source/CMSIS_RTOS_V2/cmsis_os2.c ****   }
 1339              		.loc 1 433 0 is_stmt 1
 1340 0016 FFF7FEFF 		bl	xTaskGetCurrentTaskHandle
 1341              	.LVL91:
 1342 001a 08BD     		pop	{r3, pc}
 1343              	.LVL92:
 1344              	.L153:
 1345              	.LBB390:
 1346              	.LBB391:
ARM GAS  /tmp/cce47g5y.s 			page 54


 1347              		.loc 2 465 0
 1348              		.syntax unified
 1349              	@ 465 "Drivers/CMSIS/Include/cmsis_gcc.h" 1
 1350 001c EFF31183 		MRS r3, basepri
 1351              	@ 0 "" 2
 1352              		.thumb
 1353              		.syntax unified
 1354              	.LBE391:
 1355              	.LBE390:
 430:Middlewares/Third_Party/FreeRTOS/Source/CMSIS_RTOS_V2/cmsis_os2.c ****     id = NULL;
 1356              		.loc 1 430 0
 1357 0020 002B     		cmp	r3, #0
 1358 0022 F8D0     		beq	.L148
 431:Middlewares/Third_Party/FreeRTOS/Source/CMSIS_RTOS_V2/cmsis_os2.c ****   } else {
 1359              		.loc 1 431 0
 1360 0024 0020     		movs	r0, #0
 1361              	.LVL93:
 437:Middlewares/Third_Party/FreeRTOS/Source/CMSIS_RTOS_V2/cmsis_os2.c **** 
 1362              		.loc 1 437 0
 1363 0026 08BD     		pop	{r3, pc}
 1364              	.LVL94:
 1365              	.L149:
 431:Middlewares/Third_Party/FreeRTOS/Source/CMSIS_RTOS_V2/cmsis_os2.c ****   } else {
 1366              		.loc 1 431 0
 1367 0028 0020     		movs	r0, #0
 1368 002a 08BD     		pop	{r3, pc}
 1369              	.L150:
 1370 002c 0020     		movs	r0, #0
 1371 002e 08BD     		pop	{r3, pc}
 1372              	.L155:
 1373              		.align	2
 1374              	.L154:
 1375 0030 00000000 		.word	.LANCHOR0
 1376              		.cfi_endproc
 1377              	.LFE61:
 1379              		.section	.text.osThreadGetState,"ax",%progbits
 1380              		.align	1
 1381              		.global	osThreadGetState
 1382              		.syntax unified
 1383              		.thumb
 1384              		.thumb_func
 1385              		.fpu softvfp
 1387              	osThreadGetState:
 1388              	.LFB62:
 439:Middlewares/Third_Party/FreeRTOS/Source/CMSIS_RTOS_V2/cmsis_os2.c ****   TaskHandle_t hTask = (TaskHandle_t)thread_id;
 1389              		.loc 1 439 0
 1390              		.cfi_startproc
 1391              		@ args = 0, pretend = 0, frame = 0
 1392              		@ frame_needed = 0, uses_anonymous_args = 0
 1393              	.LVL95:
 1394 0000 08B5     		push	{r3, lr}
 1395              	.LCFI15:
 1396              		.cfi_def_cfa_offset 8
 1397              		.cfi_offset 3, -8
 1398              		.cfi_offset 14, -4
 1399              	.LVL96:
 1400              	.LBB392:
ARM GAS  /tmp/cce47g5y.s 			page 55


 1401              	.LBB393:
 209:Drivers/CMSIS/Include/cmsis_gcc.h ****   return(result);
 1402              		.loc 2 209 0
 1403              		.syntax unified
 1404              	@ 209 "Drivers/CMSIS/Include/cmsis_gcc.h" 1
 1405 0002 EFF30583 		MRS r3, ipsr
 1406              	@ 0 "" 2
 1407              		.thumb
 1408              		.syntax unified
 1409              	.LBE393:
 1410              	.LBE392:
 443:Middlewares/Third_Party/FreeRTOS/Source/CMSIS_RTOS_V2/cmsis_os2.c ****     state = osThreadError;
 1411              		.loc 1 443 0
 1412 0006 03BB     		cbnz	r3, .L164
 1413              	.LBB394:
 1414              	.LBB395:
 386:Drivers/CMSIS/Include/cmsis_gcc.h ****   return(result);
 1415              		.loc 2 386 0
 1416              		.syntax unified
 1417              	@ 386 "Drivers/CMSIS/Include/cmsis_gcc.h" 1
 1418 0008 EFF31083 		MRS r3, primask
 1419              	@ 0 "" 2
 1420              		.thumb
 1421              		.syntax unified
 1422              	.LBE395:
 1423              	.LBE394:
 443:Middlewares/Third_Party/FreeRTOS/Source/CMSIS_RTOS_V2/cmsis_os2.c ****     state = osThreadError;
 1424              		.loc 1 443 0
 1425 000c 03BB     		cbnz	r3, .L165
 443:Middlewares/Third_Party/FreeRTOS/Source/CMSIS_RTOS_V2/cmsis_os2.c ****     state = osThreadError;
 1426              		.loc 1 443 0 is_stmt 0 discriminator 2
 1427 000e 144B     		ldr	r3, .L171
 1428 0010 1B68     		ldr	r3, [r3]
 1429 0012 022B     		cmp	r3, #2
 1430 0014 09D0     		beq	.L170
 1431              	.L158:
 443:Middlewares/Third_Party/FreeRTOS/Source/CMSIS_RTOS_V2/cmsis_os2.c ****     state = osThreadError;
 1432              		.loc 1 443 0 discriminator 5
 1433 0016 F0B1     		cbz	r0, .L167
 447:Middlewares/Third_Party/FreeRTOS/Source/CMSIS_RTOS_V2/cmsis_os2.c ****       case eRunning:   state = osThreadRunning;    break;
 1434              		.loc 1 447 0 is_stmt 1
 1435 0018 FFF7FEFF 		bl	eTaskGetState
 1436              	.LVL97:
 1437 001c 0428     		cmp	r0, #4
 1438 001e 11D8     		bhi	.L159
 1439 0020 DFE800F0 		tbb	[pc, r0]
 1440              	.L161:
 1441 0024 0A       		.byte	(.L160-.L161)/2
 1442 0025 1C       		.byte	(.L168-.L161)/2
 1443 0026 0C       		.byte	(.L162-.L161)/2
 1444 0027 0C       		.byte	(.L162-.L161)/2
 1445 0028 0E       		.byte	(.L163-.L161)/2
 1446              	.LVL98:
 1447 0029 00       		.p2align 1
 1448              	.L170:
 1449              	.LBB396:
 1450              	.LBB397:
ARM GAS  /tmp/cce47g5y.s 			page 56


 1451              		.loc 2 465 0
 1452              		.syntax unified
 1453              	@ 465 "Drivers/CMSIS/Include/cmsis_gcc.h" 1
 1454 002a EFF31183 		MRS r3, basepri
 1455              	@ 0 "" 2
 1456              		.thumb
 1457              		.syntax unified
 1458              	.LBE397:
 1459              	.LBE396:
 443:Middlewares/Third_Party/FreeRTOS/Source/CMSIS_RTOS_V2/cmsis_os2.c ****     state = osThreadError;
 1460              		.loc 1 443 0
 1461 002e 002B     		cmp	r3, #0
 1462 0030 F1D0     		beq	.L158
 444:Middlewares/Third_Party/FreeRTOS/Source/CMSIS_RTOS_V2/cmsis_os2.c ****   }
 1463              		.loc 1 444 0
 1464 0032 4FF0FF30 		mov	r0, #-1
 1465              	.LVL99:
 1466 0036 08BD     		pop	{r3, pc}
 1467              	.L160:
 448:Middlewares/Third_Party/FreeRTOS/Source/CMSIS_RTOS_V2/cmsis_os2.c ****       case eReady:     state = osThreadReady;      break;
 1468              		.loc 1 448 0
 1469 0038 0220     		movs	r0, #2
 1470 003a 08BD     		pop	{r3, pc}
 1471              	.L162:
 1472              	.LVL100:
 451:Middlewares/Third_Party/FreeRTOS/Source/CMSIS_RTOS_V2/cmsis_os2.c ****       case eDeleted:   state = osThreadTerminated; break;
 1473              		.loc 1 451 0
 1474 003c 0320     		movs	r0, #3
 1475 003e 08BD     		pop	{r3, pc}
 1476              	.LVL101:
 1477              	.L163:
 452:Middlewares/Third_Party/FreeRTOS/Source/CMSIS_RTOS_V2/cmsis_os2.c ****       case eInvalid:
 1478              		.loc 1 452 0
 1479 0040 0420     		movs	r0, #4
 1480 0042 08BD     		pop	{r3, pc}
 1481              	.LVL102:
 1482              	.L159:
 454:Middlewares/Third_Party/FreeRTOS/Source/CMSIS_RTOS_V2/cmsis_os2.c ****     }
 1483              		.loc 1 454 0
 1484 0044 4FF0FF30 		mov	r0, #-1
 1485 0048 08BD     		pop	{r3, pc}
 1486              	.LVL103:
 1487              	.L164:
 444:Middlewares/Third_Party/FreeRTOS/Source/CMSIS_RTOS_V2/cmsis_os2.c ****   }
 1488              		.loc 1 444 0
 1489 004a 4FF0FF30 		mov	r0, #-1
 1490              	.LVL104:
 1491 004e 08BD     		pop	{r3, pc}
 1492              	.LVL105:
 1493              	.L165:
 1494 0050 4FF0FF30 		mov	r0, #-1
 1495              	.LVL106:
 1496 0054 08BD     		pop	{r3, pc}
 1497              	.LVL107:
 1498              	.L167:
 1499 0056 4FF0FF30 		mov	r0, #-1
 1500              	.LVL108:
ARM GAS  /tmp/cce47g5y.s 			page 57


 1501 005a 08BD     		pop	{r3, pc}
 1502              	.L168:
 449:Middlewares/Third_Party/FreeRTOS/Source/CMSIS_RTOS_V2/cmsis_os2.c ****       case eBlocked:
 1503              		.loc 1 449 0
 1504 005c 0120     		movs	r0, #1
 1505              	.LVL109:
 459:Middlewares/Third_Party/FreeRTOS/Source/CMSIS_RTOS_V2/cmsis_os2.c **** 
 1506              		.loc 1 459 0
 1507 005e 08BD     		pop	{r3, pc}
 1508              	.L172:
 1509              		.align	2
 1510              	.L171:
 1511 0060 00000000 		.word	.LANCHOR0
 1512              		.cfi_endproc
 1513              	.LFE62:
 1515              		.section	.text.osThreadGetStackSpace,"ax",%progbits
 1516              		.align	1
 1517              		.global	osThreadGetStackSpace
 1518              		.syntax unified
 1519              		.thumb
 1520              		.thumb_func
 1521              		.fpu softvfp
 1523              	osThreadGetStackSpace:
 1524              	.LFB63:
 461:Middlewares/Third_Party/FreeRTOS/Source/CMSIS_RTOS_V2/cmsis_os2.c ****   TaskHandle_t hTask = (TaskHandle_t)thread_id;
 1525              		.loc 1 461 0
 1526              		.cfi_startproc
 1527              		@ args = 0, pretend = 0, frame = 0
 1528              		@ frame_needed = 0, uses_anonymous_args = 0
 1529              	.LVL110:
 1530 0000 08B5     		push	{r3, lr}
 1531              	.LCFI16:
 1532              		.cfi_def_cfa_offset 8
 1533              		.cfi_offset 3, -8
 1534              		.cfi_offset 14, -4
 1535 0002 0346     		mov	r3, r0
 1536              	.LVL111:
 1537              	.LBB398:
 1538              	.LBB399:
 209:Drivers/CMSIS/Include/cmsis_gcc.h ****   return(result);
 1539              		.loc 2 209 0
 1540              		.syntax unified
 1541              	@ 209 "Drivers/CMSIS/Include/cmsis_gcc.h" 1
 1542 0004 EFF30580 		MRS r0, ipsr
 1543              	@ 0 "" 2
 1544              	.LVL112:
 1545              		.thumb
 1546              		.syntax unified
 1547              	.LBE399:
 1548              	.LBE398:
 465:Middlewares/Third_Party/FreeRTOS/Source/CMSIS_RTOS_V2/cmsis_os2.c ****     sz = 0U;
 1549              		.loc 1 465 0
 1550 0008 88B9     		cbnz	r0, .L176
 1551              	.LBB400:
 1552              	.LBB401:
 386:Drivers/CMSIS/Include/cmsis_gcc.h ****   return(result);
 1553              		.loc 2 386 0
ARM GAS  /tmp/cce47g5y.s 			page 58


 1554              		.syntax unified
 1555              	@ 386 "Drivers/CMSIS/Include/cmsis_gcc.h" 1
 1556 000a EFF31082 		MRS r2, primask
 1557              	@ 0 "" 2
 1558              		.thumb
 1559              		.syntax unified
 1560              	.LBE401:
 1561              	.LBE400:
 465:Middlewares/Third_Party/FreeRTOS/Source/CMSIS_RTOS_V2/cmsis_os2.c ****     sz = 0U;
 1562              		.loc 1 465 0
 1563 000e 8AB9     		cbnz	r2, .L173
 465:Middlewares/Third_Party/FreeRTOS/Source/CMSIS_RTOS_V2/cmsis_os2.c ****     sz = 0U;
 1564              		.loc 1 465 0 is_stmt 0 discriminator 2
 1565 0010 0949     		ldr	r1, .L181
 1566 0012 0968     		ldr	r1, [r1]
 1567 0014 0229     		cmp	r1, #2
 1568 0016 04D0     		beq	.L180
 1569              	.L175:
 465:Middlewares/Third_Party/FreeRTOS/Source/CMSIS_RTOS_V2/cmsis_os2.c ****     sz = 0U;
 1570              		.loc 1 465 0 discriminator 5
 1571 0018 5BB1     		cbz	r3, .L178
 1572 001a 1846     		mov	r0, r3
 468:Middlewares/Third_Party/FreeRTOS/Source/CMSIS_RTOS_V2/cmsis_os2.c ****   }
 1573              		.loc 1 468 0 is_stmt 1
 1574 001c FFF7FEFF 		bl	uxTaskGetStackHighWaterMark
 1575              	.LVL113:
 1576 0020 08BD     		pop	{r3, pc}
 1577              	.LVL114:
 1578              	.L180:
 1579              	.LBB402:
 1580              	.LBB403:
 1581              		.loc 2 465 0
 1582              		.syntax unified
 1583              	@ 465 "Drivers/CMSIS/Include/cmsis_gcc.h" 1
 1584 0022 EFF31181 		MRS r1, basepri
 1585              	@ 0 "" 2
 1586              		.thumb
 1587              		.syntax unified
 1588              	.LBE403:
 1589              	.LBE402:
 465:Middlewares/Third_Party/FreeRTOS/Source/CMSIS_RTOS_V2/cmsis_os2.c ****     sz = 0U;
 1590              		.loc 1 465 0
 1591 0026 0029     		cmp	r1, #0
 1592 0028 F6D0     		beq	.L175
 466:Middlewares/Third_Party/FreeRTOS/Source/CMSIS_RTOS_V2/cmsis_os2.c ****   } else {
 1593              		.loc 1 466 0
 1594 002a 1046     		mov	r0, r2
 1595 002c 08BD     		pop	{r3, pc}
 1596              	.LVL115:
 1597              	.L176:
 1598 002e 0020     		movs	r0, #0
 1599 0030 08BD     		pop	{r3, pc}
 1600              	.LVL116:
 1601              	.L178:
 1602 0032 1046     		mov	r0, r2
 1603              	.LVL117:
 1604              	.L173:
ARM GAS  /tmp/cce47g5y.s 			page 59


 472:Middlewares/Third_Party/FreeRTOS/Source/CMSIS_RTOS_V2/cmsis_os2.c **** 
 1605              		.loc 1 472 0
 1606 0034 08BD     		pop	{r3, pc}
 1607              	.LVL118:
 1608              	.L182:
 1609 0036 00BF     		.align	2
 1610              	.L181:
 1611 0038 00000000 		.word	.LANCHOR0
 1612              		.cfi_endproc
 1613              	.LFE63:
 1615              		.section	.text.osThreadGetStackSize,"ax",%progbits
 1616              		.align	1
 1617              		.global	osThreadGetStackSize
 1618              		.syntax unified
 1619              		.thumb
 1620              		.thumb_func
 1621              		.fpu softvfp
 1623              	osThreadGetStackSize:
 1624              	.LFB64:
 474:Middlewares/Third_Party/FreeRTOS/Source/CMSIS_RTOS_V2/cmsis_os2.c ****   /*
 1625              		.loc 1 474 0
 1626              		.cfi_startproc
 1627              		@ args = 0, pretend = 0, frame = 0
 1628              		@ frame_needed = 0, uses_anonymous_args = 0
 1629              		@ link register save eliminated.
 1630              	.LVL119:
 482:Middlewares/Third_Party/FreeRTOS/Source/CMSIS_RTOS_V2/cmsis_os2.c **** 
 1631              		.loc 1 482 0
 1632 0000 0020     		movs	r0, #0
 1633              	.LVL120:
 1634 0002 7047     		bx	lr
 1635              		.cfi_endproc
 1636              	.LFE64:
 1638              		.section	.text.osThreadSetPriority,"ax",%progbits
 1639              		.align	1
 1640              		.global	osThreadSetPriority
 1641              		.syntax unified
 1642              		.thumb
 1643              		.thumb_func
 1644              		.fpu softvfp
 1646              	osThreadSetPriority:
 1647              	.LFB65:
 484:Middlewares/Third_Party/FreeRTOS/Source/CMSIS_RTOS_V2/cmsis_os2.c ****   TaskHandle_t hTask = (TaskHandle_t)thread_id;
 1648              		.loc 1 484 0
 1649              		.cfi_startproc
 1650              		@ args = 0, pretend = 0, frame = 0
 1651              		@ frame_needed = 0, uses_anonymous_args = 0
 1652              	.LVL121:
 1653 0000 08B5     		push	{r3, lr}
 1654              	.LCFI17:
 1655              		.cfi_def_cfa_offset 8
 1656              		.cfi_offset 3, -8
 1657              		.cfi_offset 14, -4
 1658              	.LVL122:
 1659              	.LBB404:
 1660              	.LBB405:
 209:Drivers/CMSIS/Include/cmsis_gcc.h ****   return(result);
ARM GAS  /tmp/cce47g5y.s 			page 60


 1661              		.loc 2 209 0
 1662              		.syntax unified
 1663              	@ 209 "Drivers/CMSIS/Include/cmsis_gcc.h" 1
 1664 0002 EFF30583 		MRS r3, ipsr
 1665              	@ 0 "" 2
 1666              		.thumb
 1667              		.syntax unified
 1668              	.LBE405:
 1669              	.LBE404:
 488:Middlewares/Third_Party/FreeRTOS/Source/CMSIS_RTOS_V2/cmsis_os2.c ****     stat = osErrorISR;
 1670              		.loc 1 488 0
 1671 0006 B3B9     		cbnz	r3, .L187
 1672              	.LBB406:
 1673              	.LBB407:
 386:Drivers/CMSIS/Include/cmsis_gcc.h ****   return(result);
 1674              		.loc 2 386 0
 1675              		.syntax unified
 1676              	@ 386 "Drivers/CMSIS/Include/cmsis_gcc.h" 1
 1677 0008 EFF31083 		MRS r3, primask
 1678              	@ 0 "" 2
 1679              		.thumb
 1680              		.syntax unified
 1681              	.LBE407:
 1682              	.LBE406:
 488:Middlewares/Third_Party/FreeRTOS/Source/CMSIS_RTOS_V2/cmsis_os2.c ****     stat = osErrorISR;
 1683              		.loc 1 488 0
 1684 000c B3B9     		cbnz	r3, .L188
 488:Middlewares/Third_Party/FreeRTOS/Source/CMSIS_RTOS_V2/cmsis_os2.c ****     stat = osErrorISR;
 1685              		.loc 1 488 0 is_stmt 0 discriminator 2
 1686 000e 114B     		ldr	r3, .L195
 1687 0010 1B68     		ldr	r3, [r3]
 1688 0012 022B     		cmp	r3, #2
 1689 0014 08D0     		beq	.L194
 1690              	.L186:
 491:Middlewares/Third_Party/FreeRTOS/Source/CMSIS_RTOS_V2/cmsis_os2.c ****     stat = osErrorParameter;
 1691              		.loc 1 491 0 is_stmt 1
 1692 0016 A0B1     		cbz	r0, .L190
 491:Middlewares/Third_Party/FreeRTOS/Source/CMSIS_RTOS_V2/cmsis_os2.c ****     stat = osErrorParameter;
 1693              		.loc 1 491 0 is_stmt 0 discriminator 1
 1694 0018 0029     		cmp	r1, #0
 1695 001a 15DD     		ble	.L191
 491:Middlewares/Third_Party/FreeRTOS/Source/CMSIS_RTOS_V2/cmsis_os2.c ****     stat = osErrorParameter;
 1696              		.loc 1 491 0 discriminator 2
 1697 001c 3829     		cmp	r1, #56
 1698 001e 16DC     		bgt	.L192
 1699              	.LVL123:
 496:Middlewares/Third_Party/FreeRTOS/Source/CMSIS_RTOS_V2/cmsis_os2.c ****   }
 1700              		.loc 1 496 0 is_stmt 1
 1701 0020 FFF7FEFF 		bl	vTaskPrioritySet
 1702              	.LVL124:
 495:Middlewares/Third_Party/FreeRTOS/Source/CMSIS_RTOS_V2/cmsis_os2.c ****     vTaskPrioritySet (hTask, (UBaseType_t)priority);
 1703              		.loc 1 495 0
 1704 0024 0020     		movs	r0, #0
 1705 0026 08BD     		pop	{r3, pc}
 1706              	.LVL125:
 1707              	.L194:
 1708              	.LBB408:
ARM GAS  /tmp/cce47g5y.s 			page 61


 1709              	.LBB409:
 1710              		.loc 2 465 0
 1711              		.syntax unified
 1712              	@ 465 "Drivers/CMSIS/Include/cmsis_gcc.h" 1
 1713 0028 EFF31183 		MRS r3, basepri
 1714              	@ 0 "" 2
 1715              		.thumb
 1716              		.syntax unified
 1717              	.LBE409:
 1718              	.LBE408:
 488:Middlewares/Third_Party/FreeRTOS/Source/CMSIS_RTOS_V2/cmsis_os2.c ****     stat = osErrorISR;
 1719              		.loc 1 488 0
 1720 002c 002B     		cmp	r3, #0
 1721 002e F2D0     		beq	.L186
 489:Middlewares/Third_Party/FreeRTOS/Source/CMSIS_RTOS_V2/cmsis_os2.c ****   }
 1722              		.loc 1 489 0
 1723 0030 6FF00500 		mvn	r0, #5
 1724              	.LVL126:
 1725 0034 08BD     		pop	{r3, pc}
 1726              	.LVL127:
 1727              	.L187:
 1728 0036 6FF00500 		mvn	r0, #5
 1729              	.LVL128:
 1730 003a 08BD     		pop	{r3, pc}
 1731              	.LVL129:
 1732              	.L188:
 1733 003c 6FF00500 		mvn	r0, #5
 1734              	.LVL130:
 1735 0040 08BD     		pop	{r3, pc}
 1736              	.LVL131:
 1737              	.L190:
 492:Middlewares/Third_Party/FreeRTOS/Source/CMSIS_RTOS_V2/cmsis_os2.c ****   }
 1738              		.loc 1 492 0
 1739 0042 6FF00300 		mvn	r0, #3
 1740              	.LVL132:
 1741 0046 08BD     		pop	{r3, pc}
 1742              	.LVL133:
 1743              	.L191:
 1744 0048 6FF00300 		mvn	r0, #3
 1745              	.LVL134:
 1746 004c 08BD     		pop	{r3, pc}
 1747              	.LVL135:
 1748              	.L192:
 1749 004e 6FF00300 		mvn	r0, #3
 1750              	.LVL136:
 500:Middlewares/Third_Party/FreeRTOS/Source/CMSIS_RTOS_V2/cmsis_os2.c **** 
 1751              		.loc 1 500 0
 1752 0052 08BD     		pop	{r3, pc}
 1753              	.L196:
 1754              		.align	2
 1755              	.L195:
 1756 0054 00000000 		.word	.LANCHOR0
 1757              		.cfi_endproc
 1758              	.LFE65:
 1760              		.section	.text.osThreadGetPriority,"ax",%progbits
 1761              		.align	1
 1762              		.global	osThreadGetPriority
ARM GAS  /tmp/cce47g5y.s 			page 62


 1763              		.syntax unified
 1764              		.thumb
 1765              		.thumb_func
 1766              		.fpu softvfp
 1768              	osThreadGetPriority:
 1769              	.LFB66:
 502:Middlewares/Third_Party/FreeRTOS/Source/CMSIS_RTOS_V2/cmsis_os2.c ****   TaskHandle_t hTask = (TaskHandle_t)thread_id;
 1770              		.loc 1 502 0
 1771              		.cfi_startproc
 1772              		@ args = 0, pretend = 0, frame = 0
 1773              		@ frame_needed = 0, uses_anonymous_args = 0
 1774              	.LVL137:
 1775 0000 08B5     		push	{r3, lr}
 1776              	.LCFI18:
 1777              		.cfi_def_cfa_offset 8
 1778              		.cfi_offset 3, -8
 1779              		.cfi_offset 14, -4
 1780              	.LVL138:
 1781              	.LBB410:
 1782              	.LBB411:
 209:Drivers/CMSIS/Include/cmsis_gcc.h ****   return(result);
 1783              		.loc 2 209 0
 1784              		.syntax unified
 1785              	@ 209 "Drivers/CMSIS/Include/cmsis_gcc.h" 1
 1786 0002 EFF30583 		MRS r3, ipsr
 1787              	@ 0 "" 2
 1788              		.thumb
 1789              		.syntax unified
 1790              	.LBE411:
 1791              	.LBE410:
 506:Middlewares/Third_Party/FreeRTOS/Source/CMSIS_RTOS_V2/cmsis_os2.c ****     prio = osPriorityError;
 1792              		.loc 1 506 0
 1793 0006 8BB9     		cbnz	r3, .L200
 1794              	.LBB412:
 1795              	.LBB413:
 386:Drivers/CMSIS/Include/cmsis_gcc.h ****   return(result);
 1796              		.loc 2 386 0
 1797              		.syntax unified
 1798              	@ 386 "Drivers/CMSIS/Include/cmsis_gcc.h" 1
 1799 0008 EFF31083 		MRS r3, primask
 1800              	@ 0 "" 2
 1801              		.thumb
 1802              		.syntax unified
 1803              	.LBE413:
 1804              	.LBE412:
 506:Middlewares/Third_Party/FreeRTOS/Source/CMSIS_RTOS_V2/cmsis_os2.c ****     prio = osPriorityError;
 1805              		.loc 1 506 0
 1806 000c 8BB9     		cbnz	r3, .L201
 506:Middlewares/Third_Party/FreeRTOS/Source/CMSIS_RTOS_V2/cmsis_os2.c ****     prio = osPriorityError;
 1807              		.loc 1 506 0 is_stmt 0 discriminator 2
 1808 000e 0C4B     		ldr	r3, .L206
 1809 0010 1B68     		ldr	r3, [r3]
 1810 0012 022B     		cmp	r3, #2
 1811 0014 03D0     		beq	.L205
 1812              	.L199:
 506:Middlewares/Third_Party/FreeRTOS/Source/CMSIS_RTOS_V2/cmsis_os2.c ****     prio = osPriorityError;
 1813              		.loc 1 506 0 discriminator 5
ARM GAS  /tmp/cce47g5y.s 			page 63


 1814 0016 78B1     		cbz	r0, .L203
 509:Middlewares/Third_Party/FreeRTOS/Source/CMSIS_RTOS_V2/cmsis_os2.c ****   }
 1815              		.loc 1 509 0 is_stmt 1
 1816 0018 FFF7FEFF 		bl	uxTaskPriorityGet
 1817              	.LVL139:
 1818 001c 08BD     		pop	{r3, pc}
 1819              	.LVL140:
 1820              	.L205:
 1821              	.LBB414:
 1822              	.LBB415:
 1823              		.loc 2 465 0
 1824              		.syntax unified
 1825              	@ 465 "Drivers/CMSIS/Include/cmsis_gcc.h" 1
 1826 001e EFF31183 		MRS r3, basepri
 1827              	@ 0 "" 2
 1828              		.thumb
 1829              		.syntax unified
 1830              	.LBE415:
 1831              	.LBE414:
 506:Middlewares/Third_Party/FreeRTOS/Source/CMSIS_RTOS_V2/cmsis_os2.c ****     prio = osPriorityError;
 1832              		.loc 1 506 0
 1833 0022 002B     		cmp	r3, #0
 1834 0024 F7D0     		beq	.L199
 507:Middlewares/Third_Party/FreeRTOS/Source/CMSIS_RTOS_V2/cmsis_os2.c ****   } else {
 1835              		.loc 1 507 0
 1836 0026 4FF0FF30 		mov	r0, #-1
 1837              	.LVL141:
 1838 002a 08BD     		pop	{r3, pc}
 1839              	.LVL142:
 1840              	.L200:
 1841 002c 4FF0FF30 		mov	r0, #-1
 1842              	.LVL143:
 1843 0030 08BD     		pop	{r3, pc}
 1844              	.LVL144:
 1845              	.L201:
 1846 0032 4FF0FF30 		mov	r0, #-1
 1847              	.LVL145:
 1848 0036 08BD     		pop	{r3, pc}
 1849              	.LVL146:
 1850              	.L203:
 1851 0038 4FF0FF30 		mov	r0, #-1
 1852              	.LVL147:
 513:Middlewares/Third_Party/FreeRTOS/Source/CMSIS_RTOS_V2/cmsis_os2.c **** 
 1853              		.loc 1 513 0
 1854 003c 08BD     		pop	{r3, pc}
 1855              	.L207:
 1856 003e 00BF     		.align	2
 1857              	.L206:
 1858 0040 00000000 		.word	.LANCHOR0
 1859              		.cfi_endproc
 1860              	.LFE66:
 1862              		.section	.text.osThreadYield,"ax",%progbits
 1863              		.align	1
 1864              		.global	osThreadYield
 1865              		.syntax unified
 1866              		.thumb
 1867              		.thumb_func
ARM GAS  /tmp/cce47g5y.s 			page 64


 1868              		.fpu softvfp
 1870              	osThreadYield:
 1871              	.LFB67:
 515:Middlewares/Third_Party/FreeRTOS/Source/CMSIS_RTOS_V2/cmsis_os2.c ****   osStatus_t stat;
 1872              		.loc 1 515 0
 1873              		.cfi_startproc
 1874              		@ args = 0, pretend = 0, frame = 0
 1875              		@ frame_needed = 0, uses_anonymous_args = 0
 1876              		@ link register save eliminated.
 1877              	.LBB416:
 1878              	.LBB417:
 209:Drivers/CMSIS/Include/cmsis_gcc.h ****   return(result);
 1879              		.loc 2 209 0
 1880              		.syntax unified
 1881              	@ 209 "Drivers/CMSIS/Include/cmsis_gcc.h" 1
 1882 0000 EFF30583 		MRS r3, ipsr
 1883              	@ 0 "" 2
 1884              		.thumb
 1885              		.syntax unified
 1886              	.LBE417:
 1887              	.LBE416:
 518:Middlewares/Third_Party/FreeRTOS/Source/CMSIS_RTOS_V2/cmsis_os2.c ****     stat = osErrorISR;
 1888              		.loc 1 518 0
 1889 0004 BBB9     		cbnz	r3, .L211
 1890              	.LBB418:
 1891              	.LBB419:
 386:Drivers/CMSIS/Include/cmsis_gcc.h ****   return(result);
 1892              		.loc 2 386 0
 1893              		.syntax unified
 1894              	@ 386 "Drivers/CMSIS/Include/cmsis_gcc.h" 1
 1895 0006 EFF31083 		MRS r3, primask
 1896              	@ 0 "" 2
 1897              		.thumb
 1898              		.syntax unified
 1899              	.LBE419:
 1900              	.LBE418:
 518:Middlewares/Third_Party/FreeRTOS/Source/CMSIS_RTOS_V2/cmsis_os2.c ****     stat = osErrorISR;
 1901              		.loc 1 518 0
 1902 000a BBB9     		cbnz	r3, .L212
 518:Middlewares/Third_Party/FreeRTOS/Source/CMSIS_RTOS_V2/cmsis_os2.c ****     stat = osErrorISR;
 1903              		.loc 1 518 0 is_stmt 0 discriminator 2
 1904 000c 0D4B     		ldr	r3, .L215
 1905 000e 1B68     		ldr	r3, [r3]
 1906 0010 022B     		cmp	r3, #2
 1907 0012 09D0     		beq	.L214
 1908              	.L210:
 1909              	.LVL148:
 522:Middlewares/Third_Party/FreeRTOS/Source/CMSIS_RTOS_V2/cmsis_os2.c ****   }
 1910              		.loc 1 522 0 is_stmt 1
 1911 0014 4FF08052 		mov	r2, #268435456
 1912 0018 0B4B     		ldr	r3, .L215+4
 1913 001a 1A60     		str	r2, [r3]
 1914              		.syntax unified
 1915              	@ 522 "Middlewares/Third_Party/FreeRTOS/Source/CMSIS_RTOS_V2/cmsis_os2.c" 1
 1916 001c BFF34F8F 		dsb
 1917              	@ 0 "" 2
 1918              	@ 522 "Middlewares/Third_Party/FreeRTOS/Source/CMSIS_RTOS_V2/cmsis_os2.c" 1
ARM GAS  /tmp/cce47g5y.s 			page 65


 1919 0020 BFF36F8F 		isb
 1920              	@ 0 "" 2
 521:Middlewares/Third_Party/FreeRTOS/Source/CMSIS_RTOS_V2/cmsis_os2.c ****     taskYIELD();
 1921              		.loc 1 521 0
 1922              		.thumb
 1923              		.syntax unified
 1924 0024 0020     		movs	r0, #0
 1925 0026 7047     		bx	lr
 1926              	.LVL149:
 1927              	.L214:
 1928              	.LBB420:
 1929              	.LBB421:
 1930              		.loc 2 465 0
 1931              		.syntax unified
 1932              	@ 465 "Drivers/CMSIS/Include/cmsis_gcc.h" 1
 1933 0028 EFF31183 		MRS r3, basepri
 1934              	@ 0 "" 2
 1935              		.thumb
 1936              		.syntax unified
 1937              	.LBE421:
 1938              	.LBE420:
 518:Middlewares/Third_Party/FreeRTOS/Source/CMSIS_RTOS_V2/cmsis_os2.c ****     stat = osErrorISR;
 1939              		.loc 1 518 0
 1940 002c 002B     		cmp	r3, #0
 1941 002e F1D0     		beq	.L210
 519:Middlewares/Third_Party/FreeRTOS/Source/CMSIS_RTOS_V2/cmsis_os2.c ****   } else {
 1942              		.loc 1 519 0
 1943 0030 6FF00500 		mvn	r0, #5
 1944              	.LVL150:
 526:Middlewares/Third_Party/FreeRTOS/Source/CMSIS_RTOS_V2/cmsis_os2.c **** 
 1945              		.loc 1 526 0
 1946 0034 7047     		bx	lr
 1947              	.LVL151:
 1948              	.L211:
 519:Middlewares/Third_Party/FreeRTOS/Source/CMSIS_RTOS_V2/cmsis_os2.c ****   } else {
 1949              		.loc 1 519 0
 1950 0036 6FF00500 		mvn	r0, #5
 1951 003a 7047     		bx	lr
 1952              	.L212:
 1953 003c 6FF00500 		mvn	r0, #5
 1954 0040 7047     		bx	lr
 1955              	.L216:
 1956 0042 00BF     		.align	2
 1957              	.L215:
 1958 0044 00000000 		.word	.LANCHOR0
 1959 0048 04ED00E0 		.word	-536810236
 1960              		.cfi_endproc
 1961              	.LFE67:
 1963              		.section	.text.osThreadSuspend,"ax",%progbits
 1964              		.align	1
 1965              		.global	osThreadSuspend
 1966              		.syntax unified
 1967              		.thumb
 1968              		.thumb_func
 1969              		.fpu softvfp
 1971              	osThreadSuspend:
 1972              	.LFB68:
ARM GAS  /tmp/cce47g5y.s 			page 66


 528:Middlewares/Third_Party/FreeRTOS/Source/CMSIS_RTOS_V2/cmsis_os2.c ****   TaskHandle_t hTask = (TaskHandle_t)thread_id;
 1973              		.loc 1 528 0
 1974              		.cfi_startproc
 1975              		@ args = 0, pretend = 0, frame = 0
 1976              		@ frame_needed = 0, uses_anonymous_args = 0
 1977              	.LVL152:
 1978 0000 08B5     		push	{r3, lr}
 1979              	.LCFI19:
 1980              		.cfi_def_cfa_offset 8
 1981              		.cfi_offset 3, -8
 1982              		.cfi_offset 14, -4
 1983              	.LVL153:
 1984              	.LBB422:
 1985              	.LBB423:
 209:Drivers/CMSIS/Include/cmsis_gcc.h ****   return(result);
 1986              		.loc 2 209 0
 1987              		.syntax unified
 1988              	@ 209 "Drivers/CMSIS/Include/cmsis_gcc.h" 1
 1989 0002 EFF30583 		MRS r3, ipsr
 1990              	@ 0 "" 2
 1991              		.thumb
 1992              		.syntax unified
 1993              	.LBE423:
 1994              	.LBE422:
 532:Middlewares/Third_Party/FreeRTOS/Source/CMSIS_RTOS_V2/cmsis_os2.c ****     stat = osErrorISR;
 1995              		.loc 1 532 0
 1996 0006 93B9     		cbnz	r3, .L220
 1997              	.LBB424:
 1998              	.LBB425:
 386:Drivers/CMSIS/Include/cmsis_gcc.h ****   return(result);
 1999              		.loc 2 386 0
 2000              		.syntax unified
 2001              	@ 386 "Drivers/CMSIS/Include/cmsis_gcc.h" 1
 2002 0008 EFF31083 		MRS r3, primask
 2003              	@ 0 "" 2
 2004              		.thumb
 2005              		.syntax unified
 2006              	.LBE425:
 2007              	.LBE424:
 532:Middlewares/Third_Party/FreeRTOS/Source/CMSIS_RTOS_V2/cmsis_os2.c ****     stat = osErrorISR;
 2008              		.loc 1 532 0
 2009 000c 93B9     		cbnz	r3, .L221
 532:Middlewares/Third_Party/FreeRTOS/Source/CMSIS_RTOS_V2/cmsis_os2.c ****     stat = osErrorISR;
 2010              		.loc 1 532 0 is_stmt 0 discriminator 2
 2011 000e 0C4B     		ldr	r3, .L226
 2012 0010 1B68     		ldr	r3, [r3]
 2013 0012 022B     		cmp	r3, #2
 2014 0014 04D0     		beq	.L225
 2015              	.L219:
 535:Middlewares/Third_Party/FreeRTOS/Source/CMSIS_RTOS_V2/cmsis_os2.c ****     stat = osErrorParameter;
 2016              		.loc 1 535 0 is_stmt 1
 2017 0016 80B1     		cbz	r0, .L223
 2018              	.LVL154:
 540:Middlewares/Third_Party/FreeRTOS/Source/CMSIS_RTOS_V2/cmsis_os2.c ****   }
 2019              		.loc 1 540 0
 2020 0018 FFF7FEFF 		bl	vTaskSuspend
 2021              	.LVL155:
ARM GAS  /tmp/cce47g5y.s 			page 67


 539:Middlewares/Third_Party/FreeRTOS/Source/CMSIS_RTOS_V2/cmsis_os2.c ****     vTaskSuspend (hTask);
 2022              		.loc 1 539 0
 2023 001c 0020     		movs	r0, #0
 2024 001e 08BD     		pop	{r3, pc}
 2025              	.LVL156:
 2026              	.L225:
 2027              	.LBB426:
 2028              	.LBB427:
 2029              		.loc 2 465 0
 2030              		.syntax unified
 2031              	@ 465 "Drivers/CMSIS/Include/cmsis_gcc.h" 1
 2032 0020 EFF31183 		MRS r3, basepri
 2033              	@ 0 "" 2
 2034              		.thumb
 2035              		.syntax unified
 2036              	.LBE427:
 2037              	.LBE426:
 532:Middlewares/Third_Party/FreeRTOS/Source/CMSIS_RTOS_V2/cmsis_os2.c ****     stat = osErrorISR;
 2038              		.loc 1 532 0
 2039 0024 002B     		cmp	r3, #0
 2040 0026 F6D0     		beq	.L219
 533:Middlewares/Third_Party/FreeRTOS/Source/CMSIS_RTOS_V2/cmsis_os2.c ****   }
 2041              		.loc 1 533 0
 2042 0028 6FF00500 		mvn	r0, #5
 2043              	.LVL157:
 2044 002c 08BD     		pop	{r3, pc}
 2045              	.LVL158:
 2046              	.L220:
 2047 002e 6FF00500 		mvn	r0, #5
 2048              	.LVL159:
 2049 0032 08BD     		pop	{r3, pc}
 2050              	.LVL160:
 2051              	.L221:
 2052 0034 6FF00500 		mvn	r0, #5
 2053              	.LVL161:
 2054 0038 08BD     		pop	{r3, pc}
 2055              	.LVL162:
 2056              	.L223:
 536:Middlewares/Third_Party/FreeRTOS/Source/CMSIS_RTOS_V2/cmsis_os2.c ****   }
 2057              		.loc 1 536 0
 2058 003a 6FF00300 		mvn	r0, #3
 2059              	.LVL163:
 544:Middlewares/Third_Party/FreeRTOS/Source/CMSIS_RTOS_V2/cmsis_os2.c **** 
 2060              		.loc 1 544 0
 2061 003e 08BD     		pop	{r3, pc}
 2062              	.L227:
 2063              		.align	2
 2064              	.L226:
 2065 0040 00000000 		.word	.LANCHOR0
 2066              		.cfi_endproc
 2067              	.LFE68:
 2069              		.section	.text.osThreadResume,"ax",%progbits
 2070              		.align	1
 2071              		.global	osThreadResume
 2072              		.syntax unified
 2073              		.thumb
 2074              		.thumb_func
ARM GAS  /tmp/cce47g5y.s 			page 68


 2075              		.fpu softvfp
 2077              	osThreadResume:
 2078              	.LFB69:
 546:Middlewares/Third_Party/FreeRTOS/Source/CMSIS_RTOS_V2/cmsis_os2.c ****   TaskHandle_t hTask = (TaskHandle_t)thread_id;
 2079              		.loc 1 546 0
 2080              		.cfi_startproc
 2081              		@ args = 0, pretend = 0, frame = 0
 2082              		@ frame_needed = 0, uses_anonymous_args = 0
 2083              	.LVL164:
 2084 0000 08B5     		push	{r3, lr}
 2085              	.LCFI20:
 2086              		.cfi_def_cfa_offset 8
 2087              		.cfi_offset 3, -8
 2088              		.cfi_offset 14, -4
 2089              	.LVL165:
 2090              	.LBB428:
 2091              	.LBB429:
 209:Drivers/CMSIS/Include/cmsis_gcc.h ****   return(result);
 2092              		.loc 2 209 0
 2093              		.syntax unified
 2094              	@ 209 "Drivers/CMSIS/Include/cmsis_gcc.h" 1
 2095 0002 EFF30583 		MRS r3, ipsr
 2096              	@ 0 "" 2
 2097              		.thumb
 2098              		.syntax unified
 2099              	.LBE429:
 2100              	.LBE428:
 550:Middlewares/Third_Party/FreeRTOS/Source/CMSIS_RTOS_V2/cmsis_os2.c ****     stat = osErrorISR;
 2101              		.loc 1 550 0
 2102 0006 93B9     		cbnz	r3, .L231
 2103              	.LBB430:
 2104              	.LBB431:
 386:Drivers/CMSIS/Include/cmsis_gcc.h ****   return(result);
 2105              		.loc 2 386 0
 2106              		.syntax unified
 2107              	@ 386 "Drivers/CMSIS/Include/cmsis_gcc.h" 1
 2108 0008 EFF31083 		MRS r3, primask
 2109              	@ 0 "" 2
 2110              		.thumb
 2111              		.syntax unified
 2112              	.LBE431:
 2113              	.LBE430:
 550:Middlewares/Third_Party/FreeRTOS/Source/CMSIS_RTOS_V2/cmsis_os2.c ****     stat = osErrorISR;
 2114              		.loc 1 550 0
 2115 000c 93B9     		cbnz	r3, .L232
 550:Middlewares/Third_Party/FreeRTOS/Source/CMSIS_RTOS_V2/cmsis_os2.c ****     stat = osErrorISR;
 2116              		.loc 1 550 0 is_stmt 0 discriminator 2
 2117 000e 0C4B     		ldr	r3, .L237
 2118 0010 1B68     		ldr	r3, [r3]
 2119 0012 022B     		cmp	r3, #2
 2120 0014 04D0     		beq	.L236
 2121              	.L230:
 553:Middlewares/Third_Party/FreeRTOS/Source/CMSIS_RTOS_V2/cmsis_os2.c ****     stat = osErrorParameter;
 2122              		.loc 1 553 0 is_stmt 1
 2123 0016 80B1     		cbz	r0, .L234
 2124              	.LVL166:
 558:Middlewares/Third_Party/FreeRTOS/Source/CMSIS_RTOS_V2/cmsis_os2.c ****   }
ARM GAS  /tmp/cce47g5y.s 			page 69


 2125              		.loc 1 558 0
 2126 0018 FFF7FEFF 		bl	vTaskResume
 2127              	.LVL167:
 557:Middlewares/Third_Party/FreeRTOS/Source/CMSIS_RTOS_V2/cmsis_os2.c ****     vTaskResume (hTask);
 2128              		.loc 1 557 0
 2129 001c 0020     		movs	r0, #0
 2130 001e 08BD     		pop	{r3, pc}
 2131              	.LVL168:
 2132              	.L236:
 2133              	.LBB432:
 2134              	.LBB433:
 2135              		.loc 2 465 0
 2136              		.syntax unified
 2137              	@ 465 "Drivers/CMSIS/Include/cmsis_gcc.h" 1
 2138 0020 EFF31183 		MRS r3, basepri
 2139              	@ 0 "" 2
 2140              		.thumb
 2141              		.syntax unified
 2142              	.LBE433:
 2143              	.LBE432:
 550:Middlewares/Third_Party/FreeRTOS/Source/CMSIS_RTOS_V2/cmsis_os2.c ****     stat = osErrorISR;
 2144              		.loc 1 550 0
 2145 0024 002B     		cmp	r3, #0
 2146 0026 F6D0     		beq	.L230
 551:Middlewares/Third_Party/FreeRTOS/Source/CMSIS_RTOS_V2/cmsis_os2.c ****   }
 2147              		.loc 1 551 0
 2148 0028 6FF00500 		mvn	r0, #5
 2149              	.LVL169:
 2150 002c 08BD     		pop	{r3, pc}
 2151              	.LVL170:
 2152              	.L231:
 2153 002e 6FF00500 		mvn	r0, #5
 2154              	.LVL171:
 2155 0032 08BD     		pop	{r3, pc}
 2156              	.LVL172:
 2157              	.L232:
 2158 0034 6FF00500 		mvn	r0, #5
 2159              	.LVL173:
 2160 0038 08BD     		pop	{r3, pc}
 2161              	.LVL174:
 2162              	.L234:
 554:Middlewares/Third_Party/FreeRTOS/Source/CMSIS_RTOS_V2/cmsis_os2.c ****   }
 2163              		.loc 1 554 0
 2164 003a 6FF00300 		mvn	r0, #3
 2165              	.LVL175:
 562:Middlewares/Third_Party/FreeRTOS/Source/CMSIS_RTOS_V2/cmsis_os2.c **** 
 2166              		.loc 1 562 0
 2167 003e 08BD     		pop	{r3, pc}
 2168              	.L238:
 2169              		.align	2
 2170              	.L237:
 2171 0040 00000000 		.word	.LANCHOR0
 2172              		.cfi_endproc
 2173              	.LFE69:
 2175              		.section	.text.osThreadExit,"ax",%progbits
 2176              		.align	1
 2177              		.global	osThreadExit
ARM GAS  /tmp/cce47g5y.s 			page 70


 2178              		.syntax unified
 2179              		.thumb
 2180              		.thumb_func
 2181              		.fpu softvfp
 2183              	osThreadExit:
 2184              	.LFB70:
 564:Middlewares/Third_Party/FreeRTOS/Source/CMSIS_RTOS_V2/cmsis_os2.c **** #ifndef USE_FreeRTOS_HEAP_1
 2185              		.loc 1 564 0
 2186              		.cfi_startproc
 2187              		@ Volatile: function does not return.
 2188              		@ args = 0, pretend = 0, frame = 0
 2189              		@ frame_needed = 0, uses_anonymous_args = 0
 2190 0000 08B5     		push	{r3, lr}
 2191              	.LCFI21:
 2192              		.cfi_def_cfa_offset 8
 2193              		.cfi_offset 3, -8
 2194              		.cfi_offset 14, -4
 566:Middlewares/Third_Party/FreeRTOS/Source/CMSIS_RTOS_V2/cmsis_os2.c **** #endif
 2195              		.loc 1 566 0
 2196 0002 0020     		movs	r0, #0
 2197 0004 FFF7FEFF 		bl	vTaskDelete
 2198              	.LVL176:
 2199              	.L240:
 2200 0008 FEE7     		b	.L240
 2201              		.cfi_endproc
 2202              	.LFE70:
 2204              		.section	.text.osThreadTerminate,"ax",%progbits
 2205              		.align	1
 2206              		.global	osThreadTerminate
 2207              		.syntax unified
 2208              		.thumb
 2209              		.thumb_func
 2210              		.fpu softvfp
 2212              	osThreadTerminate:
 2213              	.LFB71:
 571:Middlewares/Third_Party/FreeRTOS/Source/CMSIS_RTOS_V2/cmsis_os2.c ****   TaskHandle_t hTask = (TaskHandle_t)thread_id;
 2214              		.loc 1 571 0
 2215              		.cfi_startproc
 2216              		@ args = 0, pretend = 0, frame = 0
 2217              		@ frame_needed = 0, uses_anonymous_args = 0
 2218              	.LVL177:
 2219              	.LBB434:
 2220              	.LBB435:
 209:Drivers/CMSIS/Include/cmsis_gcc.h ****   return(result);
 2221              		.loc 2 209 0
 2222              		.syntax unified
 2223              	@ 209 "Drivers/CMSIS/Include/cmsis_gcc.h" 1
 2224 0000 EFF30583 		MRS r3, ipsr
 2225              	@ 0 "" 2
 2226              		.thumb
 2227              		.syntax unified
 2228              	.LBE435:
 2229              	.LBE434:
 577:Middlewares/Third_Party/FreeRTOS/Source/CMSIS_RTOS_V2/cmsis_os2.c ****     stat = osErrorISR;
 2230              		.loc 1 577 0
 2231 0004 CBB9     		cbnz	r3, .L245
 2232              	.LBB436:
ARM GAS  /tmp/cce47g5y.s 			page 71


 2233              	.LBB437:
 386:Drivers/CMSIS/Include/cmsis_gcc.h ****   return(result);
 2234              		.loc 2 386 0
 2235              		.syntax unified
 2236              	@ 386 "Drivers/CMSIS/Include/cmsis_gcc.h" 1
 2237 0006 EFF31083 		MRS r3, primask
 2238              	@ 0 "" 2
 2239              		.thumb
 2240              		.syntax unified
 2241              	.LBE437:
 2242              	.LBE436:
 577:Middlewares/Third_Party/FreeRTOS/Source/CMSIS_RTOS_V2/cmsis_os2.c ****     stat = osErrorISR;
 2243              		.loc 1 577 0
 2244 000a CBB9     		cbnz	r3, .L246
 577:Middlewares/Third_Party/FreeRTOS/Source/CMSIS_RTOS_V2/cmsis_os2.c ****     stat = osErrorISR;
 2245              		.loc 1 577 0 is_stmt 0 discriminator 2
 2246 000c 114B     		ldr	r3, .L255
 2247 000e 1B68     		ldr	r3, [r3]
 2248 0010 022B     		cmp	r3, #2
 2249 0012 0BD0     		beq	.L254
 2250              	.L244:
 580:Middlewares/Third_Party/FreeRTOS/Source/CMSIS_RTOS_V2/cmsis_os2.c ****     stat = osErrorParameter;
 2251              		.loc 1 580 0 is_stmt 1
 2252 0014 B8B1     		cbz	r0, .L248
 571:Middlewares/Third_Party/FreeRTOS/Source/CMSIS_RTOS_V2/cmsis_os2.c ****   TaskHandle_t hTask = (TaskHandle_t)thread_id;
 2253              		.loc 1 571 0
 2254 0016 10B5     		push	{r4, lr}
 2255              	.LCFI22:
 2256              		.cfi_def_cfa_offset 8
 2257              		.cfi_offset 4, -8
 2258              		.cfi_offset 14, -4
 2259 0018 0446     		mov	r4, r0
 584:Middlewares/Third_Party/FreeRTOS/Source/CMSIS_RTOS_V2/cmsis_os2.c **** 
 2260              		.loc 1 584 0
 2261 001a FFF7FEFF 		bl	eTaskGetState
 2262              	.LVL178:
 586:Middlewares/Third_Party/FreeRTOS/Source/CMSIS_RTOS_V2/cmsis_os2.c ****       stat = osOK;
 2263              		.loc 1 586 0
 2264 001e 0428     		cmp	r0, #4
 2265 0020 14D0     		beq	.L249
 2266              	.LVL179:
 588:Middlewares/Third_Party/FreeRTOS/Source/CMSIS_RTOS_V2/cmsis_os2.c ****     } else {
 2267              		.loc 1 588 0
 2268 0022 2046     		mov	r0, r4
 2269              	.LVL180:
 2270 0024 FFF7FEFF 		bl	vTaskDelete
 2271              	.LVL181:
 587:Middlewares/Third_Party/FreeRTOS/Source/CMSIS_RTOS_V2/cmsis_os2.c ****       vTaskDelete (hTask);
 2272              		.loc 1 587 0
 2273 0028 0020     		movs	r0, #0
 2274 002a 10BD     		pop	{r4, pc}
 2275              	.LVL182:
 2276              	.L254:
 2277              	.LCFI23:
 2278              		.cfi_def_cfa_offset 0
 2279              		.cfi_restore 4
 2280              		.cfi_restore 14
ARM GAS  /tmp/cce47g5y.s 			page 72


 2281              	.LBB438:
 2282              	.LBB439:
 2283              		.loc 2 465 0
 2284              		.syntax unified
 2285              	@ 465 "Drivers/CMSIS/Include/cmsis_gcc.h" 1
 2286 002c EFF31183 		MRS r3, basepri
 2287              	@ 0 "" 2
 2288              		.thumb
 2289              		.syntax unified
 2290              	.LBE439:
 2291              	.LBE438:
 577:Middlewares/Third_Party/FreeRTOS/Source/CMSIS_RTOS_V2/cmsis_os2.c ****     stat = osErrorISR;
 2292              		.loc 1 577 0
 2293 0030 002B     		cmp	r3, #0
 2294 0032 EFD0     		beq	.L244
 578:Middlewares/Third_Party/FreeRTOS/Source/CMSIS_RTOS_V2/cmsis_os2.c ****   }
 2295              		.loc 1 578 0
 2296 0034 6FF00500 		mvn	r0, #5
 2297              	.LVL183:
 2298 0038 7047     		bx	lr
 2299              	.LVL184:
 2300              	.L245:
 2301 003a 6FF00500 		mvn	r0, #5
 2302              	.LVL185:
 2303 003e 7047     		bx	lr
 2304              	.LVL186:
 2305              	.L246:
 2306 0040 6FF00500 		mvn	r0, #5
 2307              	.LVL187:
 2308 0044 7047     		bx	lr
 2309              	.LVL188:
 2310              	.L248:
 581:Middlewares/Third_Party/FreeRTOS/Source/CMSIS_RTOS_V2/cmsis_os2.c ****   }
 2311              		.loc 1 581 0
 2312 0046 6FF00300 		mvn	r0, #3
 2313              	.LVL189:
 2314 004a 7047     		bx	lr
 2315              	.LVL190:
 2316              	.L249:
 2317              	.LCFI24:
 2318              		.cfi_def_cfa_offset 8
 2319              		.cfi_offset 4, -8
 2320              		.cfi_offset 14, -4
 590:Middlewares/Third_Party/FreeRTOS/Source/CMSIS_RTOS_V2/cmsis_os2.c ****     }
 2321              		.loc 1 590 0
 2322 004c 6FF00200 		mvn	r0, #2
 2323              	.LVL191:
 598:Middlewares/Third_Party/FreeRTOS/Source/CMSIS_RTOS_V2/cmsis_os2.c **** 
 2324              		.loc 1 598 0
 2325 0050 10BD     		pop	{r4, pc}
 2326              	.LVL192:
 2327              	.L256:
 2328 0052 00BF     		.align	2
 2329              	.L255:
 2330 0054 00000000 		.word	.LANCHOR0
 2331              		.cfi_endproc
 2332              	.LFE71:
ARM GAS  /tmp/cce47g5y.s 			page 73


 2334              		.section	.text.osThreadGetCount,"ax",%progbits
 2335              		.align	1
 2336              		.global	osThreadGetCount
 2337              		.syntax unified
 2338              		.thumb
 2339              		.thumb_func
 2340              		.fpu softvfp
 2342              	osThreadGetCount:
 2343              	.LFB72:
 600:Middlewares/Third_Party/FreeRTOS/Source/CMSIS_RTOS_V2/cmsis_os2.c ****   uint32_t count;
 2344              		.loc 1 600 0
 2345              		.cfi_startproc
 2346              		@ args = 0, pretend = 0, frame = 0
 2347              		@ frame_needed = 0, uses_anonymous_args = 0
 2348              	.LBB440:
 2349              	.LBB441:
 209:Drivers/CMSIS/Include/cmsis_gcc.h ****   return(result);
 2350              		.loc 2 209 0
 2351              		.syntax unified
 2352              	@ 209 "Drivers/CMSIS/Include/cmsis_gcc.h" 1
 2353 0000 EFF30580 		MRS r0, ipsr
 2354              	@ 0 "" 2
 2355              		.thumb
 2356              		.syntax unified
 2357              	.LBE441:
 2358              	.LBE440:
 603:Middlewares/Third_Party/FreeRTOS/Source/CMSIS_RTOS_V2/cmsis_os2.c ****     count = 0U;
 2359              		.loc 1 603 0
 2360 0004 80B9     		cbnz	r0, .L260
 600:Middlewares/Third_Party/FreeRTOS/Source/CMSIS_RTOS_V2/cmsis_os2.c ****   uint32_t count;
 2361              		.loc 1 600 0
 2362 0006 08B5     		push	{r3, lr}
 2363              	.LCFI25:
 2364              		.cfi_def_cfa_offset 8
 2365              		.cfi_offset 3, -8
 2366              		.cfi_offset 14, -4
 2367              	.LBB442:
 2368              	.LBB443:
 386:Drivers/CMSIS/Include/cmsis_gcc.h ****   return(result);
 2369              		.loc 2 386 0
 2370              		.syntax unified
 2371              	@ 386 "Drivers/CMSIS/Include/cmsis_gcc.h" 1
 2372 0008 EFF31083 		MRS r3, primask
 2373              	@ 0 "" 2
 2374              		.thumb
 2375              		.syntax unified
 2376              	.LBE443:
 2377              	.LBE442:
 603:Middlewares/Third_Party/FreeRTOS/Source/CMSIS_RTOS_V2/cmsis_os2.c ****     count = 0U;
 2378              		.loc 1 603 0
 2379 000c 5BB9     		cbnz	r3, .L257
 603:Middlewares/Third_Party/FreeRTOS/Source/CMSIS_RTOS_V2/cmsis_os2.c ****     count = 0U;
 2380              		.loc 1 603 0 is_stmt 0 discriminator 2
 2381 000e 074A     		ldr	r2, .L267
 2382 0010 1268     		ldr	r2, [r2]
 2383 0012 022A     		cmp	r2, #2
 2384 0014 02D0     		beq	.L266
ARM GAS  /tmp/cce47g5y.s 			page 74


 2385              	.L259:
 606:Middlewares/Third_Party/FreeRTOS/Source/CMSIS_RTOS_V2/cmsis_os2.c ****   }
 2386              		.loc 1 606 0 is_stmt 1
 2387 0016 FFF7FEFF 		bl	uxTaskGetNumberOfTasks
 2388              	.LVL193:
 2389 001a 08BD     		pop	{r3, pc}
 2390              	.LVL194:
 2391              	.L266:
 2392              	.LBB444:
 2393              	.LBB445:
 2394              		.loc 2 465 0
 2395              		.syntax unified
 2396              	@ 465 "Drivers/CMSIS/Include/cmsis_gcc.h" 1
 2397 001c EFF31182 		MRS r2, basepri
 2398              	@ 0 "" 2
 2399              		.thumb
 2400              		.syntax unified
 2401              	.LBE445:
 2402              	.LBE444:
 603:Middlewares/Third_Party/FreeRTOS/Source/CMSIS_RTOS_V2/cmsis_os2.c ****     count = 0U;
 2403              		.loc 1 603 0
 2404 0020 002A     		cmp	r2, #0
 2405 0022 F8D0     		beq	.L259
 604:Middlewares/Third_Party/FreeRTOS/Source/CMSIS_RTOS_V2/cmsis_os2.c ****   } else {
 2406              		.loc 1 604 0
 2407 0024 1846     		mov	r0, r3
 2408              	.LVL195:
 2409              	.L257:
 610:Middlewares/Third_Party/FreeRTOS/Source/CMSIS_RTOS_V2/cmsis_os2.c **** 
 2410              		.loc 1 610 0
 2411 0026 08BD     		pop	{r3, pc}
 2412              	.L260:
 2413              	.LCFI26:
 2414              		.cfi_def_cfa_offset 0
 2415              		.cfi_restore 3
 2416              		.cfi_restore 14
 604:Middlewares/Third_Party/FreeRTOS/Source/CMSIS_RTOS_V2/cmsis_os2.c ****   } else {
 2417              		.loc 1 604 0
 2418 0028 0020     		movs	r0, #0
 2419 002a 7047     		bx	lr
 2420              	.L268:
 2421              		.align	2
 2422              	.L267:
 2423 002c 00000000 		.word	.LANCHOR0
 2424              		.cfi_endproc
 2425              	.LFE72:
 2427              		.section	.text.osThreadEnumerate,"ax",%progbits
 2428              		.align	1
 2429              		.global	osThreadEnumerate
 2430              		.syntax unified
 2431              		.thumb
 2432              		.thumb_func
 2433              		.fpu softvfp
 2435              	osThreadEnumerate:
 2436              	.LFB73:
 612:Middlewares/Third_Party/FreeRTOS/Source/CMSIS_RTOS_V2/cmsis_os2.c ****   uint32_t i, count;
 2437              		.loc 1 612 0
ARM GAS  /tmp/cce47g5y.s 			page 75


 2438              		.cfi_startproc
 2439              		@ args = 0, pretend = 0, frame = 0
 2440              		@ frame_needed = 0, uses_anonymous_args = 0
 2441              	.LVL196:
 2442 0000 2DE9F041 		push	{r4, r5, r6, r7, r8, lr}
 2443              	.LCFI27:
 2444              		.cfi_def_cfa_offset 24
 2445              		.cfi_offset 4, -24
 2446              		.cfi_offset 5, -20
 2447              		.cfi_offset 6, -16
 2448              		.cfi_offset 7, -12
 2449              		.cfi_offset 8, -8
 2450              		.cfi_offset 14, -4
 2451              	.LBB446:
 2452              	.LBB447:
 209:Drivers/CMSIS/Include/cmsis_gcc.h ****   return(result);
 2453              		.loc 2 209 0
 2454              		.syntax unified
 2455              	@ 209 "Drivers/CMSIS/Include/cmsis_gcc.h" 1
 2456 0004 EFF30584 		MRS r4, ipsr
 2457              	@ 0 "" 2
 2458              		.thumb
 2459              		.syntax unified
 2460              	.LBE447:
 2461              	.LBE446:
 616:Middlewares/Third_Party/FreeRTOS/Source/CMSIS_RTOS_V2/cmsis_os2.c ****     count = 0U;
 2462              		.loc 1 616 0
 2463 0008 B4BB     		cbnz	r4, .L275
 2464              	.LBB448:
 2465              	.LBB449:
 386:Drivers/CMSIS/Include/cmsis_gcc.h ****   return(result);
 2466              		.loc 2 386 0
 2467              		.syntax unified
 2468              	@ 386 "Drivers/CMSIS/Include/cmsis_gcc.h" 1
 2469 000a EFF31087 		MRS r7, primask
 2470              	@ 0 "" 2
 2471              		.thumb
 2472              		.syntax unified
 2473              	.LBE449:
 2474              	.LBE448:
 616:Middlewares/Third_Party/FreeRTOS/Source/CMSIS_RTOS_V2/cmsis_os2.c ****     count = 0U;
 2475              		.loc 1 616 0
 2476 000e A7BB     		cbnz	r7, .L269
 616:Middlewares/Third_Party/FreeRTOS/Source/CMSIS_RTOS_V2/cmsis_os2.c ****     count = 0U;
 2477              		.loc 1 616 0 is_stmt 0 discriminator 2
 2478 0010 1C4B     		ldr	r3, .L282
 2479 0012 1B68     		ldr	r3, [r3]
 2480 0014 022B     		cmp	r3, #2
 2481 0016 03D0     		beq	.L280
 2482              	.L271:
 616:Middlewares/Third_Party/FreeRTOS/Source/CMSIS_RTOS_V2/cmsis_os2.c ****     count = 0U;
 2483              		.loc 1 616 0 discriminator 5
 2484 0018 90B3     		cbz	r0, .L277
 616:Middlewares/Third_Party/FreeRTOS/Source/CMSIS_RTOS_V2/cmsis_os2.c ****     count = 0U;
 2485              		.loc 1 616 0 discriminator 6
 2486 001a 39B9     		cbnz	r1, .L281
 617:Middlewares/Third_Party/FreeRTOS/Source/CMSIS_RTOS_V2/cmsis_os2.c ****   } else {
ARM GAS  /tmp/cce47g5y.s 			page 76


 2487              		.loc 1 617 0 is_stmt 1
 2488 001c 0C46     		mov	r4, r1
 2489              	.LVL197:
 637:Middlewares/Third_Party/FreeRTOS/Source/CMSIS_RTOS_V2/cmsis_os2.c **** }
 2490              		.loc 1 637 0
 2491 001e 2CE0     		b	.L269
 2492              	.LVL198:
 2493              	.L280:
 2494              	.LBB450:
 2495              	.LBB451:
 2496              		.loc 2 465 0
 2497              		.syntax unified
 2498              	@ 465 "Drivers/CMSIS/Include/cmsis_gcc.h" 1
 2499 0020 EFF31183 		MRS r3, basepri
 2500              	@ 0 "" 2
 2501              		.thumb
 2502              		.syntax unified
 2503              	.LBE451:
 2504              	.LBE450:
 616:Middlewares/Third_Party/FreeRTOS/Source/CMSIS_RTOS_V2/cmsis_os2.c ****     count = 0U;
 2505              		.loc 1 616 0
 2506 0024 002B     		cmp	r3, #0
 2507 0026 F7D0     		beq	.L271
 617:Middlewares/Third_Party/FreeRTOS/Source/CMSIS_RTOS_V2/cmsis_os2.c ****   } else {
 2508              		.loc 1 617 0
 2509 0028 3C46     		mov	r4, r7
 2510 002a 26E0     		b	.L269
 2511              	.L281:
 2512 002c 0D46     		mov	r5, r1
 2513 002e 0646     		mov	r6, r0
 619:Middlewares/Third_Party/FreeRTOS/Source/CMSIS_RTOS_V2/cmsis_os2.c **** 
 2514              		.loc 1 619 0
 2515 0030 FFF7FEFF 		bl	vTaskSuspendAll
 2516              	.LVL199:
 621:Middlewares/Third_Party/FreeRTOS/Source/CMSIS_RTOS_V2/cmsis_os2.c ****     task  = pvPortMalloc (count * sizeof(TaskStatus_t));
 2517              		.loc 1 621 0
 2518 0034 FFF7FEFF 		bl	uxTaskGetNumberOfTasks
 2519              	.LVL200:
 2520 0038 0446     		mov	r4, r0
 2521              	.LVL201:
 622:Middlewares/Third_Party/FreeRTOS/Source/CMSIS_RTOS_V2/cmsis_os2.c **** 
 2522              		.loc 1 622 0
 2523 003a 00EBC003 		add	r3, r0, r0, lsl #3
 2524 003e 9800     		lsls	r0, r3, #2
 2525              	.LVL202:
 2526 0040 FFF7FEFF 		bl	pvPortMalloc
 2527              	.LVL203:
 624:Middlewares/Third_Party/FreeRTOS/Source/CMSIS_RTOS_V2/cmsis_os2.c ****       count = uxTaskGetSystemState (task, count, NULL);
 2528              		.loc 1 624 0
 2529 0044 8046     		mov	r8, r0
 2530 0046 88B1     		cbz	r0, .L272
 625:Middlewares/Third_Party/FreeRTOS/Source/CMSIS_RTOS_V2/cmsis_os2.c **** 
 2531              		.loc 1 625 0
 2532 0048 0022     		movs	r2, #0
 2533 004a 2146     		mov	r1, r4
 2534 004c FFF7FEFF 		bl	uxTaskGetSystemState
 2535              	.LVL204:
ARM GAS  /tmp/cce47g5y.s 			page 77


 627:Middlewares/Third_Party/FreeRTOS/Source/CMSIS_RTOS_V2/cmsis_os2.c ****         thread_array[i] = (osThreadId_t)task[i].xHandle;
 2536              		.loc 1 627 0
 2537 0050 3C46     		mov	r4, r7
 2538 0052 07E0     		b	.L273
 2539              	.LVL205:
 2540              	.L274:
 628:Middlewares/Third_Party/FreeRTOS/Source/CMSIS_RTOS_V2/cmsis_os2.c ****       }
 2541              		.loc 1 628 0 discriminator 4
 2542 0054 04EBC402 		add	r2, r4, r4, lsl #3
 2543 0058 9300     		lsls	r3, r2, #2
 2544 005a 58F80330 		ldr	r3, [r8, r3]
 2545 005e 46F82430 		str	r3, [r6, r4, lsl #2]
 627:Middlewares/Third_Party/FreeRTOS/Source/CMSIS_RTOS_V2/cmsis_os2.c ****         thread_array[i] = (osThreadId_t)task[i].xHandle;
 2546              		.loc 1 627 0 discriminator 4
 2547 0062 0134     		adds	r4, r4, #1
 2548              	.LVL206:
 2549              	.L273:
 627:Middlewares/Third_Party/FreeRTOS/Source/CMSIS_RTOS_V2/cmsis_os2.c ****         thread_array[i] = (osThreadId_t)task[i].xHandle;
 2550              		.loc 1 627 0 is_stmt 0 discriminator 1
 2551 0064 8442     		cmp	r4, r0
 2552 0066 01D2     		bcs	.L272
 627:Middlewares/Third_Party/FreeRTOS/Source/CMSIS_RTOS_V2/cmsis_os2.c ****         thread_array[i] = (osThreadId_t)task[i].xHandle;
 2553              		.loc 1 627 0 discriminator 3
 2554 0068 AC42     		cmp	r4, r5
 2555 006a F3D3     		bcc	.L274
 2556              	.LVL207:
 2557              	.L272:
 632:Middlewares/Third_Party/FreeRTOS/Source/CMSIS_RTOS_V2/cmsis_os2.c **** 
 2558              		.loc 1 632 0 is_stmt 1
 2559 006c FFF7FEFF 		bl	xTaskResumeAll
 2560              	.LVL208:
 634:Middlewares/Third_Party/FreeRTOS/Source/CMSIS_RTOS_V2/cmsis_os2.c ****   }
 2561              		.loc 1 634 0
 2562 0070 4046     		mov	r0, r8
 2563 0072 FFF7FEFF 		bl	vPortFree
 2564              	.LVL209:
 2565 0076 00E0     		b	.L269
 2566              	.LVL210:
 2567              	.L275:
 617:Middlewares/Third_Party/FreeRTOS/Source/CMSIS_RTOS_V2/cmsis_os2.c ****   } else {
 2568              		.loc 1 617 0
 2569 0078 0024     		movs	r4, #0
 2570              	.LVL211:
 2571              	.L269:
 638:Middlewares/Third_Party/FreeRTOS/Source/CMSIS_RTOS_V2/cmsis_os2.c **** 
 2572              		.loc 1 638 0
 2573 007a 2046     		mov	r0, r4
 2574 007c BDE8F081 		pop	{r4, r5, r6, r7, r8, pc}
 2575              	.LVL212:
 2576              	.L277:
 617:Middlewares/Third_Party/FreeRTOS/Source/CMSIS_RTOS_V2/cmsis_os2.c ****   } else {
 2577              		.loc 1 617 0
 2578 0080 3C46     		mov	r4, r7
 2579 0082 FAE7     		b	.L269
 2580              	.L283:
 2581              		.align	2
 2582              	.L282:
ARM GAS  /tmp/cce47g5y.s 			page 78


 2583 0084 00000000 		.word	.LANCHOR0
 2584              		.cfi_endproc
 2585              	.LFE73:
 2587              		.section	.text.osThreadFlagsSet,"ax",%progbits
 2588              		.align	1
 2589              		.global	osThreadFlagsSet
 2590              		.syntax unified
 2591              		.thumb
 2592              		.thumb_func
 2593              		.fpu softvfp
 2595              	osThreadFlagsSet:
 2596              	.LFB74:
 640:Middlewares/Third_Party/FreeRTOS/Source/CMSIS_RTOS_V2/cmsis_os2.c ****   TaskHandle_t hTask = (TaskHandle_t)thread_id;
 2597              		.loc 1 640 0
 2598              		.cfi_startproc
 2599              		@ args = 0, pretend = 0, frame = 8
 2600              		@ frame_needed = 0, uses_anonymous_args = 0
 2601              	.LVL213:
 2602 0000 30B5     		push	{r4, r5, lr}
 2603              	.LCFI28:
 2604              		.cfi_def_cfa_offset 12
 2605              		.cfi_offset 4, -12
 2606              		.cfi_offset 5, -8
 2607              		.cfi_offset 14, -4
 2608 0002 85B0     		sub	sp, sp, #20
 2609              	.LCFI29:
 2610              		.cfi_def_cfa_offset 32
 2611              	.LVL214:
 645:Middlewares/Third_Party/FreeRTOS/Source/CMSIS_RTOS_V2/cmsis_os2.c ****     rflags = (uint32_t)osErrorParameter;
 2612              		.loc 1 645 0
 2613 0004 D8B1     		cbz	r0, .L285
 2614 0006 0446     		mov	r4, r0
 645:Middlewares/Third_Party/FreeRTOS/Source/CMSIS_RTOS_V2/cmsis_os2.c ****     rflags = (uint32_t)osErrorParameter;
 2615              		.loc 1 645 0 is_stmt 0 discriminator 1
 2616 0008 0029     		cmp	r1, #0
 2617 000a 18DB     		blt	.L285
 649:Middlewares/Third_Party/FreeRTOS/Source/CMSIS_RTOS_V2/cmsis_os2.c **** 
 2618              		.loc 1 649 0 is_stmt 1
 2619 000c 4FF0FF33 		mov	r3, #-1
 2620 0010 0393     		str	r3, [sp, #12]
 2621              	.LBB452:
 2622              	.LBB453:
 209:Drivers/CMSIS/Include/cmsis_gcc.h ****   return(result);
 2623              		.loc 2 209 0
 2624              		.syntax unified
 2625              	@ 209 "Drivers/CMSIS/Include/cmsis_gcc.h" 1
 2626 0012 EFF30583 		MRS r3, ipsr
 2627              	@ 0 "" 2
 2628              		.thumb
 2629              		.syntax unified
 2630              	.LBE453:
 2631              	.LBE452:
 651:Middlewares/Third_Party/FreeRTOS/Source/CMSIS_RTOS_V2/cmsis_os2.c ****       yield = pdFALSE;
 2632              		.loc 1 651 0
 2633 0016 E3B9     		cbnz	r3, .L288
 2634              	.LBB454:
 2635              	.LBB455:
ARM GAS  /tmp/cce47g5y.s 			page 79


 386:Drivers/CMSIS/Include/cmsis_gcc.h ****   return(result);
 2636              		.loc 2 386 0
 2637              		.syntax unified
 2638              	@ 386 "Drivers/CMSIS/Include/cmsis_gcc.h" 1
 2639 0018 EFF31083 		MRS r3, primask
 2640              	@ 0 "" 2
 2641              		.thumb
 2642              		.syntax unified
 2643              	.LBE455:
 2644              	.LBE454:
 651:Middlewares/Third_Party/FreeRTOS/Source/CMSIS_RTOS_V2/cmsis_os2.c ****       yield = pdFALSE;
 2645              		.loc 1 651 0
 2646 001c CBB9     		cbnz	r3, .L288
 651:Middlewares/Third_Party/FreeRTOS/Source/CMSIS_RTOS_V2/cmsis_os2.c ****       yield = pdFALSE;
 2647              		.loc 1 651 0 is_stmt 0 discriminator 2
 2648 001e 1B4B     		ldr	r3, .L292
 2649 0020 1B68     		ldr	r3, [r3]
 2650 0022 022B     		cmp	r3, #2
 2651 0024 11D0     		beq	.L291
 2652              	.L289:
 660:Middlewares/Third_Party/FreeRTOS/Source/CMSIS_RTOS_V2/cmsis_os2.c ****       (void)xTaskNotifyAndQuery (hTask, 0, eNoAction, &rflags);
 2653              		.loc 1 660 0 is_stmt 1
 2654 0026 0023     		movs	r3, #0
 2655 0028 0122     		movs	r2, #1
 2656 002a 2046     		mov	r0, r4
 2657              	.LVL215:
 2658 002c FFF7FEFF 		bl	xTaskGenericNotify
 2659              	.LVL216:
 661:Middlewares/Third_Party/FreeRTOS/Source/CMSIS_RTOS_V2/cmsis_os2.c ****     }
 2660              		.loc 1 661 0
 2661 0030 03AB     		add	r3, sp, #12
 2662 0032 0022     		movs	r2, #0
 2663 0034 1146     		mov	r1, r2
 2664 0036 2046     		mov	r0, r4
 2665 0038 FFF7FEFF 		bl	xTaskGenericNotify
 2666              	.LVL217:
 2667 003c 02E0     		b	.L287
 2668              	.LVL218:
 2669              	.L285:
 646:Middlewares/Third_Party/FreeRTOS/Source/CMSIS_RTOS_V2/cmsis_os2.c ****   }
 2670              		.loc 1 646 0
 2671 003e 6FF00303 		mvn	r3, #3
 2672 0042 0393     		str	r3, [sp, #12]
 2673              	.LVL219:
 2674              	.L287:
 666:Middlewares/Third_Party/FreeRTOS/Source/CMSIS_RTOS_V2/cmsis_os2.c **** 
 2675              		.loc 1 666 0
 2676 0044 0398     		ldr	r0, [sp, #12]
 2677 0046 05B0     		add	sp, sp, #20
 2678              	.LCFI30:
 2679              		.cfi_remember_state
 2680              		.cfi_def_cfa_offset 12
 2681              		@ sp needed
 2682 0048 30BD     		pop	{r4, r5, pc}
 2683              	.LVL220:
 2684              	.L291:
 2685              	.LCFI31:
ARM GAS  /tmp/cce47g5y.s 			page 80


 2686              		.cfi_restore_state
 2687              	.LBB456:
 2688              	.LBB457:
 2689              		.loc 2 465 0
 2690              		.syntax unified
 2691              	@ 465 "Drivers/CMSIS/Include/cmsis_gcc.h" 1
 2692 004a EFF31183 		MRS r3, basepri
 2693              	@ 0 "" 2
 2694              		.thumb
 2695              		.syntax unified
 2696              	.LBE457:
 2697              	.LBE456:
 651:Middlewares/Third_Party/FreeRTOS/Source/CMSIS_RTOS_V2/cmsis_os2.c ****       yield = pdFALSE;
 2698              		.loc 1 651 0
 2699 004e 002B     		cmp	r3, #0
 2700 0050 E9D0     		beq	.L289
 2701              	.L288:
 652:Middlewares/Third_Party/FreeRTOS/Source/CMSIS_RTOS_V2/cmsis_os2.c **** 
 2702              		.loc 1 652 0
 2703 0052 0025     		movs	r5, #0
 2704 0054 04AB     		add	r3, sp, #16
 2705 0056 43F8085D 		str	r5, [r3, #-8]!
 654:Middlewares/Third_Party/FreeRTOS/Source/CMSIS_RTOS_V2/cmsis_os2.c ****       (void)xTaskNotifyAndQueryFromISR (hTask, 0, eNoAction, &rflags, NULL);
 2706              		.loc 1 654 0
 2707 005a 0093     		str	r3, [sp]
 2708 005c 2B46     		mov	r3, r5
 2709 005e 0122     		movs	r2, #1
 2710 0060 2046     		mov	r0, r4
 2711              	.LVL221:
 2712 0062 FFF7FEFF 		bl	xTaskGenericNotifyFromISR
 2713              	.LVL222:
 655:Middlewares/Third_Party/FreeRTOS/Source/CMSIS_RTOS_V2/cmsis_os2.c **** 
 2714              		.loc 1 655 0
 2715 0066 0095     		str	r5, [sp]
 2716 0068 03AB     		add	r3, sp, #12
 2717 006a 2A46     		mov	r2, r5
 2718 006c 2946     		mov	r1, r5
 2719 006e 2046     		mov	r0, r4
 2720 0070 FFF7FEFF 		bl	xTaskGenericNotifyFromISR
 2721              	.LVL223:
 657:Middlewares/Third_Party/FreeRTOS/Source/CMSIS_RTOS_V2/cmsis_os2.c ****     }
 2722              		.loc 1 657 0
 2723 0074 029B     		ldr	r3, [sp, #8]
 2724 0076 002B     		cmp	r3, #0
 2725 0078 E4D0     		beq	.L287
 657:Middlewares/Third_Party/FreeRTOS/Source/CMSIS_RTOS_V2/cmsis_os2.c ****     }
 2726              		.loc 1 657 0 is_stmt 0 discriminator 1
 2727 007a 4FF08052 		mov	r2, #268435456
 2728 007e 044B     		ldr	r3, .L292+4
 2729 0080 1A60     		str	r2, [r3]
 2730              		.syntax unified
 2731              	@ 657 "Middlewares/Third_Party/FreeRTOS/Source/CMSIS_RTOS_V2/cmsis_os2.c" 1
 2732 0082 BFF34F8F 		dsb
 2733              	@ 0 "" 2
 2734              	@ 657 "Middlewares/Third_Party/FreeRTOS/Source/CMSIS_RTOS_V2/cmsis_os2.c" 1
 2735 0086 BFF36F8F 		isb
 2736              	@ 0 "" 2
ARM GAS  /tmp/cce47g5y.s 			page 81


 2737              		.thumb
 2738              		.syntax unified
 2739 008a DBE7     		b	.L287
 2740              	.L293:
 2741              		.align	2
 2742              	.L292:
 2743 008c 00000000 		.word	.LANCHOR0
 2744 0090 04ED00E0 		.word	-536810236
 2745              		.cfi_endproc
 2746              	.LFE74:
 2748              		.section	.text.osThreadFlagsClear,"ax",%progbits
 2749              		.align	1
 2750              		.global	osThreadFlagsClear
 2751              		.syntax unified
 2752              		.thumb
 2753              		.thumb_func
 2754              		.fpu softvfp
 2756              	osThreadFlagsClear:
 2757              	.LFB75:
 668:Middlewares/Third_Party/FreeRTOS/Source/CMSIS_RTOS_V2/cmsis_os2.c ****   TaskHandle_t hTask;
 2758              		.loc 1 668 0 is_stmt 1
 2759              		.cfi_startproc
 2760              		@ args = 0, pretend = 0, frame = 8
 2761              		@ frame_needed = 0, uses_anonymous_args = 0
 2762              	.LVL224:
 2763 0000 70B5     		push	{r4, r5, r6, lr}
 2764              	.LCFI32:
 2765              		.cfi_def_cfa_offset 16
 2766              		.cfi_offset 4, -16
 2767              		.cfi_offset 5, -12
 2768              		.cfi_offset 6, -8
 2769              		.cfi_offset 14, -4
 2770 0002 82B0     		sub	sp, sp, #8
 2771              	.LCFI33:
 2772              		.cfi_def_cfa_offset 24
 2773              	.LBB458:
 2774              	.LBB459:
 209:Drivers/CMSIS/Include/cmsis_gcc.h ****   return(result);
 2775              		.loc 2 209 0
 2776              		.syntax unified
 2777              	@ 209 "Drivers/CMSIS/Include/cmsis_gcc.h" 1
 2778 0004 EFF30583 		MRS r3, ipsr
 2779              	@ 0 "" 2
 2780              		.thumb
 2781              		.syntax unified
 2782              	.LBE459:
 2783              	.LBE458:
 672:Middlewares/Third_Party/FreeRTOS/Source/CMSIS_RTOS_V2/cmsis_os2.c ****     rflags = (uint32_t)osErrorISR;
 2784              		.loc 1 672 0
 2785 0008 23B1     		cbz	r3, .L304
 673:Middlewares/Third_Party/FreeRTOS/Source/CMSIS_RTOS_V2/cmsis_os2.c ****   }
 2786              		.loc 1 673 0
 2787 000a 6FF00504 		mvn	r4, #5
 2788              	.LVL225:
 2789              	.L294:
 696:Middlewares/Third_Party/FreeRTOS/Source/CMSIS_RTOS_V2/cmsis_os2.c **** 
 2790              		.loc 1 696 0
ARM GAS  /tmp/cce47g5y.s 			page 82


 2791 000e 2046     		mov	r0, r4
 2792 0010 02B0     		add	sp, sp, #8
 2793              	.LCFI34:
 2794              		.cfi_remember_state
 2795              		.cfi_def_cfa_offset 16
 2796              		@ sp needed
 2797 0012 70BD     		pop	{r4, r5, r6, pc}
 2798              	.LVL226:
 2799              	.L304:
 2800              	.LCFI35:
 2801              		.cfi_restore_state
 2802              	.LBB460:
 2803              	.LBB461:
 386:Drivers/CMSIS/Include/cmsis_gcc.h ****   return(result);
 2804              		.loc 2 386 0
 2805              		.syntax unified
 2806              	@ 386 "Drivers/CMSIS/Include/cmsis_gcc.h" 1
 2807 0014 EFF31083 		MRS r3, primask
 2808              	@ 0 "" 2
 2809              		.thumb
 2810              		.syntax unified
 2811              	.LBE461:
 2812              	.LBE460:
 672:Middlewares/Third_Party/FreeRTOS/Source/CMSIS_RTOS_V2/cmsis_os2.c ****     rflags = (uint32_t)osErrorISR;
 2813              		.loc 1 672 0
 2814 0018 13B1     		cbz	r3, .L305
 673:Middlewares/Third_Party/FreeRTOS/Source/CMSIS_RTOS_V2/cmsis_os2.c ****   }
 2815              		.loc 1 673 0
 2816 001a 6FF00504 		mvn	r4, #5
 2817 001e F6E7     		b	.L294
 2818              	.L305:
 672:Middlewares/Third_Party/FreeRTOS/Source/CMSIS_RTOS_V2/cmsis_os2.c ****     rflags = (uint32_t)osErrorISR;
 2819              		.loc 1 672 0 discriminator 2
 2820 0020 154B     		ldr	r3, .L309
 2821 0022 1B68     		ldr	r3, [r3]
 2822 0024 022B     		cmp	r3, #2
 2823 0026 04D0     		beq	.L306
 2824              	.L296:
 675:Middlewares/Third_Party/FreeRTOS/Source/CMSIS_RTOS_V2/cmsis_os2.c ****     rflags = (uint32_t)osErrorParameter;
 2825              		.loc 1 675 0
 2826 0028 0028     		cmp	r0, #0
 2827 002a 09DA     		bge	.L307
 676:Middlewares/Third_Party/FreeRTOS/Source/CMSIS_RTOS_V2/cmsis_os2.c ****   }
 2828              		.loc 1 676 0
 2829 002c 6FF00304 		mvn	r4, #3
 2830 0030 EDE7     		b	.L294
 2831              	.L306:
 2832              	.LBB462:
 2833              	.LBB463:
 2834              		.loc 2 465 0
 2835              		.syntax unified
 2836              	@ 465 "Drivers/CMSIS/Include/cmsis_gcc.h" 1
 2837 0032 EFF31183 		MRS r3, basepri
 2838              	@ 0 "" 2
 2839              		.thumb
 2840              		.syntax unified
 2841              	.LBE463:
ARM GAS  /tmp/cce47g5y.s 			page 83


 2842              	.LBE462:
 672:Middlewares/Third_Party/FreeRTOS/Source/CMSIS_RTOS_V2/cmsis_os2.c ****     rflags = (uint32_t)osErrorISR;
 2843              		.loc 1 672 0
 2844 0036 002B     		cmp	r3, #0
 2845 0038 F6D0     		beq	.L296
 673:Middlewares/Third_Party/FreeRTOS/Source/CMSIS_RTOS_V2/cmsis_os2.c ****   }
 2846              		.loc 1 673 0
 2847 003a 6FF00504 		mvn	r4, #5
 2848 003e E6E7     		b	.L294
 2849              	.L307:
 2850 0040 0546     		mov	r5, r0
 679:Middlewares/Third_Party/FreeRTOS/Source/CMSIS_RTOS_V2/cmsis_os2.c **** 
 2851              		.loc 1 679 0
 2852 0042 FFF7FEFF 		bl	xTaskGetCurrentTaskHandle
 2853              	.LVL227:
 2854 0046 0646     		mov	r6, r0
 2855              	.LVL228:
 681:Middlewares/Third_Party/FreeRTOS/Source/CMSIS_RTOS_V2/cmsis_os2.c ****       rflags = cflags;
 2856              		.loc 1 681 0
 2857 0048 01AB     		add	r3, sp, #4
 2858 004a 0022     		movs	r2, #0
 2859 004c 1146     		mov	r1, r2
 2860 004e FFF7FEFF 		bl	xTaskGenericNotify
 2861              	.LVL229:
 2862 0052 0128     		cmp	r0, #1
 2863 0054 02D0     		beq	.L308
 690:Middlewares/Third_Party/FreeRTOS/Source/CMSIS_RTOS_V2/cmsis_os2.c ****     }
 2864              		.loc 1 690 0
 2865 0056 4FF0FF34 		mov	r4, #-1
 2866 005a D8E7     		b	.L294
 2867              	.L308:
 682:Middlewares/Third_Party/FreeRTOS/Source/CMSIS_RTOS_V2/cmsis_os2.c ****       cflags &= ~flags;
 2868              		.loc 1 682 0
 2869 005c 019C     		ldr	r4, [sp, #4]
 2870              	.LVL230:
 683:Middlewares/Third_Party/FreeRTOS/Source/CMSIS_RTOS_V2/cmsis_os2.c **** 
 2871              		.loc 1 683 0
 2872 005e 24EA0501 		bic	r1, r4, r5
 2873 0062 0191     		str	r1, [sp, #4]
 685:Middlewares/Third_Party/FreeRTOS/Source/CMSIS_RTOS_V2/cmsis_os2.c ****         rflags = (uint32_t)osError;
 2874              		.loc 1 685 0
 2875 0064 0023     		movs	r3, #0
 2876 0066 0322     		movs	r2, #3
 2877 0068 3046     		mov	r0, r6
 2878 006a FFF7FEFF 		bl	xTaskGenericNotify
 2879              	.LVL231:
 2880 006e 0128     		cmp	r0, #1
 2881 0070 CDD0     		beq	.L294
 686:Middlewares/Third_Party/FreeRTOS/Source/CMSIS_RTOS_V2/cmsis_os2.c ****       }
 2882              		.loc 1 686 0
 2883 0072 4FF0FF34 		mov	r4, #-1
 2884              	.LVL232:
 695:Middlewares/Third_Party/FreeRTOS/Source/CMSIS_RTOS_V2/cmsis_os2.c **** }
 2885              		.loc 1 695 0
 2886 0076 CAE7     		b	.L294
 2887              	.L310:
 2888              		.align	2
ARM GAS  /tmp/cce47g5y.s 			page 84


 2889              	.L309:
 2890 0078 00000000 		.word	.LANCHOR0
 2891              		.cfi_endproc
 2892              	.LFE75:
 2894              		.section	.text.osThreadFlagsGet,"ax",%progbits
 2895              		.align	1
 2896              		.global	osThreadFlagsGet
 2897              		.syntax unified
 2898              		.thumb
 2899              		.thumb_func
 2900              		.fpu softvfp
 2902              	osThreadFlagsGet:
 2903              	.LFB76:
 698:Middlewares/Third_Party/FreeRTOS/Source/CMSIS_RTOS_V2/cmsis_os2.c ****   TaskHandle_t hTask;
 2904              		.loc 1 698 0
 2905              		.cfi_startproc
 2906              		@ args = 0, pretend = 0, frame = 8
 2907              		@ frame_needed = 0, uses_anonymous_args = 0
 2908 0000 00B5     		push	{lr}
 2909              	.LCFI36:
 2910              		.cfi_def_cfa_offset 4
 2911              		.cfi_offset 14, -4
 2912 0002 83B0     		sub	sp, sp, #12
 2913              	.LCFI37:
 2914              		.cfi_def_cfa_offset 16
 2915              	.LBB464:
 2916              	.LBB465:
 209:Drivers/CMSIS/Include/cmsis_gcc.h ****   return(result);
 2917              		.loc 2 209 0
 2918              		.syntax unified
 2919              	@ 209 "Drivers/CMSIS/Include/cmsis_gcc.h" 1
 2920 0004 EFF30583 		MRS r3, ipsr
 2921              	@ 0 "" 2
 2922              		.thumb
 2923              		.syntax unified
 2924              	.LBE465:
 2925              	.LBE464:
 702:Middlewares/Third_Party/FreeRTOS/Source/CMSIS_RTOS_V2/cmsis_os2.c ****     rflags = (uint32_t)osErrorISR;
 2926              		.loc 1 702 0
 2927 0008 BBB9     		cbnz	r3, .L312
 2928              	.LBB466:
 2929              	.LBB467:
 386:Drivers/CMSIS/Include/cmsis_gcc.h ****   return(result);
 2930              		.loc 2 386 0
 2931              		.syntax unified
 2932              	@ 386 "Drivers/CMSIS/Include/cmsis_gcc.h" 1
 2933 000a EFF31083 		MRS r3, primask
 2934              	@ 0 "" 2
 2935              		.thumb
 2936              		.syntax unified
 2937              	.LBE467:
 2938              	.LBE466:
 702:Middlewares/Third_Party/FreeRTOS/Source/CMSIS_RTOS_V2/cmsis_os2.c ****     rflags = (uint32_t)osErrorISR;
 2939              		.loc 1 702 0
 2940 000e A3B9     		cbnz	r3, .L312
 702:Middlewares/Third_Party/FreeRTOS/Source/CMSIS_RTOS_V2/cmsis_os2.c ****     rflags = (uint32_t)osErrorISR;
 2941              		.loc 1 702 0 is_stmt 0 discriminator 2
ARM GAS  /tmp/cce47g5y.s 			page 85


 2942 0010 0D4B     		ldr	r3, .L317
 2943 0012 1B68     		ldr	r3, [r3]
 2944 0014 022B     		cmp	r3, #2
 2945 0016 0CD0     		beq	.L316
 2946              	.L313:
 706:Middlewares/Third_Party/FreeRTOS/Source/CMSIS_RTOS_V2/cmsis_os2.c **** 
 2947              		.loc 1 706 0 is_stmt 1
 2948 0018 FFF7FEFF 		bl	xTaskGetCurrentTaskHandle
 2949              	.LVL233:
 708:Middlewares/Third_Party/FreeRTOS/Source/CMSIS_RTOS_V2/cmsis_os2.c ****       rflags = (uint32_t)osError;
 2950              		.loc 1 708 0
 2951 001c 01AB     		add	r3, sp, #4
 2952 001e 0022     		movs	r2, #0
 2953 0020 1146     		mov	r1, r2
 2954 0022 FFF7FEFF 		bl	xTaskGenericNotify
 2955              	.LVL234:
 2956 0026 0128     		cmp	r0, #1
 2957 0028 0AD0     		beq	.L314
 709:Middlewares/Third_Party/FreeRTOS/Source/CMSIS_RTOS_V2/cmsis_os2.c ****     }
 2958              		.loc 1 709 0
 2959 002a 4FF0FF33 		mov	r3, #-1
 2960 002e 0193     		str	r3, [sp, #4]
 2961 0030 06E0     		b	.L314
 2962              	.L316:
 2963              	.LBB468:
 2964              	.LBB469:
 2965              		.loc 2 465 0
 2966              		.syntax unified
 2967              	@ 465 "Drivers/CMSIS/Include/cmsis_gcc.h" 1
 2968 0032 EFF31183 		MRS r3, basepri
 2969              	@ 0 "" 2
 2970              		.thumb
 2971              		.syntax unified
 2972              	.LBE469:
 2973              	.LBE468:
 702:Middlewares/Third_Party/FreeRTOS/Source/CMSIS_RTOS_V2/cmsis_os2.c ****     rflags = (uint32_t)osErrorISR;
 2974              		.loc 1 702 0
 2975 0036 002B     		cmp	r3, #0
 2976 0038 EED0     		beq	.L313
 2977              	.L312:
 703:Middlewares/Third_Party/FreeRTOS/Source/CMSIS_RTOS_V2/cmsis_os2.c ****   }
 2978              		.loc 1 703 0
 2979 003a 6FF00503 		mvn	r3, #5
 2980 003e 0193     		str	r3, [sp, #4]
 2981              	.L314:
 714:Middlewares/Third_Party/FreeRTOS/Source/CMSIS_RTOS_V2/cmsis_os2.c **** 
 2982              		.loc 1 714 0
 2983 0040 0198     		ldr	r0, [sp, #4]
 2984 0042 03B0     		add	sp, sp, #12
 2985              	.LCFI38:
 2986              		.cfi_def_cfa_offset 4
 2987              		@ sp needed
 2988 0044 5DF804FB 		ldr	pc, [sp], #4
 2989              	.L318:
 2990              		.align	2
 2991              	.L317:
 2992 0048 00000000 		.word	.LANCHOR0
ARM GAS  /tmp/cce47g5y.s 			page 86


 2993              		.cfi_endproc
 2994              	.LFE76:
 2996              		.section	.text.osThreadFlagsWait,"ax",%progbits
 2997              		.align	1
 2998              		.global	osThreadFlagsWait
 2999              		.syntax unified
 3000              		.thumb
 3001              		.thumb_func
 3002              		.fpu softvfp
 3004              	osThreadFlagsWait:
 3005              	.LFB77:
 716:Middlewares/Third_Party/FreeRTOS/Source/CMSIS_RTOS_V2/cmsis_os2.c ****   uint32_t rflags, nval;
 3006              		.loc 1 716 0
 3007              		.cfi_startproc
 3008              		@ args = 0, pretend = 0, frame = 8
 3009              		@ frame_needed = 0, uses_anonymous_args = 0
 3010              	.LVL235:
 3011 0000 2DE9F04F 		push	{r4, r5, r6, r7, r8, r9, r10, fp, lr}
 3012              	.LCFI39:
 3013              		.cfi_def_cfa_offset 36
 3014              		.cfi_offset 4, -36
 3015              		.cfi_offset 5, -32
 3016              		.cfi_offset 6, -28
 3017              		.cfi_offset 7, -24
 3018              		.cfi_offset 8, -20
 3019              		.cfi_offset 9, -16
 3020              		.cfi_offset 10, -12
 3021              		.cfi_offset 11, -8
 3022              		.cfi_offset 14, -4
 3023 0004 83B0     		sub	sp, sp, #12
 3024              	.LCFI40:
 3025              		.cfi_def_cfa_offset 48
 3026              	.LBB470:
 3027              	.LBB471:
 209:Drivers/CMSIS/Include/cmsis_gcc.h ****   return(result);
 3028              		.loc 2 209 0
 3029              		.syntax unified
 3030              	@ 209 "Drivers/CMSIS/Include/cmsis_gcc.h" 1
 3031 0006 EFF30583 		MRS r3, ipsr
 3032              	@ 0 "" 2
 3033              		.thumb
 3034              		.syntax unified
 3035              	.LBE471:
 3036              	.LBE470:
 722:Middlewares/Third_Party/FreeRTOS/Source/CMSIS_RTOS_V2/cmsis_os2.c ****     rflags = (uint32_t)osErrorISR;
 3037              		.loc 1 722 0
 3038 000a 2BB1     		cbz	r3, .L338
 723:Middlewares/Third_Party/FreeRTOS/Source/CMSIS_RTOS_V2/cmsis_os2.c ****   }
 3039              		.loc 1 723 0
 3040 000c 6FF00504 		mvn	r4, #5
 3041              	.LVL236:
 3042              	.L319:
 789:Middlewares/Third_Party/FreeRTOS/Source/CMSIS_RTOS_V2/cmsis_os2.c **** 
 3043              		.loc 1 789 0
 3044 0010 2046     		mov	r0, r4
 3045 0012 03B0     		add	sp, sp, #12
 3046              	.LCFI41:
ARM GAS  /tmp/cce47g5y.s 			page 87


 3047              		.cfi_remember_state
 3048              		.cfi_def_cfa_offset 36
 3049              		@ sp needed
 3050 0014 BDE8F08F 		pop	{r4, r5, r6, r7, r8, r9, r10, fp, pc}
 3051              	.LVL237:
 3052              	.L338:
 3053              	.LCFI42:
 3054              		.cfi_restore_state
 3055              	.LBB472:
 3056              	.LBB473:
 386:Drivers/CMSIS/Include/cmsis_gcc.h ****   return(result);
 3057              		.loc 2 386 0
 3058              		.syntax unified
 3059              	@ 386 "Drivers/CMSIS/Include/cmsis_gcc.h" 1
 3060 0018 EFF31083 		MRS r3, primask
 3061              	@ 0 "" 2
 3062              		.thumb
 3063              		.syntax unified
 3064 001c 1C46     		mov	r4, r3
 3065              	.LBE473:
 3066              	.LBE472:
 722:Middlewares/Third_Party/FreeRTOS/Source/CMSIS_RTOS_V2/cmsis_os2.c ****     rflags = (uint32_t)osErrorISR;
 3067              		.loc 1 722 0
 3068 001e 13B1     		cbz	r3, .L339
 723:Middlewares/Third_Party/FreeRTOS/Source/CMSIS_RTOS_V2/cmsis_os2.c ****   }
 3069              		.loc 1 723 0
 3070 0020 6FF00504 		mvn	r4, #5
 3071 0024 F4E7     		b	.L319
 3072              	.L339:
 722:Middlewares/Third_Party/FreeRTOS/Source/CMSIS_RTOS_V2/cmsis_os2.c ****     rflags = (uint32_t)osErrorISR;
 3073              		.loc 1 722 0 discriminator 2
 3074 0026 284D     		ldr	r5, .L343
 3075 0028 2D68     		ldr	r5, [r5]
 3076 002a 022D     		cmp	r5, #2
 3077 002c 0DD0     		beq	.L340
 3078              	.L321:
 725:Middlewares/Third_Party/FreeRTOS/Source/CMSIS_RTOS_V2/cmsis_os2.c ****     rflags = (uint32_t)osErrorParameter;
 3079              		.loc 1 725 0
 3080 002e 0028     		cmp	r0, #0
 3081 0030 43DB     		blt	.L331
 729:Middlewares/Third_Party/FreeRTOS/Source/CMSIS_RTOS_V2/cmsis_os2.c ****       clear = 0U;
 3082              		.loc 1 729 0
 3083 0032 11F0020F 		tst	r1, #2
 3084 0036 0FD0     		beq	.L332
 730:Middlewares/Third_Party/FreeRTOS/Source/CMSIS_RTOS_V2/cmsis_os2.c ****     } else {
 3085              		.loc 1 730 0
 3086 0038 9846     		mov	r8, r3
 3087              	.L322:
 3088 003a 1746     		mov	r7, r2
 3089 003c 8A46     		mov	r10, r1
 3090 003e 8146     		mov	r9, r0
 3091              	.LVL238:
 738:Middlewares/Third_Party/FreeRTOS/Source/CMSIS_RTOS_V2/cmsis_os2.c ****     do {
 3092              		.loc 1 738 0
 3093 0040 FFF7FEFF 		bl	xTaskGetTickCount
 3094              	.LVL239:
 3095 0044 8346     		mov	fp, r0
ARM GAS  /tmp/cce47g5y.s 			page 88


 3096              	.LVL240:
 736:Middlewares/Third_Party/FreeRTOS/Source/CMSIS_RTOS_V2/cmsis_os2.c **** 
 3097              		.loc 1 736 0
 3098 0046 3E46     		mov	r6, r7
 3099 0048 29E0     		b	.L327
 3100              	.LVL241:
 3101              	.L340:
 3102              	.LBB474:
 3103              	.LBB475:
 3104              		.loc 2 465 0
 3105              		.syntax unified
 3106              	@ 465 "Drivers/CMSIS/Include/cmsis_gcc.h" 1
 3107 004a EFF31185 		MRS r5, basepri
 3108              	@ 0 "" 2
 3109              		.thumb
 3110              		.syntax unified
 3111              	.LBE475:
 3112              	.LBE474:
 722:Middlewares/Third_Party/FreeRTOS/Source/CMSIS_RTOS_V2/cmsis_os2.c ****     rflags = (uint32_t)osErrorISR;
 3113              		.loc 1 722 0
 3114 004e 002D     		cmp	r5, #0
 3115 0050 EDD0     		beq	.L321
 723:Middlewares/Third_Party/FreeRTOS/Source/CMSIS_RTOS_V2/cmsis_os2.c ****   }
 3116              		.loc 1 723 0
 3117 0052 6FF00504 		mvn	r4, #5
 3118 0056 DBE7     		b	.L319
 3119              	.L332:
 732:Middlewares/Third_Party/FreeRTOS/Source/CMSIS_RTOS_V2/cmsis_os2.c ****     }
 3120              		.loc 1 732 0
 3121 0058 8046     		mov	r8, r0
 3122 005a EEE7     		b	.L322
 3123              	.LVL242:
 3124              	.L342:
 743:Middlewares/Third_Party/FreeRTOS/Source/CMSIS_RTOS_V2/cmsis_os2.c ****         rflags |= nval;
 3125              		.loc 1 743 0
 3126 005c 04EA0904 		and	r4, r4, r9
 3127              	.LVL243:
 744:Middlewares/Third_Party/FreeRTOS/Source/CMSIS_RTOS_V2/cmsis_os2.c **** 
 3128              		.loc 1 744 0
 3129 0060 019B     		ldr	r3, [sp, #4]
 3130 0062 1C43     		orrs	r4, r4, r3
 3131              	.LVL244:
 746:Middlewares/Third_Party/FreeRTOS/Source/CMSIS_RTOS_V2/cmsis_os2.c ****           if ((flags & rflags) == flags) {
 3132              		.loc 1 746 0
 3133 0064 1AF0010F 		tst	r10, #1
 3134 0068 0BD0     		beq	.L324
 747:Middlewares/Third_Party/FreeRTOS/Source/CMSIS_RTOS_V2/cmsis_os2.c ****             break;
 3135              		.loc 1 747 0
 3136 006a 39EA0403 		bics	r3, r9, r4
 3137 006e CFD0     		beq	.L319
 750:Middlewares/Third_Party/FreeRTOS/Source/CMSIS_RTOS_V2/cmsis_os2.c ****               rflags = (uint32_t)osErrorResource;
 3138              		.loc 1 750 0
 3139 0070 37B3     		cbz	r7, .L341
 3140              	.L325:
 768:Middlewares/Third_Party/FreeRTOS/Source/CMSIS_RTOS_V2/cmsis_os2.c **** 
 3141              		.loc 1 768 0
 3142 0072 FFF7FEFF 		bl	xTaskGetTickCount
ARM GAS  /tmp/cce47g5y.s 			page 89


 3143              	.LVL245:
 3144 0076 A0EB0B00 		sub	r0, r0, fp
 3145              	.LVL246:
 770:Middlewares/Third_Party/FreeRTOS/Source/CMSIS_RTOS_V2/cmsis_os2.c ****           tout  = 0;
 3146              		.loc 1 770 0
 3147 007a 8642     		cmp	r6, r0
 3148 007c 09D3     		bcc	.L335
 773:Middlewares/Third_Party/FreeRTOS/Source/CMSIS_RTOS_V2/cmsis_os2.c ****         }
 3149              		.loc 1 773 0
 3150 007e 361A     		subs	r6, r6, r0
 3151              	.LVL247:
 3152 0080 0BE0     		b	.L326
 3153              	.LVL248:
 3154              	.L324:
 757:Middlewares/Third_Party/FreeRTOS/Source/CMSIS_RTOS_V2/cmsis_os2.c ****             break;
 3155              		.loc 1 757 0
 3156 0082 19EA040F 		tst	r9, r4
 3157 0086 C3D1     		bne	.L319
 760:Middlewares/Third_Party/FreeRTOS/Source/CMSIS_RTOS_V2/cmsis_os2.c ****               rflags = (uint32_t)osErrorResource;
 3158              		.loc 1 760 0
 3159 0088 002F     		cmp	r7, #0
 3160 008a F2D1     		bne	.L325
 761:Middlewares/Third_Party/FreeRTOS/Source/CMSIS_RTOS_V2/cmsis_os2.c ****               break;
 3161              		.loc 1 761 0
 3162 008c 6FF00204 		mvn	r4, #2
 3163              	.LVL249:
 788:Middlewares/Third_Party/FreeRTOS/Source/CMSIS_RTOS_V2/cmsis_os2.c **** }
 3164              		.loc 1 788 0
 3165 0090 BEE7     		b	.L319
 3166              	.LVL250:
 3167              	.L335:
 771:Middlewares/Third_Party/FreeRTOS/Source/CMSIS_RTOS_V2/cmsis_os2.c ****         } else {
 3168              		.loc 1 771 0
 3169 0092 0026     		movs	r6, #0
 3170              	.LVL251:
 3171 0094 01E0     		b	.L326
 3172              	.LVL252:
 3173              	.L336:
 780:Middlewares/Third_Party/FreeRTOS/Source/CMSIS_RTOS_V2/cmsis_os2.c ****         }
 3174              		.loc 1 780 0
 3175 0096 6FF00104 		mvn	r4, #1
 3176              	.LVL253:
 3177              	.L326:
 784:Middlewares/Third_Party/FreeRTOS/Source/CMSIS_RTOS_V2/cmsis_os2.c ****   }
 3178              		.loc 1 784 0
 3179 009a 002D     		cmp	r5, #0
 3180 009c B8D0     		beq	.L319
 3181              	.LVL254:
 3182              	.L327:
 740:Middlewares/Third_Party/FreeRTOS/Source/CMSIS_RTOS_V2/cmsis_os2.c **** 
 3183              		.loc 1 740 0
 3184 009e 3346     		mov	r3, r6
 3185 00a0 01AA     		add	r2, sp, #4
 3186 00a2 4146     		mov	r1, r8
 3187 00a4 0020     		movs	r0, #0
 3188 00a6 FFF7FEFF 		bl	xTaskNotifyWait
 3189              	.LVL255:
ARM GAS  /tmp/cce47g5y.s 			page 90


 3190 00aa 0546     		mov	r5, r0
 3191              	.LVL256:
 742:Middlewares/Third_Party/FreeRTOS/Source/CMSIS_RTOS_V2/cmsis_os2.c ****         rflags &= flags;
 3192              		.loc 1 742 0
 3193 00ac 0128     		cmp	r0, #1
 3194 00ae D5D0     		beq	.L342
 777:Middlewares/Third_Party/FreeRTOS/Source/CMSIS_RTOS_V2/cmsis_os2.c ****           rflags = (uint32_t)osErrorResource;
 3195              		.loc 1 777 0
 3196 00b0 002F     		cmp	r7, #0
 3197 00b2 F0D1     		bne	.L336
 778:Middlewares/Third_Party/FreeRTOS/Source/CMSIS_RTOS_V2/cmsis_os2.c ****         } else {
 3198              		.loc 1 778 0
 3199 00b4 6FF00204 		mvn	r4, #2
 3200              	.LVL257:
 3201 00b8 EFE7     		b	.L326
 3202              	.LVL258:
 3203              	.L331:
 726:Middlewares/Third_Party/FreeRTOS/Source/CMSIS_RTOS_V2/cmsis_os2.c ****   }
 3204              		.loc 1 726 0
 3205 00ba 6FF00304 		mvn	r4, #3
 3206 00be A7E7     		b	.L319
 3207              	.LVL259:
 3208              	.L341:
 751:Middlewares/Third_Party/FreeRTOS/Source/CMSIS_RTOS_V2/cmsis_os2.c ****               break;
 3209              		.loc 1 751 0
 3210 00c0 6FF00204 		mvn	r4, #2
 3211              	.LVL260:
 3212 00c4 A4E7     		b	.L319
 3213              	.L344:
 3214 00c6 00BF     		.align	2
 3215              	.L343:
 3216 00c8 00000000 		.word	.LANCHOR0
 3217              		.cfi_endproc
 3218              	.LFE77:
 3220              		.section	.text.osDelay,"ax",%progbits
 3221              		.align	1
 3222              		.global	osDelay
 3223              		.syntax unified
 3224              		.thumb
 3225              		.thumb_func
 3226              		.fpu softvfp
 3228              	osDelay:
 3229              	.LFB78:
 791:Middlewares/Third_Party/FreeRTOS/Source/CMSIS_RTOS_V2/cmsis_os2.c ****   osStatus_t stat;
 3230              		.loc 1 791 0
 3231              		.cfi_startproc
 3232              		@ args = 0, pretend = 0, frame = 0
 3233              		@ frame_needed = 0, uses_anonymous_args = 0
 3234              	.LVL261:
 3235 0000 08B5     		push	{r3, lr}
 3236              	.LCFI43:
 3237              		.cfi_def_cfa_offset 8
 3238              		.cfi_offset 3, -8
 3239              		.cfi_offset 14, -4
 3240              	.LBB476:
 3241              	.LBB477:
 209:Drivers/CMSIS/Include/cmsis_gcc.h ****   return(result);
ARM GAS  /tmp/cce47g5y.s 			page 91


 3242              		.loc 2 209 0
 3243              		.syntax unified
 3244              	@ 209 "Drivers/CMSIS/Include/cmsis_gcc.h" 1
 3245 0002 EFF30583 		MRS r3, ipsr
 3246              	@ 0 "" 2
 3247              		.thumb
 3248              		.syntax unified
 3249              	.LBE477:
 3250              	.LBE476:
 794:Middlewares/Third_Party/FreeRTOS/Source/CMSIS_RTOS_V2/cmsis_os2.c ****     stat = osErrorISR;
 3251              		.loc 1 794 0
 3252 0006 A3B9     		cbnz	r3, .L348
 3253              	.LBB478:
 3254              	.LBB479:
 386:Drivers/CMSIS/Include/cmsis_gcc.h ****   return(result);
 3255              		.loc 2 386 0
 3256              		.syntax unified
 3257              	@ 386 "Drivers/CMSIS/Include/cmsis_gcc.h" 1
 3258 0008 EFF31083 		MRS r3, primask
 3259              	@ 0 "" 2
 3260              		.thumb
 3261              		.syntax unified
 3262              	.LBE479:
 3263              	.LBE478:
 794:Middlewares/Third_Party/FreeRTOS/Source/CMSIS_RTOS_V2/cmsis_os2.c ****     stat = osErrorISR;
 3264              		.loc 1 794 0
 3265 000c A3B9     		cbnz	r3, .L349
 794:Middlewares/Third_Party/FreeRTOS/Source/CMSIS_RTOS_V2/cmsis_os2.c ****     stat = osErrorISR;
 3266              		.loc 1 794 0 is_stmt 0 discriminator 2
 3267 000e 0C4B     		ldr	r3, .L355
 3268 0010 1B68     		ldr	r3, [r3]
 3269 0012 022B     		cmp	r3, #2
 3270 0014 02D0     		beq	.L353
 3271              	.L347:
 3272              	.LVL262:
 800:Middlewares/Third_Party/FreeRTOS/Source/CMSIS_RTOS_V2/cmsis_os2.c ****       vTaskDelay(ticks);
 3273              		.loc 1 800 0 is_stmt 1
 3274 0016 40B9     		cbnz	r0, .L354
 798:Middlewares/Third_Party/FreeRTOS/Source/CMSIS_RTOS_V2/cmsis_os2.c **** 
 3275              		.loc 1 798 0
 3276 0018 0020     		movs	r0, #0
 3277              	.LVL263:
 806:Middlewares/Third_Party/FreeRTOS/Source/CMSIS_RTOS_V2/cmsis_os2.c **** 
 3278              		.loc 1 806 0
 3279 001a 08BD     		pop	{r3, pc}
 3280              	.LVL264:
 3281              	.L353:
 3282              	.LBB480:
 3283              	.LBB481:
 3284              		.loc 2 465 0
 3285              		.syntax unified
 3286              	@ 465 "Drivers/CMSIS/Include/cmsis_gcc.h" 1
 3287 001c EFF31183 		MRS r3, basepri
 3288              	@ 0 "" 2
 3289              		.thumb
 3290              		.syntax unified
 3291              	.LBE481:
ARM GAS  /tmp/cce47g5y.s 			page 92


 3292              	.LBE480:
 794:Middlewares/Third_Party/FreeRTOS/Source/CMSIS_RTOS_V2/cmsis_os2.c ****     stat = osErrorISR;
 3293              		.loc 1 794 0
 3294 0020 002B     		cmp	r3, #0
 3295 0022 F8D0     		beq	.L347
 795:Middlewares/Third_Party/FreeRTOS/Source/CMSIS_RTOS_V2/cmsis_os2.c ****   }
 3296              		.loc 1 795 0
 3297 0024 6FF00500 		mvn	r0, #5
 3298              	.LVL265:
 3299 0028 08BD     		pop	{r3, pc}
 3300              	.LVL266:
 3301              	.L354:
 801:Middlewares/Third_Party/FreeRTOS/Source/CMSIS_RTOS_V2/cmsis_os2.c ****     }
 3302              		.loc 1 801 0
 3303 002a FFF7FEFF 		bl	vTaskDelay
 3304              	.LVL267:
 798:Middlewares/Third_Party/FreeRTOS/Source/CMSIS_RTOS_V2/cmsis_os2.c **** 
 3305              		.loc 1 798 0
 3306 002e 0020     		movs	r0, #0
 3307 0030 08BD     		pop	{r3, pc}
 3308              	.LVL268:
 3309              	.L348:
 795:Middlewares/Third_Party/FreeRTOS/Source/CMSIS_RTOS_V2/cmsis_os2.c ****   }
 3310              		.loc 1 795 0
 3311 0032 6FF00500 		mvn	r0, #5
 3312              	.LVL269:
 3313 0036 08BD     		pop	{r3, pc}
 3314              	.LVL270:
 3315              	.L349:
 3316 0038 6FF00500 		mvn	r0, #5
 3317              	.LVL271:
 3318 003c 08BD     		pop	{r3, pc}
 3319              	.L356:
 3320 003e 00BF     		.align	2
 3321              	.L355:
 3322 0040 00000000 		.word	.LANCHOR0
 3323              		.cfi_endproc
 3324              	.LFE78:
 3326              		.section	.text.osDelayUntil,"ax",%progbits
 3327              		.align	1
 3328              		.global	osDelayUntil
 3329              		.syntax unified
 3330              		.thumb
 3331              		.thumb_func
 3332              		.fpu softvfp
 3334              	osDelayUntil:
 3335              	.LFB79:
 808:Middlewares/Third_Party/FreeRTOS/Source/CMSIS_RTOS_V2/cmsis_os2.c ****   TickType_t tcnt;
 3336              		.loc 1 808 0
 3337              		.cfi_startproc
 3338              		@ args = 0, pretend = 0, frame = 8
 3339              		@ frame_needed = 0, uses_anonymous_args = 0
 3340              	.LVL272:
 3341              	.LBB482:
 3342              	.LBB483:
 209:Drivers/CMSIS/Include/cmsis_gcc.h ****   return(result);
 3343              		.loc 2 209 0
ARM GAS  /tmp/cce47g5y.s 			page 93


 3344              		.syntax unified
 3345              	@ 209 "Drivers/CMSIS/Include/cmsis_gcc.h" 1
 3346 0000 EFF30583 		MRS r3, ipsr
 3347              	@ 0 "" 2
 3348              		.thumb
 3349              		.syntax unified
 3350              	.LBE483:
 3351              	.LBE482:
 812:Middlewares/Third_Party/FreeRTOS/Source/CMSIS_RTOS_V2/cmsis_os2.c ****     stat = osErrorISR;
 3352              		.loc 1 812 0
 3353 0004 E3B9     		cbnz	r3, .L360
 3354              	.LBB484:
 3355              	.LBB485:
 386:Drivers/CMSIS/Include/cmsis_gcc.h ****   return(result);
 3356              		.loc 2 386 0
 3357              		.syntax unified
 3358              	@ 386 "Drivers/CMSIS/Include/cmsis_gcc.h" 1
 3359 0006 EFF31083 		MRS r3, primask
 3360              	@ 0 "" 2
 3361              		.thumb
 3362              		.syntax unified
 3363              	.LBE485:
 3364              	.LBE484:
 812:Middlewares/Third_Party/FreeRTOS/Source/CMSIS_RTOS_V2/cmsis_os2.c ****     stat = osErrorISR;
 3365              		.loc 1 812 0
 3366 000a E3B9     		cbnz	r3, .L361
 812:Middlewares/Third_Party/FreeRTOS/Source/CMSIS_RTOS_V2/cmsis_os2.c ****     stat = osErrorISR;
 3367              		.loc 1 812 0 is_stmt 0 discriminator 2
 3368 000c 0F4B     		ldr	r3, .L367
 3369 000e 1B68     		ldr	r3, [r3]
 3370 0010 022B     		cmp	r3, #2
 3371 0012 0ED0     		beq	.L366
 3372              	.L359:
 808:Middlewares/Third_Party/FreeRTOS/Source/CMSIS_RTOS_V2/cmsis_os2.c ****   TickType_t tcnt;
 3373              		.loc 1 808 0 is_stmt 1
 3374 0014 10B5     		push	{r4, lr}
 3375              	.LCFI44:
 3376              		.cfi_def_cfa_offset 8
 3377              		.cfi_offset 4, -8
 3378              		.cfi_offset 14, -4
 3379 0016 82B0     		sub	sp, sp, #8
 3380              	.LCFI45:
 3381              		.cfi_def_cfa_offset 16
 3382 0018 0446     		mov	r4, r0
 3383              	.LVL273:
 817:Middlewares/Third_Party/FreeRTOS/Source/CMSIS_RTOS_V2/cmsis_os2.c **** 
 3384              		.loc 1 817 0
 3385 001a FFF7FEFF 		bl	xTaskGetTickCount
 3386              	.LVL274:
 3387 001e 02AB     		add	r3, sp, #8
 3388 0020 43F8040D 		str	r0, [r3, #-4]!
 819:Middlewares/Third_Party/FreeRTOS/Source/CMSIS_RTOS_V2/cmsis_os2.c ****   }
 3389              		.loc 1 819 0
 3390 0024 211A     		subs	r1, r4, r0
 3391 0026 1846     		mov	r0, r3
 3392 0028 FFF7FEFF 		bl	vTaskDelayUntil
 3393              	.LVL275:
ARM GAS  /tmp/cce47g5y.s 			page 94


 816:Middlewares/Third_Party/FreeRTOS/Source/CMSIS_RTOS_V2/cmsis_os2.c ****     tcnt = xTaskGetTickCount();
 3394              		.loc 1 816 0
 3395 002c 0020     		movs	r0, #0
 823:Middlewares/Third_Party/FreeRTOS/Source/CMSIS_RTOS_V2/cmsis_os2.c **** 
 3396              		.loc 1 823 0
 3397 002e 02B0     		add	sp, sp, #8
 3398              	.LCFI46:
 3399              		.cfi_def_cfa_offset 8
 3400              		@ sp needed
 3401 0030 10BD     		pop	{r4, pc}
 3402              	.LVL276:
 3403              	.L366:
 3404              	.LCFI47:
 3405              		.cfi_def_cfa_offset 0
 3406              		.cfi_restore 4
 3407              		.cfi_restore 14
 3408              	.LBB486:
 3409              	.LBB487:
 3410              		.loc 2 465 0
 3411              		.syntax unified
 3412              	@ 465 "Drivers/CMSIS/Include/cmsis_gcc.h" 1
 3413 0032 EFF31183 		MRS r3, basepri
 3414              	@ 0 "" 2
 3415              		.thumb
 3416              		.syntax unified
 3417              	.LBE487:
 3418              	.LBE486:
 812:Middlewares/Third_Party/FreeRTOS/Source/CMSIS_RTOS_V2/cmsis_os2.c ****     stat = osErrorISR;
 3419              		.loc 1 812 0
 3420 0036 002B     		cmp	r3, #0
 3421 0038 ECD0     		beq	.L359
 813:Middlewares/Third_Party/FreeRTOS/Source/CMSIS_RTOS_V2/cmsis_os2.c ****   }
 3422              		.loc 1 813 0
 3423 003a 6FF00500 		mvn	r0, #5
 3424              	.LVL277:
 822:Middlewares/Third_Party/FreeRTOS/Source/CMSIS_RTOS_V2/cmsis_os2.c **** }
 3425              		.loc 1 822 0
 3426 003e 7047     		bx	lr
 3427              	.LVL278:
 3428              	.L360:
 813:Middlewares/Third_Party/FreeRTOS/Source/CMSIS_RTOS_V2/cmsis_os2.c ****   }
 3429              		.loc 1 813 0
 3430 0040 6FF00500 		mvn	r0, #5
 3431              	.LVL279:
 3432 0044 7047     		bx	lr
 3433              	.LVL280:
 3434              	.L361:
 3435 0046 6FF00500 		mvn	r0, #5
 3436              	.LVL281:
 3437 004a 7047     		bx	lr
 3438              	.L368:
 3439              		.align	2
 3440              	.L367:
 3441 004c 00000000 		.word	.LANCHOR0
 3442              		.cfi_endproc
 3443              	.LFE79:
 3445              		.section	.text.osTimerNew,"ax",%progbits
ARM GAS  /tmp/cce47g5y.s 			page 95


 3446              		.align	1
 3447              		.global	osTimerNew
 3448              		.syntax unified
 3449              		.thumb
 3450              		.thumb_func
 3451              		.fpu softvfp
 3453              	osTimerNew:
 3454              	.LFB81:
 834:Middlewares/Third_Party/FreeRTOS/Source/CMSIS_RTOS_V2/cmsis_os2.c ****   }
 835:Middlewares/Third_Party/FreeRTOS/Source/CMSIS_RTOS_V2/cmsis_os2.c **** }
 836:Middlewares/Third_Party/FreeRTOS/Source/CMSIS_RTOS_V2/cmsis_os2.c **** 
 837:Middlewares/Third_Party/FreeRTOS/Source/CMSIS_RTOS_V2/cmsis_os2.c **** osTimerId_t osTimerNew (osTimerFunc_t func, osTimerType_t type, void *argument, const osTimerAttr_t
 3455              		.loc 1 837 0
 3456              		.cfi_startproc
 3457              		@ args = 0, pretend = 0, frame = 0
 3458              		@ frame_needed = 0, uses_anonymous_args = 0
 3459              	.LVL282:
 3460 0000 F0B5     		push	{r4, r5, r6, r7, lr}
 3461              	.LCFI48:
 3462              		.cfi_def_cfa_offset 20
 3463              		.cfi_offset 4, -20
 3464              		.cfi_offset 5, -16
 3465              		.cfi_offset 6, -12
 3466              		.cfi_offset 7, -8
 3467              		.cfi_offset 14, -4
 3468 0002 83B0     		sub	sp, sp, #12
 3469              	.LCFI49:
 3470              		.cfi_def_cfa_offset 32
 3471              	.LVL283:
 3472              	.LBB488:
 3473              	.LBB489:
 209:Drivers/CMSIS/Include/cmsis_gcc.h ****   return(result);
 3474              		.loc 2 209 0
 3475              		.syntax unified
 3476              	@ 209 "Drivers/CMSIS/Include/cmsis_gcc.h" 1
 3477 0004 EFF30585 		MRS r5, ipsr
 3478              	@ 0 "" 2
 3479              		.thumb
 3480              		.syntax unified
 3481              	.LBE489:
 3482              	.LBE488:
 838:Middlewares/Third_Party/FreeRTOS/Source/CMSIS_RTOS_V2/cmsis_os2.c ****   const char *name;
 839:Middlewares/Third_Party/FreeRTOS/Source/CMSIS_RTOS_V2/cmsis_os2.c ****   TimerHandle_t hTimer;
 840:Middlewares/Third_Party/FreeRTOS/Source/CMSIS_RTOS_V2/cmsis_os2.c ****   TimerCallback_t *callb;
 841:Middlewares/Third_Party/FreeRTOS/Source/CMSIS_RTOS_V2/cmsis_os2.c ****   UBaseType_t reload;
 842:Middlewares/Third_Party/FreeRTOS/Source/CMSIS_RTOS_V2/cmsis_os2.c ****   int32_t mem;
 843:Middlewares/Third_Party/FreeRTOS/Source/CMSIS_RTOS_V2/cmsis_os2.c **** 
 844:Middlewares/Third_Party/FreeRTOS/Source/CMSIS_RTOS_V2/cmsis_os2.c ****   hTimer = NULL;
 845:Middlewares/Third_Party/FreeRTOS/Source/CMSIS_RTOS_V2/cmsis_os2.c **** 
 846:Middlewares/Third_Party/FreeRTOS/Source/CMSIS_RTOS_V2/cmsis_os2.c ****   if (!IS_IRQ() && (func != NULL)) {
 3483              		.loc 1 846 0
 3484 0008 002D     		cmp	r5, #0
 3485 000a 47D1     		bne	.L377
 3486              	.LBB490:
 3487              	.LBB491:
 386:Drivers/CMSIS/Include/cmsis_gcc.h ****   return(result);
 3488              		.loc 2 386 0
ARM GAS  /tmp/cce47g5y.s 			page 96


 3489              		.syntax unified
 3490              	@ 386 "Drivers/CMSIS/Include/cmsis_gcc.h" 1
 3491 000c EFF31085 		MRS r5, primask
 3492              	@ 0 "" 2
 3493              		.thumb
 3494              		.syntax unified
 3495              	.LBE491:
 3496              	.LBE490:
 3497              		.loc 1 846 0
 3498 0010 002D     		cmp	r5, #0
 3499 0012 45D1     		bne	.L378
 3500              		.loc 1 846 0 is_stmt 0 discriminator 2
 3501 0014 264C     		ldr	r4, .L392
 3502 0016 2468     		ldr	r4, [r4]
 3503 0018 022C     		cmp	r4, #2
 3504 001a 23D0     		beq	.L389
 3505              	.L371:
 3506              		.loc 1 846 0 discriminator 5
 3507 001c 0028     		cmp	r0, #0
 3508 001e 41D0     		beq	.L380
 3509 0020 1C46     		mov	r4, r3
 3510 0022 1746     		mov	r7, r2
 3511 0024 0E46     		mov	r6, r1
 3512 0026 0546     		mov	r5, r0
 847:Middlewares/Third_Party/FreeRTOS/Source/CMSIS_RTOS_V2/cmsis_os2.c ****     /* Allocate memory to store callback function and argument */
 848:Middlewares/Third_Party/FreeRTOS/Source/CMSIS_RTOS_V2/cmsis_os2.c ****     callb = pvPortMalloc (sizeof(TimerCallback_t));
 3513              		.loc 1 848 0 is_stmt 1
 3514 0028 0820     		movs	r0, #8
 3515              	.LVL284:
 3516 002a FFF7FEFF 		bl	pvPortMalloc
 3517              	.LVL285:
 849:Middlewares/Third_Party/FreeRTOS/Source/CMSIS_RTOS_V2/cmsis_os2.c **** 
 850:Middlewares/Third_Party/FreeRTOS/Source/CMSIS_RTOS_V2/cmsis_os2.c ****     if (callb != NULL) {
 3518              		.loc 1 850 0
 3519 002e 0346     		mov	r3, r0
 3520 0030 0028     		cmp	r0, #0
 3521 0032 39D0     		beq	.L381
 851:Middlewares/Third_Party/FreeRTOS/Source/CMSIS_RTOS_V2/cmsis_os2.c ****       callb->func = func;
 3522              		.loc 1 851 0
 3523 0034 0560     		str	r5, [r0]
 852:Middlewares/Third_Party/FreeRTOS/Source/CMSIS_RTOS_V2/cmsis_os2.c ****       callb->arg  = argument;
 3524              		.loc 1 852 0
 3525 0036 4760     		str	r7, [r0, #4]
 853:Middlewares/Third_Party/FreeRTOS/Source/CMSIS_RTOS_V2/cmsis_os2.c **** 
 854:Middlewares/Third_Party/FreeRTOS/Source/CMSIS_RTOS_V2/cmsis_os2.c ****       if (type == osTimerOnce) {
 3526              		.loc 1 854 0
 3527 0038 D6B9     		cbnz	r6, .L382
 855:Middlewares/Third_Party/FreeRTOS/Source/CMSIS_RTOS_V2/cmsis_os2.c ****         reload = pdFALSE;
 3528              		.loc 1 855 0
 3529 003a 0022     		movs	r2, #0
 3530              	.L372:
 3531              	.LVL286:
 856:Middlewares/Third_Party/FreeRTOS/Source/CMSIS_RTOS_V2/cmsis_os2.c ****       } else {
 857:Middlewares/Third_Party/FreeRTOS/Source/CMSIS_RTOS_V2/cmsis_os2.c ****         reload = pdTRUE;
 858:Middlewares/Third_Party/FreeRTOS/Source/CMSIS_RTOS_V2/cmsis_os2.c ****       }
 859:Middlewares/Third_Party/FreeRTOS/Source/CMSIS_RTOS_V2/cmsis_os2.c **** 
 860:Middlewares/Third_Party/FreeRTOS/Source/CMSIS_RTOS_V2/cmsis_os2.c ****       mem  = -1;
ARM GAS  /tmp/cce47g5y.s 			page 97


 861:Middlewares/Third_Party/FreeRTOS/Source/CMSIS_RTOS_V2/cmsis_os2.c ****       name = NULL;
 862:Middlewares/Third_Party/FreeRTOS/Source/CMSIS_RTOS_V2/cmsis_os2.c **** 
 863:Middlewares/Third_Party/FreeRTOS/Source/CMSIS_RTOS_V2/cmsis_os2.c ****       if (attr != NULL) {
 3532              		.loc 1 863 0
 3533 003c FCB1     		cbz	r4, .L383
 864:Middlewares/Third_Party/FreeRTOS/Source/CMSIS_RTOS_V2/cmsis_os2.c ****         if (attr->name != NULL) {
 3534              		.loc 1 864 0
 3535 003e 2068     		ldr	r0, [r4]
 3536              	.LVL287:
 865:Middlewares/Third_Party/FreeRTOS/Source/CMSIS_RTOS_V2/cmsis_os2.c ****           name = attr->name;
 866:Middlewares/Third_Party/FreeRTOS/Source/CMSIS_RTOS_V2/cmsis_os2.c ****         }
 867:Middlewares/Third_Party/FreeRTOS/Source/CMSIS_RTOS_V2/cmsis_os2.c **** 
 868:Middlewares/Third_Party/FreeRTOS/Source/CMSIS_RTOS_V2/cmsis_os2.c ****         if ((attr->cb_mem != NULL) && (attr->cb_size >= sizeof(StaticTimer_t))) {
 3537              		.loc 1 868 0
 3538 0040 A168     		ldr	r1, [r4, #8]
 3539 0042 11B1     		cbz	r1, .L375
 3540              		.loc 1 868 0 is_stmt 0 discriminator 1
 3541 0044 E568     		ldr	r5, [r4, #12]
 3542              	.LVL288:
 3543 0046 2F2D     		cmp	r5, #47
 3544 0048 1CD8     		bhi	.L384
 3545              	.L375:
 869:Middlewares/Third_Party/FreeRTOS/Source/CMSIS_RTOS_V2/cmsis_os2.c ****           mem = 1;
 870:Middlewares/Third_Party/FreeRTOS/Source/CMSIS_RTOS_V2/cmsis_os2.c ****         }
 871:Middlewares/Third_Party/FreeRTOS/Source/CMSIS_RTOS_V2/cmsis_os2.c ****         else {
 872:Middlewares/Third_Party/FreeRTOS/Source/CMSIS_RTOS_V2/cmsis_os2.c ****           if ((attr->cb_mem == NULL) && (attr->cb_size == 0U)) {
 3546              		.loc 1 872 0 is_stmt 1
 3547 004a 99B1     		cbz	r1, .L390
 860:Middlewares/Third_Party/FreeRTOS/Source/CMSIS_RTOS_V2/cmsis_os2.c ****       name = NULL;
 3548              		.loc 1 860 0
 3549 004c 4FF0FF31 		mov	r1, #-1
 3550              	.LVL289:
 3551              	.L373:
 873:Middlewares/Third_Party/FreeRTOS/Source/CMSIS_RTOS_V2/cmsis_os2.c ****             mem = 0;
 874:Middlewares/Third_Party/FreeRTOS/Source/CMSIS_RTOS_V2/cmsis_os2.c ****           }
 875:Middlewares/Third_Party/FreeRTOS/Source/CMSIS_RTOS_V2/cmsis_os2.c ****         }
 876:Middlewares/Third_Party/FreeRTOS/Source/CMSIS_RTOS_V2/cmsis_os2.c ****       }
 877:Middlewares/Third_Party/FreeRTOS/Source/CMSIS_RTOS_V2/cmsis_os2.c ****       else {
 878:Middlewares/Third_Party/FreeRTOS/Source/CMSIS_RTOS_V2/cmsis_os2.c ****         mem = 0;
 879:Middlewares/Third_Party/FreeRTOS/Source/CMSIS_RTOS_V2/cmsis_os2.c ****       }
 880:Middlewares/Third_Party/FreeRTOS/Source/CMSIS_RTOS_V2/cmsis_os2.c **** 
 881:Middlewares/Third_Party/FreeRTOS/Source/CMSIS_RTOS_V2/cmsis_os2.c ****       if (mem == 1) {
 3552              		.loc 1 881 0
 3553 0050 0129     		cmp	r1, #1
 3554 0052 1BD0     		beq	.L391
 882:Middlewares/Third_Party/FreeRTOS/Source/CMSIS_RTOS_V2/cmsis_os2.c ****         hTimer = xTimerCreateStatic (name, 1, reload, callb, TimerCallback, (StaticTimer_t *)attr->
 883:Middlewares/Third_Party/FreeRTOS/Source/CMSIS_RTOS_V2/cmsis_os2.c ****       }
 884:Middlewares/Third_Party/FreeRTOS/Source/CMSIS_RTOS_V2/cmsis_os2.c ****       else {
 885:Middlewares/Third_Party/FreeRTOS/Source/CMSIS_RTOS_V2/cmsis_os2.c ****         if (mem == 0) {
 3555              		.loc 1 885 0
 3556 0054 51BB     		cbnz	r1, .L387
 886:Middlewares/Third_Party/FreeRTOS/Source/CMSIS_RTOS_V2/cmsis_os2.c ****           hTimer = xTimerCreate (name, 1, reload, callb, TimerCallback);
 3557              		.loc 1 886 0
 3558 0056 1749     		ldr	r1, .L392+4
 3559              	.LVL290:
 3560 0058 0091     		str	r1, [sp]
 3561              	.LVL291:
ARM GAS  /tmp/cce47g5y.s 			page 98


 3562 005a 0121     		movs	r1, #1
 3563 005c FFF7FEFF 		bl	xTimerCreate
 3564              	.LVL292:
 3565              	.L369:
 887:Middlewares/Third_Party/FreeRTOS/Source/CMSIS_RTOS_V2/cmsis_os2.c ****         }
 888:Middlewares/Third_Party/FreeRTOS/Source/CMSIS_RTOS_V2/cmsis_os2.c ****       }
 889:Middlewares/Third_Party/FreeRTOS/Source/CMSIS_RTOS_V2/cmsis_os2.c ****     }
 890:Middlewares/Third_Party/FreeRTOS/Source/CMSIS_RTOS_V2/cmsis_os2.c ****   }
 891:Middlewares/Third_Party/FreeRTOS/Source/CMSIS_RTOS_V2/cmsis_os2.c **** 
 892:Middlewares/Third_Party/FreeRTOS/Source/CMSIS_RTOS_V2/cmsis_os2.c ****   return ((osTimerId_t)hTimer);
 893:Middlewares/Third_Party/FreeRTOS/Source/CMSIS_RTOS_V2/cmsis_os2.c **** }
 3566              		.loc 1 893 0
 3567 0060 03B0     		add	sp, sp, #12
 3568              	.LCFI50:
 3569              		.cfi_remember_state
 3570              		.cfi_def_cfa_offset 20
 3571              		@ sp needed
 3572 0062 F0BD     		pop	{r4, r5, r6, r7, pc}
 3573              	.LVL293:
 3574              	.L389:
 3575              	.LCFI51:
 3576              		.cfi_restore_state
 3577              	.LBB492:
 3578              	.LBB493:
 3579              		.loc 2 465 0
 3580              		.syntax unified
 3581              	@ 465 "Drivers/CMSIS/Include/cmsis_gcc.h" 1
 3582 0064 EFF31184 		MRS r4, basepri
 3583              	@ 0 "" 2
 3584              		.thumb
 3585              		.syntax unified
 3586              	.LBE493:
 3587              	.LBE492:
 846:Middlewares/Third_Party/FreeRTOS/Source/CMSIS_RTOS_V2/cmsis_os2.c ****     /* Allocate memory to store callback function and argument */
 3588              		.loc 1 846 0
 3589 0068 002C     		cmp	r4, #0
 3590 006a D7D0     		beq	.L371
 844:Middlewares/Third_Party/FreeRTOS/Source/CMSIS_RTOS_V2/cmsis_os2.c **** 
 3591              		.loc 1 844 0
 3592 006c 0020     		movs	r0, #0
 3593              	.LVL294:
 3594 006e F7E7     		b	.L369
 3595              	.LVL295:
 3596              	.L382:
 857:Middlewares/Third_Party/FreeRTOS/Source/CMSIS_RTOS_V2/cmsis_os2.c ****       }
 3597              		.loc 1 857 0
 3598 0070 0122     		movs	r2, #1
 3599 0072 E3E7     		b	.L372
 3600              	.LVL296:
 3601              	.L390:
 872:Middlewares/Third_Party/FreeRTOS/Source/CMSIS_RTOS_V2/cmsis_os2.c ****             mem = 0;
 3602              		.loc 1 872 0 discriminator 1
 3603 0074 E168     		ldr	r1, [r4, #12]
 3604 0076 39B1     		cbz	r1, .L386
 860:Middlewares/Third_Party/FreeRTOS/Source/CMSIS_RTOS_V2/cmsis_os2.c ****       name = NULL;
 3605              		.loc 1 860 0
 3606 0078 4FF0FF31 		mov	r1, #-1
ARM GAS  /tmp/cce47g5y.s 			page 99


 3607 007c E8E7     		b	.L373
 3608              	.LVL297:
 3609              	.L383:
 878:Middlewares/Third_Party/FreeRTOS/Source/CMSIS_RTOS_V2/cmsis_os2.c ****       }
 3610              		.loc 1 878 0
 3611 007e 0021     		movs	r1, #0
 861:Middlewares/Third_Party/FreeRTOS/Source/CMSIS_RTOS_V2/cmsis_os2.c **** 
 3612              		.loc 1 861 0
 3613 0080 0846     		mov	r0, r1
 3614              	.LVL298:
 3615 0082 E5E7     		b	.L373
 3616              	.LVL299:
 3617              	.L384:
 869:Middlewares/Third_Party/FreeRTOS/Source/CMSIS_RTOS_V2/cmsis_os2.c ****         }
 3618              		.loc 1 869 0
 3619 0084 0121     		movs	r1, #1
 3620 0086 E3E7     		b	.L373
 3621              	.L386:
 873:Middlewares/Third_Party/FreeRTOS/Source/CMSIS_RTOS_V2/cmsis_os2.c ****           }
 3622              		.loc 1 873 0
 3623 0088 0021     		movs	r1, #0
 3624 008a E1E7     		b	.L373
 3625              	.LVL300:
 3626              	.L391:
 882:Middlewares/Third_Party/FreeRTOS/Source/CMSIS_RTOS_V2/cmsis_os2.c ****       }
 3627              		.loc 1 882 0
 3628 008c A168     		ldr	r1, [r4, #8]
 3629              	.LVL301:
 3630 008e 0191     		str	r1, [sp, #4]
 3631              	.LVL302:
 3632 0090 0849     		ldr	r1, .L392+4
 3633 0092 0091     		str	r1, [sp]
 3634 0094 0121     		movs	r1, #1
 3635 0096 FFF7FEFF 		bl	xTimerCreateStatic
 3636              	.LVL303:
 3637 009a E1E7     		b	.L369
 3638              	.LVL304:
 3639              	.L377:
 844:Middlewares/Third_Party/FreeRTOS/Source/CMSIS_RTOS_V2/cmsis_os2.c **** 
 3640              		.loc 1 844 0
 3641 009c 0020     		movs	r0, #0
 3642              	.LVL305:
 3643 009e DFE7     		b	.L369
 3644              	.LVL306:
 3645              	.L378:
 3646 00a0 0020     		movs	r0, #0
 3647              	.LVL307:
 3648 00a2 DDE7     		b	.L369
 3649              	.LVL308:
 3650              	.L380:
 3651 00a4 0020     		movs	r0, #0
 3652              	.LVL309:
 3653 00a6 DBE7     		b	.L369
 3654              	.LVL310:
 3655              	.L381:
 3656 00a8 0020     		movs	r0, #0
 3657              	.LVL311:
ARM GAS  /tmp/cce47g5y.s 			page 100


 3658 00aa D9E7     		b	.L369
 3659              	.LVL312:
 3660              	.L387:
 3661 00ac 0020     		movs	r0, #0
 3662              	.LVL313:
 892:Middlewares/Third_Party/FreeRTOS/Source/CMSIS_RTOS_V2/cmsis_os2.c **** }
 3663              		.loc 1 892 0
 3664 00ae D7E7     		b	.L369
 3665              	.L393:
 3666              		.align	2
 3667              	.L392:
 3668 00b0 00000000 		.word	.LANCHOR0
 3669 00b4 00000000 		.word	TimerCallback
 3670              		.cfi_endproc
 3671              	.LFE81:
 3673              		.section	.text.osTimerGetName,"ax",%progbits
 3674              		.align	1
 3675              		.global	osTimerGetName
 3676              		.syntax unified
 3677              		.thumb
 3678              		.thumb_func
 3679              		.fpu softvfp
 3681              	osTimerGetName:
 3682              	.LFB82:
 894:Middlewares/Third_Party/FreeRTOS/Source/CMSIS_RTOS_V2/cmsis_os2.c **** 
 895:Middlewares/Third_Party/FreeRTOS/Source/CMSIS_RTOS_V2/cmsis_os2.c **** const char *osTimerGetName (osTimerId_t timer_id) {
 3683              		.loc 1 895 0
 3684              		.cfi_startproc
 3685              		@ args = 0, pretend = 0, frame = 0
 3686              		@ frame_needed = 0, uses_anonymous_args = 0
 3687              	.LVL314:
 3688 0000 08B5     		push	{r3, lr}
 3689              	.LCFI52:
 3690              		.cfi_def_cfa_offset 8
 3691              		.cfi_offset 3, -8
 3692              		.cfi_offset 14, -4
 3693              	.LVL315:
 3694              	.LBB494:
 3695              	.LBB495:
 209:Drivers/CMSIS/Include/cmsis_gcc.h ****   return(result);
 3696              		.loc 2 209 0
 3697              		.syntax unified
 3698              	@ 209 "Drivers/CMSIS/Include/cmsis_gcc.h" 1
 3699 0002 EFF30583 		MRS r3, ipsr
 3700              	@ 0 "" 2
 3701              		.thumb
 3702              		.syntax unified
 3703              	.LBE495:
 3704              	.LBE494:
 896:Middlewares/Third_Party/FreeRTOS/Source/CMSIS_RTOS_V2/cmsis_os2.c ****   TimerHandle_t hTimer = (TimerHandle_t)timer_id;
 897:Middlewares/Third_Party/FreeRTOS/Source/CMSIS_RTOS_V2/cmsis_os2.c ****   const char *p;
 898:Middlewares/Third_Party/FreeRTOS/Source/CMSIS_RTOS_V2/cmsis_os2.c **** 
 899:Middlewares/Third_Party/FreeRTOS/Source/CMSIS_RTOS_V2/cmsis_os2.c ****   if (IS_IRQ() || (hTimer == NULL)) {
 3705              		.loc 1 899 0
 3706 0006 83B9     		cbnz	r3, .L397
 3707              	.LBB496:
 3708              	.LBB497:
ARM GAS  /tmp/cce47g5y.s 			page 101


 386:Drivers/CMSIS/Include/cmsis_gcc.h ****   return(result);
 3709              		.loc 2 386 0
 3710              		.syntax unified
 3711              	@ 386 "Drivers/CMSIS/Include/cmsis_gcc.h" 1
 3712 0008 EFF31083 		MRS r3, primask
 3713              	@ 0 "" 2
 3714              		.thumb
 3715              		.syntax unified
 3716              	.LBE497:
 3717              	.LBE496:
 3718              		.loc 1 899 0
 3719 000c 7BB9     		cbnz	r3, .L398
 3720              		.loc 1 899 0 is_stmt 0 discriminator 2
 3721 000e 0A4B     		ldr	r3, .L403
 3722 0010 1B68     		ldr	r3, [r3]
 3723 0012 022B     		cmp	r3, #2
 3724 0014 03D0     		beq	.L402
 3725              	.L396:
 3726              		.loc 1 899 0 discriminator 5
 3727 0016 60B1     		cbz	r0, .L400
 900:Middlewares/Third_Party/FreeRTOS/Source/CMSIS_RTOS_V2/cmsis_os2.c ****     p = NULL;
 901:Middlewares/Third_Party/FreeRTOS/Source/CMSIS_RTOS_V2/cmsis_os2.c ****   } else {
 902:Middlewares/Third_Party/FreeRTOS/Source/CMSIS_RTOS_V2/cmsis_os2.c ****     p = pcTimerGetName (hTimer);
 3728              		.loc 1 902 0 is_stmt 1
 3729 0018 FFF7FEFF 		bl	pcTimerGetName
 3730              	.LVL316:
 3731 001c 08BD     		pop	{r3, pc}
 3732              	.LVL317:
 3733              	.L402:
 3734              	.LBB498:
 3735              	.LBB499:
 3736              		.loc 2 465 0
 3737              		.syntax unified
 3738              	@ 465 "Drivers/CMSIS/Include/cmsis_gcc.h" 1
 3739 001e EFF31183 		MRS r3, basepri
 3740              	@ 0 "" 2
 3741              		.thumb
 3742              		.syntax unified
 3743              	.LBE499:
 3744              	.LBE498:
 899:Middlewares/Third_Party/FreeRTOS/Source/CMSIS_RTOS_V2/cmsis_os2.c ****     p = NULL;
 3745              		.loc 1 899 0
 3746 0022 002B     		cmp	r3, #0
 3747 0024 F7D0     		beq	.L396
 900:Middlewares/Third_Party/FreeRTOS/Source/CMSIS_RTOS_V2/cmsis_os2.c ****     p = NULL;
 3748              		.loc 1 900 0
 3749 0026 0020     		movs	r0, #0
 3750              	.LVL318:
 3751 0028 08BD     		pop	{r3, pc}
 3752              	.LVL319:
 3753              	.L397:
 3754 002a 0020     		movs	r0, #0
 3755              	.LVL320:
 3756 002c 08BD     		pop	{r3, pc}
 3757              	.LVL321:
 3758              	.L398:
 3759 002e 0020     		movs	r0, #0
ARM GAS  /tmp/cce47g5y.s 			page 102


 3760              	.LVL322:
 3761 0030 08BD     		pop	{r3, pc}
 3762              	.LVL323:
 3763              	.L400:
 3764 0032 0020     		movs	r0, #0
 3765              	.LVL324:
 903:Middlewares/Third_Party/FreeRTOS/Source/CMSIS_RTOS_V2/cmsis_os2.c ****   }
 904:Middlewares/Third_Party/FreeRTOS/Source/CMSIS_RTOS_V2/cmsis_os2.c **** 
 905:Middlewares/Third_Party/FreeRTOS/Source/CMSIS_RTOS_V2/cmsis_os2.c ****   return (p);
 906:Middlewares/Third_Party/FreeRTOS/Source/CMSIS_RTOS_V2/cmsis_os2.c **** }
 3766              		.loc 1 906 0
 3767 0034 08BD     		pop	{r3, pc}
 3768              	.L404:
 3769 0036 00BF     		.align	2
 3770              	.L403:
 3771 0038 00000000 		.word	.LANCHOR0
 3772              		.cfi_endproc
 3773              	.LFE82:
 3775              		.section	.text.osTimerStart,"ax",%progbits
 3776              		.align	1
 3777              		.global	osTimerStart
 3778              		.syntax unified
 3779              		.thumb
 3780              		.thumb_func
 3781              		.fpu softvfp
 3783              	osTimerStart:
 3784              	.LFB83:
 907:Middlewares/Third_Party/FreeRTOS/Source/CMSIS_RTOS_V2/cmsis_os2.c **** 
 908:Middlewares/Third_Party/FreeRTOS/Source/CMSIS_RTOS_V2/cmsis_os2.c **** osStatus_t osTimerStart (osTimerId_t timer_id, uint32_t ticks) {
 3785              		.loc 1 908 0
 3786              		.cfi_startproc
 3787              		@ args = 0, pretend = 0, frame = 0
 3788              		@ frame_needed = 0, uses_anonymous_args = 0
 3789              	.LVL325:
 3790              	.LBB500:
 3791              	.LBB501:
 209:Drivers/CMSIS/Include/cmsis_gcc.h ****   return(result);
 3792              		.loc 2 209 0
 3793              		.syntax unified
 3794              	@ 209 "Drivers/CMSIS/Include/cmsis_gcc.h" 1
 3795 0000 EFF30583 		MRS r3, ipsr
 3796              	@ 0 "" 2
 3797              		.thumb
 3798              		.syntax unified
 3799              	.LBE501:
 3800              	.LBE500:
 909:Middlewares/Third_Party/FreeRTOS/Source/CMSIS_RTOS_V2/cmsis_os2.c ****   TimerHandle_t hTimer = (TimerHandle_t)timer_id;
 910:Middlewares/Third_Party/FreeRTOS/Source/CMSIS_RTOS_V2/cmsis_os2.c ****   osStatus_t stat;
 911:Middlewares/Third_Party/FreeRTOS/Source/CMSIS_RTOS_V2/cmsis_os2.c **** 
 912:Middlewares/Third_Party/FreeRTOS/Source/CMSIS_RTOS_V2/cmsis_os2.c ****   if (IS_IRQ()) {
 3801              		.loc 1 912 0
 3802 0004 E3B9     		cbnz	r3, .L408
 3803              	.LBB502:
 3804              	.LBB503:
 386:Drivers/CMSIS/Include/cmsis_gcc.h ****   return(result);
 3805              		.loc 2 386 0
 3806              		.syntax unified
ARM GAS  /tmp/cce47g5y.s 			page 103


 3807              	@ 386 "Drivers/CMSIS/Include/cmsis_gcc.h" 1
 3808 0006 EFF31083 		MRS r3, primask
 3809              	@ 0 "" 2
 3810              		.thumb
 3811              		.syntax unified
 3812              	.LBE503:
 3813              	.LBE502:
 3814              		.loc 1 912 0
 3815 000a E3B9     		cbnz	r3, .L409
 3816              		.loc 1 912 0 is_stmt 0 discriminator 2
 3817 000c 124B     		ldr	r3, .L418
 3818 000e 1B68     		ldr	r3, [r3]
 3819 0010 022B     		cmp	r3, #2
 3820 0012 0ED0     		beq	.L417
 3821              	.L407:
 913:Middlewares/Third_Party/FreeRTOS/Source/CMSIS_RTOS_V2/cmsis_os2.c ****     stat = osErrorISR;
 914:Middlewares/Third_Party/FreeRTOS/Source/CMSIS_RTOS_V2/cmsis_os2.c ****   }
 915:Middlewares/Third_Party/FreeRTOS/Source/CMSIS_RTOS_V2/cmsis_os2.c ****   else if (hTimer == NULL) {
 3822              		.loc 1 915 0 is_stmt 1
 3823 0014 D0B1     		cbz	r0, .L411
 908:Middlewares/Third_Party/FreeRTOS/Source/CMSIS_RTOS_V2/cmsis_os2.c ****   TimerHandle_t hTimer = (TimerHandle_t)timer_id;
 3824              		.loc 1 908 0
 3825 0016 00B5     		push	{lr}
 3826              	.LCFI53:
 3827              		.cfi_def_cfa_offset 4
 3828              		.cfi_offset 14, -4
 3829 0018 83B0     		sub	sp, sp, #12
 3830              	.LCFI54:
 3831              		.cfi_def_cfa_offset 16
 3832 001a 0A46     		mov	r2, r1
 916:Middlewares/Third_Party/FreeRTOS/Source/CMSIS_RTOS_V2/cmsis_os2.c ****     stat = osErrorParameter;
 917:Middlewares/Third_Party/FreeRTOS/Source/CMSIS_RTOS_V2/cmsis_os2.c ****   }
 918:Middlewares/Third_Party/FreeRTOS/Source/CMSIS_RTOS_V2/cmsis_os2.c ****   else {
 919:Middlewares/Third_Party/FreeRTOS/Source/CMSIS_RTOS_V2/cmsis_os2.c ****     if (xTimerChangePeriod (hTimer, ticks, 0) == pdPASS) {
 3833              		.loc 1 919 0
 3834 001c 0023     		movs	r3, #0
 3835 001e 0093     		str	r3, [sp]
 3836 0020 0421     		movs	r1, #4
 3837              	.LVL326:
 3838 0022 FFF7FEFF 		bl	xTimerGenericCommand
 3839              	.LVL327:
 3840 0026 0128     		cmp	r0, #1
 3841 0028 13D1     		bne	.L412
 920:Middlewares/Third_Party/FreeRTOS/Source/CMSIS_RTOS_V2/cmsis_os2.c ****       stat = osOK;
 3842              		.loc 1 920 0
 3843 002a 0020     		movs	r0, #0
 3844              	.L405:
 921:Middlewares/Third_Party/FreeRTOS/Source/CMSIS_RTOS_V2/cmsis_os2.c ****     } else {
 922:Middlewares/Third_Party/FreeRTOS/Source/CMSIS_RTOS_V2/cmsis_os2.c ****       stat = osErrorResource;
 923:Middlewares/Third_Party/FreeRTOS/Source/CMSIS_RTOS_V2/cmsis_os2.c ****     }
 924:Middlewares/Third_Party/FreeRTOS/Source/CMSIS_RTOS_V2/cmsis_os2.c ****   }
 925:Middlewares/Third_Party/FreeRTOS/Source/CMSIS_RTOS_V2/cmsis_os2.c **** 
 926:Middlewares/Third_Party/FreeRTOS/Source/CMSIS_RTOS_V2/cmsis_os2.c ****   return (stat);
 927:Middlewares/Third_Party/FreeRTOS/Source/CMSIS_RTOS_V2/cmsis_os2.c **** }
 3845              		.loc 1 927 0
 3846 002c 03B0     		add	sp, sp, #12
 3847              	.LCFI55:
ARM GAS  /tmp/cce47g5y.s 			page 104


 3848              		.cfi_def_cfa_offset 4
 3849              		@ sp needed
 3850 002e 5DF804FB 		ldr	pc, [sp], #4
 3851              	.LVL328:
 3852              	.L417:
 3853              	.LCFI56:
 3854              		.cfi_def_cfa_offset 0
 3855              		.cfi_restore 14
 3856              	.LBB504:
 3857              	.LBB505:
 3858              		.loc 2 465 0
 3859              		.syntax unified
 3860              	@ 465 "Drivers/CMSIS/Include/cmsis_gcc.h" 1
 3861 0032 EFF31183 		MRS r3, basepri
 3862              	@ 0 "" 2
 3863              		.thumb
 3864              		.syntax unified
 3865              	.LBE505:
 3866              	.LBE504:
 912:Middlewares/Third_Party/FreeRTOS/Source/CMSIS_RTOS_V2/cmsis_os2.c ****     stat = osErrorISR;
 3867              		.loc 1 912 0
 3868 0036 002B     		cmp	r3, #0
 3869 0038 ECD0     		beq	.L407
 913:Middlewares/Third_Party/FreeRTOS/Source/CMSIS_RTOS_V2/cmsis_os2.c ****   }
 3870              		.loc 1 913 0
 3871 003a 6FF00500 		mvn	r0, #5
 3872              	.LVL329:
 3873 003e 7047     		bx	lr
 3874              	.LVL330:
 3875              	.L408:
 3876 0040 6FF00500 		mvn	r0, #5
 3877              	.LVL331:
 3878 0044 7047     		bx	lr
 3879              	.LVL332:
 3880              	.L409:
 3881 0046 6FF00500 		mvn	r0, #5
 3882              	.LVL333:
 3883 004a 7047     		bx	lr
 3884              	.LVL334:
 3885              	.L411:
 916:Middlewares/Third_Party/FreeRTOS/Source/CMSIS_RTOS_V2/cmsis_os2.c ****   }
 3886              		.loc 1 916 0
 3887 004c 6FF00300 		mvn	r0, #3
 3888              	.LVL335:
 3889 0050 7047     		bx	lr
 3890              	.LVL336:
 3891              	.L412:
 3892              	.LCFI57:
 3893              		.cfi_def_cfa_offset 16
 3894              		.cfi_offset 14, -4
 922:Middlewares/Third_Party/FreeRTOS/Source/CMSIS_RTOS_V2/cmsis_os2.c ****     }
 3895              		.loc 1 922 0
 3896 0052 6FF00200 		mvn	r0, #2
 3897              	.LVL337:
 926:Middlewares/Third_Party/FreeRTOS/Source/CMSIS_RTOS_V2/cmsis_os2.c **** }
 3898              		.loc 1 926 0
 3899 0056 E9E7     		b	.L405
ARM GAS  /tmp/cce47g5y.s 			page 105


 3900              	.L419:
 3901              		.align	2
 3902              	.L418:
 3903 0058 00000000 		.word	.LANCHOR0
 3904              		.cfi_endproc
 3905              	.LFE83:
 3907              		.section	.text.osTimerStop,"ax",%progbits
 3908              		.align	1
 3909              		.global	osTimerStop
 3910              		.syntax unified
 3911              		.thumb
 3912              		.thumb_func
 3913              		.fpu softvfp
 3915              	osTimerStop:
 3916              	.LFB84:
 928:Middlewares/Third_Party/FreeRTOS/Source/CMSIS_RTOS_V2/cmsis_os2.c **** 
 929:Middlewares/Third_Party/FreeRTOS/Source/CMSIS_RTOS_V2/cmsis_os2.c **** osStatus_t osTimerStop (osTimerId_t timer_id) {
 3917              		.loc 1 929 0
 3918              		.cfi_startproc
 3919              		@ args = 0, pretend = 0, frame = 0
 3920              		@ frame_needed = 0, uses_anonymous_args = 0
 3921              	.LVL338:
 3922              	.LBB506:
 3923              	.LBB507:
 209:Drivers/CMSIS/Include/cmsis_gcc.h ****   return(result);
 3924              		.loc 2 209 0
 3925              		.syntax unified
 3926              	@ 209 "Drivers/CMSIS/Include/cmsis_gcc.h" 1
 3927 0000 EFF30583 		MRS r3, ipsr
 3928              	@ 0 "" 2
 3929              		.thumb
 3930              		.syntax unified
 3931              	.LBE507:
 3932              	.LBE506:
 930:Middlewares/Third_Party/FreeRTOS/Source/CMSIS_RTOS_V2/cmsis_os2.c ****   TimerHandle_t hTimer = (TimerHandle_t)timer_id;
 931:Middlewares/Third_Party/FreeRTOS/Source/CMSIS_RTOS_V2/cmsis_os2.c ****   osStatus_t stat;
 932:Middlewares/Third_Party/FreeRTOS/Source/CMSIS_RTOS_V2/cmsis_os2.c **** 
 933:Middlewares/Third_Party/FreeRTOS/Source/CMSIS_RTOS_V2/cmsis_os2.c ****   if (IS_IRQ()) {
 3933              		.loc 1 933 0
 3934 0004 03BB     		cbnz	r3, .L423
 3935              	.LBB508:
 3936              	.LBB509:
 386:Drivers/CMSIS/Include/cmsis_gcc.h ****   return(result);
 3937              		.loc 2 386 0
 3938              		.syntax unified
 3939              	@ 386 "Drivers/CMSIS/Include/cmsis_gcc.h" 1
 3940 0006 EFF31083 		MRS r3, primask
 3941              	@ 0 "" 2
 3942              		.thumb
 3943              		.syntax unified
 3944              	.LBE509:
 3945              	.LBE508:
 3946              		.loc 1 933 0
 3947 000a 03BB     		cbnz	r3, .L424
 3948              		.loc 1 933 0 is_stmt 0 discriminator 2
 3949 000c 164B     		ldr	r3, .L434
 3950 000e 1B68     		ldr	r3, [r3]
ARM GAS  /tmp/cce47g5y.s 			page 106


 3951 0010 022B     		cmp	r3, #2
 3952 0012 12D0     		beq	.L433
 3953              	.L422:
 934:Middlewares/Third_Party/FreeRTOS/Source/CMSIS_RTOS_V2/cmsis_os2.c ****     stat = osErrorISR;
 935:Middlewares/Third_Party/FreeRTOS/Source/CMSIS_RTOS_V2/cmsis_os2.c ****   }
 936:Middlewares/Third_Party/FreeRTOS/Source/CMSIS_RTOS_V2/cmsis_os2.c ****   else if (hTimer == NULL) {
 3954              		.loc 1 936 0 is_stmt 1
 3955 0014 F0B1     		cbz	r0, .L426
 929:Middlewares/Third_Party/FreeRTOS/Source/CMSIS_RTOS_V2/cmsis_os2.c ****   TimerHandle_t hTimer = (TimerHandle_t)timer_id;
 3956              		.loc 1 929 0
 3957 0016 10B5     		push	{r4, lr}
 3958              	.LCFI58:
 3959              		.cfi_def_cfa_offset 8
 3960              		.cfi_offset 4, -8
 3961              		.cfi_offset 14, -4
 3962 0018 82B0     		sub	sp, sp, #8
 3963              	.LCFI59:
 3964              		.cfi_def_cfa_offset 16
 3965 001a 0446     		mov	r4, r0
 937:Middlewares/Third_Party/FreeRTOS/Source/CMSIS_RTOS_V2/cmsis_os2.c ****     stat = osErrorParameter;
 938:Middlewares/Third_Party/FreeRTOS/Source/CMSIS_RTOS_V2/cmsis_os2.c ****   }
 939:Middlewares/Third_Party/FreeRTOS/Source/CMSIS_RTOS_V2/cmsis_os2.c ****   else {
 940:Middlewares/Third_Party/FreeRTOS/Source/CMSIS_RTOS_V2/cmsis_os2.c ****     if (xTimerIsTimerActive (hTimer) == pdFALSE) {
 3966              		.loc 1 940 0
 3967 001c FFF7FEFF 		bl	xTimerIsTimerActive
 3968              	.LVL339:
 3969 0020 D8B1     		cbz	r0, .L427
 941:Middlewares/Third_Party/FreeRTOS/Source/CMSIS_RTOS_V2/cmsis_os2.c ****       stat = osErrorResource;
 942:Middlewares/Third_Party/FreeRTOS/Source/CMSIS_RTOS_V2/cmsis_os2.c ****     }
 943:Middlewares/Third_Party/FreeRTOS/Source/CMSIS_RTOS_V2/cmsis_os2.c ****     else {
 944:Middlewares/Third_Party/FreeRTOS/Source/CMSIS_RTOS_V2/cmsis_os2.c ****       if (xTimerStop (hTimer, 0) == pdPASS) {
 3970              		.loc 1 944 0
 3971 0022 0022     		movs	r2, #0
 3972 0024 0092     		str	r2, [sp]
 3973 0026 1346     		mov	r3, r2
 3974 0028 0321     		movs	r1, #3
 3975 002a 2046     		mov	r0, r4
 3976 002c FFF7FEFF 		bl	xTimerGenericCommand
 3977              	.LVL340:
 3978 0030 0128     		cmp	r0, #1
 3979 0032 15D1     		bne	.L428
 945:Middlewares/Third_Party/FreeRTOS/Source/CMSIS_RTOS_V2/cmsis_os2.c ****         stat = osOK;
 3980              		.loc 1 945 0
 3981 0034 0020     		movs	r0, #0
 3982              	.L420:
 946:Middlewares/Third_Party/FreeRTOS/Source/CMSIS_RTOS_V2/cmsis_os2.c ****       } else {
 947:Middlewares/Third_Party/FreeRTOS/Source/CMSIS_RTOS_V2/cmsis_os2.c ****         stat = osError;
 948:Middlewares/Third_Party/FreeRTOS/Source/CMSIS_RTOS_V2/cmsis_os2.c ****       }
 949:Middlewares/Third_Party/FreeRTOS/Source/CMSIS_RTOS_V2/cmsis_os2.c ****     }
 950:Middlewares/Third_Party/FreeRTOS/Source/CMSIS_RTOS_V2/cmsis_os2.c ****   }
 951:Middlewares/Third_Party/FreeRTOS/Source/CMSIS_RTOS_V2/cmsis_os2.c **** 
 952:Middlewares/Third_Party/FreeRTOS/Source/CMSIS_RTOS_V2/cmsis_os2.c ****   return (stat);
 953:Middlewares/Third_Party/FreeRTOS/Source/CMSIS_RTOS_V2/cmsis_os2.c **** }
 3983              		.loc 1 953 0
 3984 0036 02B0     		add	sp, sp, #8
 3985              	.LCFI60:
 3986              		.cfi_def_cfa_offset 8
ARM GAS  /tmp/cce47g5y.s 			page 107


 3987              		@ sp needed
 3988 0038 10BD     		pop	{r4, pc}
 3989              	.LVL341:
 3990              	.L433:
 3991              	.LCFI61:
 3992              		.cfi_def_cfa_offset 0
 3993              		.cfi_restore 4
 3994              		.cfi_restore 14
 3995              	.LBB510:
 3996              	.LBB511:
 3997              		.loc 2 465 0
 3998              		.syntax unified
 3999              	@ 465 "Drivers/CMSIS/Include/cmsis_gcc.h" 1
 4000 003a EFF31183 		MRS r3, basepri
 4001              	@ 0 "" 2
 4002              		.thumb
 4003              		.syntax unified
 4004              	.LBE511:
 4005              	.LBE510:
 933:Middlewares/Third_Party/FreeRTOS/Source/CMSIS_RTOS_V2/cmsis_os2.c ****     stat = osErrorISR;
 4006              		.loc 1 933 0
 4007 003e 002B     		cmp	r3, #0
 4008 0040 E8D0     		beq	.L422
 934:Middlewares/Third_Party/FreeRTOS/Source/CMSIS_RTOS_V2/cmsis_os2.c ****   }
 4009              		.loc 1 934 0
 4010 0042 6FF00500 		mvn	r0, #5
 4011              	.LVL342:
 4012 0046 7047     		bx	lr
 4013              	.LVL343:
 4014              	.L423:
 4015 0048 6FF00500 		mvn	r0, #5
 4016              	.LVL344:
 4017 004c 7047     		bx	lr
 4018              	.LVL345:
 4019              	.L424:
 4020 004e 6FF00500 		mvn	r0, #5
 4021              	.LVL346:
 4022 0052 7047     		bx	lr
 4023              	.LVL347:
 4024              	.L426:
 937:Middlewares/Third_Party/FreeRTOS/Source/CMSIS_RTOS_V2/cmsis_os2.c ****   }
 4025              		.loc 1 937 0
 4026 0054 6FF00300 		mvn	r0, #3
 4027              	.LVL348:
 4028 0058 7047     		bx	lr
 4029              	.LVL349:
 4030              	.L427:
 4031              	.LCFI62:
 4032              		.cfi_def_cfa_offset 16
 4033              		.cfi_offset 4, -8
 4034              		.cfi_offset 14, -4
 941:Middlewares/Third_Party/FreeRTOS/Source/CMSIS_RTOS_V2/cmsis_os2.c ****     }
 4035              		.loc 1 941 0
 4036 005a 6FF00200 		mvn	r0, #2
 4037 005e EAE7     		b	.L420
 4038              	.L428:
 947:Middlewares/Third_Party/FreeRTOS/Source/CMSIS_RTOS_V2/cmsis_os2.c ****       }
ARM GAS  /tmp/cce47g5y.s 			page 108


 4039              		.loc 1 947 0
 4040 0060 4FF0FF30 		mov	r0, #-1
 4041              	.LVL350:
 952:Middlewares/Third_Party/FreeRTOS/Source/CMSIS_RTOS_V2/cmsis_os2.c **** }
 4042              		.loc 1 952 0
 4043 0064 E7E7     		b	.L420
 4044              	.L435:
 4045 0066 00BF     		.align	2
 4046              	.L434:
 4047 0068 00000000 		.word	.LANCHOR0
 4048              		.cfi_endproc
 4049              	.LFE84:
 4051              		.section	.text.osTimerIsRunning,"ax",%progbits
 4052              		.align	1
 4053              		.global	osTimerIsRunning
 4054              		.syntax unified
 4055              		.thumb
 4056              		.thumb_func
 4057              		.fpu softvfp
 4059              	osTimerIsRunning:
 4060              	.LFB85:
 954:Middlewares/Third_Party/FreeRTOS/Source/CMSIS_RTOS_V2/cmsis_os2.c **** 
 955:Middlewares/Third_Party/FreeRTOS/Source/CMSIS_RTOS_V2/cmsis_os2.c **** uint32_t osTimerIsRunning (osTimerId_t timer_id) {
 4061              		.loc 1 955 0
 4062              		.cfi_startproc
 4063              		@ args = 0, pretend = 0, frame = 0
 4064              		@ frame_needed = 0, uses_anonymous_args = 0
 4065              	.LVL351:
 4066 0000 08B5     		push	{r3, lr}
 4067              	.LCFI63:
 4068              		.cfi_def_cfa_offset 8
 4069              		.cfi_offset 3, -8
 4070              		.cfi_offset 14, -4
 4071 0002 0346     		mov	r3, r0
 4072              	.LVL352:
 4073              	.LBB512:
 4074              	.LBB513:
 209:Drivers/CMSIS/Include/cmsis_gcc.h ****   return(result);
 4075              		.loc 2 209 0
 4076              		.syntax unified
 4077              	@ 209 "Drivers/CMSIS/Include/cmsis_gcc.h" 1
 4078 0004 EFF30580 		MRS r0, ipsr
 4079              	@ 0 "" 2
 4080              	.LVL353:
 4081              		.thumb
 4082              		.syntax unified
 4083              	.LBE513:
 4084              	.LBE512:
 956:Middlewares/Third_Party/FreeRTOS/Source/CMSIS_RTOS_V2/cmsis_os2.c ****   TimerHandle_t hTimer = (TimerHandle_t)timer_id;
 957:Middlewares/Third_Party/FreeRTOS/Source/CMSIS_RTOS_V2/cmsis_os2.c ****   uint32_t running;
 958:Middlewares/Third_Party/FreeRTOS/Source/CMSIS_RTOS_V2/cmsis_os2.c **** 
 959:Middlewares/Third_Party/FreeRTOS/Source/CMSIS_RTOS_V2/cmsis_os2.c ****   if (IS_IRQ() || (hTimer == NULL)) {
 4085              		.loc 1 959 0
 4086 0008 88B9     		cbnz	r0, .L439
 4087              	.LBB514:
 4088              	.LBB515:
 386:Drivers/CMSIS/Include/cmsis_gcc.h ****   return(result);
ARM GAS  /tmp/cce47g5y.s 			page 109


 4089              		.loc 2 386 0
 4090              		.syntax unified
 4091              	@ 386 "Drivers/CMSIS/Include/cmsis_gcc.h" 1
 4092 000a EFF31082 		MRS r2, primask
 4093              	@ 0 "" 2
 4094              		.thumb
 4095              		.syntax unified
 4096              	.LBE515:
 4097              	.LBE514:
 4098              		.loc 1 959 0
 4099 000e 8AB9     		cbnz	r2, .L436
 4100              		.loc 1 959 0 is_stmt 0 discriminator 2
 4101 0010 0949     		ldr	r1, .L444
 4102 0012 0968     		ldr	r1, [r1]
 4103 0014 0229     		cmp	r1, #2
 4104 0016 04D0     		beq	.L443
 4105              	.L438:
 4106              		.loc 1 959 0 discriminator 5
 4107 0018 5BB1     		cbz	r3, .L441
 4108 001a 1846     		mov	r0, r3
 960:Middlewares/Third_Party/FreeRTOS/Source/CMSIS_RTOS_V2/cmsis_os2.c ****     running = 0U;
 961:Middlewares/Third_Party/FreeRTOS/Source/CMSIS_RTOS_V2/cmsis_os2.c ****   } else {
 962:Middlewares/Third_Party/FreeRTOS/Source/CMSIS_RTOS_V2/cmsis_os2.c ****     running = (uint32_t)xTimerIsTimerActive (hTimer);
 4109              		.loc 1 962 0 is_stmt 1
 4110 001c FFF7FEFF 		bl	xTimerIsTimerActive
 4111              	.LVL354:
 4112 0020 08BD     		pop	{r3, pc}
 4113              	.LVL355:
 4114              	.L443:
 4115              	.LBB516:
 4116              	.LBB517:
 4117              		.loc 2 465 0
 4118              		.syntax unified
 4119              	@ 465 "Drivers/CMSIS/Include/cmsis_gcc.h" 1
 4120 0022 EFF31181 		MRS r1, basepri
 4121              	@ 0 "" 2
 4122              		.thumb
 4123              		.syntax unified
 4124              	.LBE517:
 4125              	.LBE516:
 959:Middlewares/Third_Party/FreeRTOS/Source/CMSIS_RTOS_V2/cmsis_os2.c ****     running = 0U;
 4126              		.loc 1 959 0
 4127 0026 0029     		cmp	r1, #0
 4128 0028 F6D0     		beq	.L438
 960:Middlewares/Third_Party/FreeRTOS/Source/CMSIS_RTOS_V2/cmsis_os2.c ****     running = 0U;
 4129              		.loc 1 960 0
 4130 002a 1046     		mov	r0, r2
 4131 002c 08BD     		pop	{r3, pc}
 4132              	.LVL356:
 4133              	.L439:
 4134 002e 0020     		movs	r0, #0
 4135 0030 08BD     		pop	{r3, pc}
 4136              	.LVL357:
 4137              	.L441:
 4138 0032 1046     		mov	r0, r2
 4139              	.LVL358:
 4140              	.L436:
ARM GAS  /tmp/cce47g5y.s 			page 110


 963:Middlewares/Third_Party/FreeRTOS/Source/CMSIS_RTOS_V2/cmsis_os2.c ****   }
 964:Middlewares/Third_Party/FreeRTOS/Source/CMSIS_RTOS_V2/cmsis_os2.c **** 
 965:Middlewares/Third_Party/FreeRTOS/Source/CMSIS_RTOS_V2/cmsis_os2.c ****   return (running);
 966:Middlewares/Third_Party/FreeRTOS/Source/CMSIS_RTOS_V2/cmsis_os2.c **** }
 4141              		.loc 1 966 0
 4142 0034 08BD     		pop	{r3, pc}
 4143              	.LVL359:
 4144              	.L445:
 4145 0036 00BF     		.align	2
 4146              	.L444:
 4147 0038 00000000 		.word	.LANCHOR0
 4148              		.cfi_endproc
 4149              	.LFE85:
 4151              		.section	.text.osTimerDelete,"ax",%progbits
 4152              		.align	1
 4153              		.global	osTimerDelete
 4154              		.syntax unified
 4155              		.thumb
 4156              		.thumb_func
 4157              		.fpu softvfp
 4159              	osTimerDelete:
 4160              	.LFB86:
 967:Middlewares/Third_Party/FreeRTOS/Source/CMSIS_RTOS_V2/cmsis_os2.c **** 
 968:Middlewares/Third_Party/FreeRTOS/Source/CMSIS_RTOS_V2/cmsis_os2.c **** osStatus_t osTimerDelete (osTimerId_t timer_id) {
 4161              		.loc 1 968 0
 4162              		.cfi_startproc
 4163              		@ args = 0, pretend = 0, frame = 0
 4164              		@ frame_needed = 0, uses_anonymous_args = 0
 4165              	.LVL360:
 4166              	.LBB518:
 4167              	.LBB519:
 209:Drivers/CMSIS/Include/cmsis_gcc.h ****   return(result);
 4168              		.loc 2 209 0
 4169              		.syntax unified
 4170              	@ 209 "Drivers/CMSIS/Include/cmsis_gcc.h" 1
 4171 0000 EFF30583 		MRS r3, ipsr
 4172              	@ 0 "" 2
 4173              		.thumb
 4174              		.syntax unified
 4175              	.LBE519:
 4176              	.LBE518:
 969:Middlewares/Third_Party/FreeRTOS/Source/CMSIS_RTOS_V2/cmsis_os2.c ****   TimerHandle_t hTimer = (TimerHandle_t)timer_id;
 970:Middlewares/Third_Party/FreeRTOS/Source/CMSIS_RTOS_V2/cmsis_os2.c ****   osStatus_t stat;
 971:Middlewares/Third_Party/FreeRTOS/Source/CMSIS_RTOS_V2/cmsis_os2.c **** #ifndef USE_FreeRTOS_HEAP_1
 972:Middlewares/Third_Party/FreeRTOS/Source/CMSIS_RTOS_V2/cmsis_os2.c ****   TimerCallback_t *callb;
 973:Middlewares/Third_Party/FreeRTOS/Source/CMSIS_RTOS_V2/cmsis_os2.c **** 
 974:Middlewares/Third_Party/FreeRTOS/Source/CMSIS_RTOS_V2/cmsis_os2.c ****   if (IS_IRQ()) {
 4177              		.loc 1 974 0
 4178 0004 1BBB     		cbnz	r3, .L449
 4179              	.LBB520:
 4180              	.LBB521:
 386:Drivers/CMSIS/Include/cmsis_gcc.h ****   return(result);
 4181              		.loc 2 386 0
 4182              		.syntax unified
 4183              	@ 386 "Drivers/CMSIS/Include/cmsis_gcc.h" 1
 4184 0006 EFF31083 		MRS r3, primask
 4185              	@ 0 "" 2
ARM GAS  /tmp/cce47g5y.s 			page 111


 4186              		.thumb
 4187              		.syntax unified
 4188              	.LBE521:
 4189              	.LBE520:
 4190              		.loc 1 974 0
 4191 000a 1BBB     		cbnz	r3, .L450
 4192              		.loc 1 974 0 is_stmt 0 discriminator 2
 4193 000c 164B     		ldr	r3, .L459
 4194 000e 1B68     		ldr	r3, [r3]
 4195 0010 022B     		cmp	r3, #2
 4196 0012 15D0     		beq	.L458
 4197              	.L448:
 975:Middlewares/Third_Party/FreeRTOS/Source/CMSIS_RTOS_V2/cmsis_os2.c ****     stat = osErrorISR;
 976:Middlewares/Third_Party/FreeRTOS/Source/CMSIS_RTOS_V2/cmsis_os2.c ****   }
 977:Middlewares/Third_Party/FreeRTOS/Source/CMSIS_RTOS_V2/cmsis_os2.c ****   else if (hTimer == NULL) {
 4198              		.loc 1 977 0 is_stmt 1
 4199 0014 08B3     		cbz	r0, .L452
 968:Middlewares/Third_Party/FreeRTOS/Source/CMSIS_RTOS_V2/cmsis_os2.c ****   TimerHandle_t hTimer = (TimerHandle_t)timer_id;
 4200              		.loc 1 968 0
 4201 0016 30B5     		push	{r4, r5, lr}
 4202              	.LCFI64:
 4203              		.cfi_def_cfa_offset 12
 4204              		.cfi_offset 4, -12
 4205              		.cfi_offset 5, -8
 4206              		.cfi_offset 14, -4
 4207 0018 83B0     		sub	sp, sp, #12
 4208              	.LCFI65:
 4209              		.cfi_def_cfa_offset 24
 4210 001a 0446     		mov	r4, r0
 978:Middlewares/Third_Party/FreeRTOS/Source/CMSIS_RTOS_V2/cmsis_os2.c ****     stat = osErrorParameter;
 979:Middlewares/Third_Party/FreeRTOS/Source/CMSIS_RTOS_V2/cmsis_os2.c ****   }
 980:Middlewares/Third_Party/FreeRTOS/Source/CMSIS_RTOS_V2/cmsis_os2.c ****   else {
 981:Middlewares/Third_Party/FreeRTOS/Source/CMSIS_RTOS_V2/cmsis_os2.c ****     callb = (TimerCallback_t *)pvTimerGetTimerID (hTimer);
 4211              		.loc 1 981 0
 4212 001c FFF7FEFF 		bl	pvTimerGetTimerID
 4213              	.LVL361:
 4214 0020 0546     		mov	r5, r0
 4215              	.LVL362:
 982:Middlewares/Third_Party/FreeRTOS/Source/CMSIS_RTOS_V2/cmsis_os2.c **** 
 983:Middlewares/Third_Party/FreeRTOS/Source/CMSIS_RTOS_V2/cmsis_os2.c ****     if (xTimerDelete (hTimer, 0) == pdPASS) {
 4216              		.loc 1 983 0
 4217 0022 0022     		movs	r2, #0
 4218 0024 0092     		str	r2, [sp]
 4219 0026 1346     		mov	r3, r2
 4220 0028 0521     		movs	r1, #5
 4221 002a 2046     		mov	r0, r4
 4222              	.LVL363:
 4223 002c FFF7FEFF 		bl	xTimerGenericCommand
 4224              	.LVL364:
 4225 0030 0128     		cmp	r0, #1
 4226 0032 15D1     		bne	.L453
 984:Middlewares/Third_Party/FreeRTOS/Source/CMSIS_RTOS_V2/cmsis_os2.c ****       vPortFree (callb);
 4227              		.loc 1 984 0
 4228 0034 2846     		mov	r0, r5
 4229 0036 FFF7FEFF 		bl	vPortFree
 4230              	.LVL365:
 985:Middlewares/Third_Party/FreeRTOS/Source/CMSIS_RTOS_V2/cmsis_os2.c ****       stat = osOK;
ARM GAS  /tmp/cce47g5y.s 			page 112


 4231              		.loc 1 985 0
 4232 003a 0020     		movs	r0, #0
 4233              	.LVL366:
 4234              	.L446:
 986:Middlewares/Third_Party/FreeRTOS/Source/CMSIS_RTOS_V2/cmsis_os2.c ****     } else {
 987:Middlewares/Third_Party/FreeRTOS/Source/CMSIS_RTOS_V2/cmsis_os2.c ****       stat = osErrorResource;
 988:Middlewares/Third_Party/FreeRTOS/Source/CMSIS_RTOS_V2/cmsis_os2.c ****     }
 989:Middlewares/Third_Party/FreeRTOS/Source/CMSIS_RTOS_V2/cmsis_os2.c ****   }
 990:Middlewares/Third_Party/FreeRTOS/Source/CMSIS_RTOS_V2/cmsis_os2.c **** #else
 991:Middlewares/Third_Party/FreeRTOS/Source/CMSIS_RTOS_V2/cmsis_os2.c ****   stat = osError;
 992:Middlewares/Third_Party/FreeRTOS/Source/CMSIS_RTOS_V2/cmsis_os2.c **** #endif
 993:Middlewares/Third_Party/FreeRTOS/Source/CMSIS_RTOS_V2/cmsis_os2.c **** 
 994:Middlewares/Third_Party/FreeRTOS/Source/CMSIS_RTOS_V2/cmsis_os2.c ****   return (stat);
 995:Middlewares/Third_Party/FreeRTOS/Source/CMSIS_RTOS_V2/cmsis_os2.c **** }
 4235              		.loc 1 995 0
 4236 003c 03B0     		add	sp, sp, #12
 4237              	.LCFI66:
 4238              		.cfi_def_cfa_offset 12
 4239              		@ sp needed
 4240 003e 30BD     		pop	{r4, r5, pc}
 4241              	.LVL367:
 4242              	.L458:
 4243              	.LCFI67:
 4244              		.cfi_def_cfa_offset 0
 4245              		.cfi_restore 4
 4246              		.cfi_restore 5
 4247              		.cfi_restore 14
 4248              	.LBB522:
 4249              	.LBB523:
 4250              		.loc 2 465 0
 4251              		.syntax unified
 4252              	@ 465 "Drivers/CMSIS/Include/cmsis_gcc.h" 1
 4253 0040 EFF31183 		MRS r3, basepri
 4254              	@ 0 "" 2
 4255              		.thumb
 4256              		.syntax unified
 4257              	.LBE523:
 4258              	.LBE522:
 974:Middlewares/Third_Party/FreeRTOS/Source/CMSIS_RTOS_V2/cmsis_os2.c ****     stat = osErrorISR;
 4259              		.loc 1 974 0
 4260 0044 002B     		cmp	r3, #0
 4261 0046 E5D0     		beq	.L448
 975:Middlewares/Third_Party/FreeRTOS/Source/CMSIS_RTOS_V2/cmsis_os2.c ****   }
 4262              		.loc 1 975 0
 4263 0048 6FF00500 		mvn	r0, #5
 4264              	.LVL368:
 4265 004c 7047     		bx	lr
 4266              	.LVL369:
 4267              	.L449:
 4268 004e 6FF00500 		mvn	r0, #5
 4269              	.LVL370:
 4270 0052 7047     		bx	lr
 4271              	.LVL371:
 4272              	.L450:
 4273 0054 6FF00500 		mvn	r0, #5
 4274              	.LVL372:
 4275 0058 7047     		bx	lr
ARM GAS  /tmp/cce47g5y.s 			page 113


 4276              	.LVL373:
 4277              	.L452:
 978:Middlewares/Third_Party/FreeRTOS/Source/CMSIS_RTOS_V2/cmsis_os2.c ****   }
 4278              		.loc 1 978 0
 4279 005a 6FF00300 		mvn	r0, #3
 4280              	.LVL374:
 4281 005e 7047     		bx	lr
 4282              	.LVL375:
 4283              	.L453:
 4284              	.LCFI68:
 4285              		.cfi_def_cfa_offset 24
 4286              		.cfi_offset 4, -12
 4287              		.cfi_offset 5, -8
 4288              		.cfi_offset 14, -4
 987:Middlewares/Third_Party/FreeRTOS/Source/CMSIS_RTOS_V2/cmsis_os2.c ****     }
 4289              		.loc 1 987 0
 4290 0060 6FF00200 		mvn	r0, #2
 4291              	.LVL376:
 994:Middlewares/Third_Party/FreeRTOS/Source/CMSIS_RTOS_V2/cmsis_os2.c **** }
 4292              		.loc 1 994 0
 4293 0064 EAE7     		b	.L446
 4294              	.L460:
 4295 0066 00BF     		.align	2
 4296              	.L459:
 4297 0068 00000000 		.word	.LANCHOR0
 4298              		.cfi_endproc
 4299              	.LFE86:
 4301              		.section	.text.osEventFlagsNew,"ax",%progbits
 4302              		.align	1
 4303              		.global	osEventFlagsNew
 4304              		.syntax unified
 4305              		.thumb
 4306              		.thumb_func
 4307              		.fpu softvfp
 4309              	osEventFlagsNew:
 4310              	.LFB87:
 996:Middlewares/Third_Party/FreeRTOS/Source/CMSIS_RTOS_V2/cmsis_os2.c **** 
 997:Middlewares/Third_Party/FreeRTOS/Source/CMSIS_RTOS_V2/cmsis_os2.c **** /*---------------------------------------------------------------------------*/
 998:Middlewares/Third_Party/FreeRTOS/Source/CMSIS_RTOS_V2/cmsis_os2.c **** 
 999:Middlewares/Third_Party/FreeRTOS/Source/CMSIS_RTOS_V2/cmsis_os2.c **** osEventFlagsId_t osEventFlagsNew (const osEventFlagsAttr_t *attr) {
 4311              		.loc 1 999 0
 4312              		.cfi_startproc
 4313              		@ args = 0, pretend = 0, frame = 0
 4314              		@ frame_needed = 0, uses_anonymous_args = 0
 4315              	.LVL377:
 4316 0000 08B5     		push	{r3, lr}
 4317              	.LCFI69:
 4318              		.cfi_def_cfa_offset 8
 4319              		.cfi_offset 3, -8
 4320              		.cfi_offset 14, -4
 4321              	.LVL378:
 4322              	.LBB524:
 4323              	.LBB525:
 209:Drivers/CMSIS/Include/cmsis_gcc.h ****   return(result);
 4324              		.loc 2 209 0
 4325              		.syntax unified
 4326              	@ 209 "Drivers/CMSIS/Include/cmsis_gcc.h" 1
ARM GAS  /tmp/cce47g5y.s 			page 114


 4327 0002 EFF30583 		MRS r3, ipsr
 4328              	@ 0 "" 2
 4329              		.thumb
 4330              		.syntax unified
 4331              	.LBE525:
 4332              	.LBE524:
1000:Middlewares/Third_Party/FreeRTOS/Source/CMSIS_RTOS_V2/cmsis_os2.c ****   EventGroupHandle_t hEventGroup;
1001:Middlewares/Third_Party/FreeRTOS/Source/CMSIS_RTOS_V2/cmsis_os2.c ****   int32_t mem;
1002:Middlewares/Third_Party/FreeRTOS/Source/CMSIS_RTOS_V2/cmsis_os2.c **** 
1003:Middlewares/Third_Party/FreeRTOS/Source/CMSIS_RTOS_V2/cmsis_os2.c ****   hEventGroup = NULL;
1004:Middlewares/Third_Party/FreeRTOS/Source/CMSIS_RTOS_V2/cmsis_os2.c **** 
1005:Middlewares/Third_Party/FreeRTOS/Source/CMSIS_RTOS_V2/cmsis_os2.c ****   if (!IS_IRQ()) {
 4333              		.loc 1 1005 0
 4334 0006 53BB     		cbnz	r3, .L467
 4335              	.LBB526:
 4336              	.LBB527:
 386:Drivers/CMSIS/Include/cmsis_gcc.h ****   return(result);
 4337              		.loc 2 386 0
 4338              		.syntax unified
 4339              	@ 386 "Drivers/CMSIS/Include/cmsis_gcc.h" 1
 4340 0008 EFF31083 		MRS r3, primask
 4341              	@ 0 "" 2
 4342              		.thumb
 4343              		.syntax unified
 4344              	.LBE527:
 4345              	.LBE526:
 4346              		.loc 1 1005 0
 4347 000c 4BBB     		cbnz	r3, .L468
 4348              		.loc 1 1005 0 is_stmt 0 discriminator 2
 4349 000e 174B     		ldr	r3, .L479
 4350 0010 1B68     		ldr	r3, [r3]
 4351 0012 022B     		cmp	r3, #2
 4352 0014 0ED0     		beq	.L476
 4353              	.L463:
 4354              	.LVL379:
1006:Middlewares/Third_Party/FreeRTOS/Source/CMSIS_RTOS_V2/cmsis_os2.c ****     mem = -1;
1007:Middlewares/Third_Party/FreeRTOS/Source/CMSIS_RTOS_V2/cmsis_os2.c **** 
1008:Middlewares/Third_Party/FreeRTOS/Source/CMSIS_RTOS_V2/cmsis_os2.c ****     if (attr != NULL) {
 4355              		.loc 1 1008 0 is_stmt 1
 4356 0016 C0B1     		cbz	r0, .L470
1009:Middlewares/Third_Party/FreeRTOS/Source/CMSIS_RTOS_V2/cmsis_os2.c ****       if ((attr->cb_mem != NULL) && (attr->cb_size >= sizeof(StaticEventGroup_t))) {
 4357              		.loc 1 1009 0
 4358 0018 8368     		ldr	r3, [r0, #8]
 4359 001a 13B1     		cbz	r3, .L465
 4360              		.loc 1 1009 0 is_stmt 0 discriminator 1
 4361 001c C268     		ldr	r2, [r0, #12]
 4362 001e 1F2A     		cmp	r2, #31
 4363 0020 15D8     		bhi	.L471
 4364              	.L465:
1010:Middlewares/Third_Party/FreeRTOS/Source/CMSIS_RTOS_V2/cmsis_os2.c ****         mem = 1;
1011:Middlewares/Third_Party/FreeRTOS/Source/CMSIS_RTOS_V2/cmsis_os2.c ****       }
1012:Middlewares/Third_Party/FreeRTOS/Source/CMSIS_RTOS_V2/cmsis_os2.c ****       else {
1013:Middlewares/Third_Party/FreeRTOS/Source/CMSIS_RTOS_V2/cmsis_os2.c ****         if ((attr->cb_mem == NULL) && (attr->cb_size == 0U)) {
 4365              		.loc 1 1013 0 is_stmt 1
 4366 0022 6BB1     		cbz	r3, .L477
1006:Middlewares/Third_Party/FreeRTOS/Source/CMSIS_RTOS_V2/cmsis_os2.c **** 
 4367              		.loc 1 1006 0
ARM GAS  /tmp/cce47g5y.s 			page 115


 4368 0024 4FF0FF33 		mov	r3, #-1
 4369              	.L464:
 4370              	.LVL380:
1014:Middlewares/Third_Party/FreeRTOS/Source/CMSIS_RTOS_V2/cmsis_os2.c ****           mem = 0;
1015:Middlewares/Third_Party/FreeRTOS/Source/CMSIS_RTOS_V2/cmsis_os2.c ****         }
1016:Middlewares/Third_Party/FreeRTOS/Source/CMSIS_RTOS_V2/cmsis_os2.c ****       }
1017:Middlewares/Third_Party/FreeRTOS/Source/CMSIS_RTOS_V2/cmsis_os2.c ****     }
1018:Middlewares/Third_Party/FreeRTOS/Source/CMSIS_RTOS_V2/cmsis_os2.c ****     else {
1019:Middlewares/Third_Party/FreeRTOS/Source/CMSIS_RTOS_V2/cmsis_os2.c ****       mem = 0;
1020:Middlewares/Third_Party/FreeRTOS/Source/CMSIS_RTOS_V2/cmsis_os2.c ****     }
1021:Middlewares/Third_Party/FreeRTOS/Source/CMSIS_RTOS_V2/cmsis_os2.c **** 
1022:Middlewares/Third_Party/FreeRTOS/Source/CMSIS_RTOS_V2/cmsis_os2.c ****     if (mem == 1) {
 4371              		.loc 1 1022 0
 4372 0028 012B     		cmp	r3, #1
 4373 002a 14D0     		beq	.L478
1023:Middlewares/Third_Party/FreeRTOS/Source/CMSIS_RTOS_V2/cmsis_os2.c ****       hEventGroup = xEventGroupCreateStatic (attr->cb_mem);
1024:Middlewares/Third_Party/FreeRTOS/Source/CMSIS_RTOS_V2/cmsis_os2.c ****     }
1025:Middlewares/Third_Party/FreeRTOS/Source/CMSIS_RTOS_V2/cmsis_os2.c ****     else {
1026:Middlewares/Third_Party/FreeRTOS/Source/CMSIS_RTOS_V2/cmsis_os2.c ****       if (mem == 0) {
 4374              		.loc 1 1026 0
 4375 002c DBB9     		cbnz	r3, .L474
1027:Middlewares/Third_Party/FreeRTOS/Source/CMSIS_RTOS_V2/cmsis_os2.c ****         hEventGroup = xEventGroupCreate();
 4376              		.loc 1 1027 0
 4377 002e FFF7FEFF 		bl	xEventGroupCreate
 4378              	.LVL381:
 4379 0032 08BD     		pop	{r3, pc}
 4380              	.LVL382:
 4381              	.L476:
 4382              	.LBB528:
 4383              	.LBB529:
 4384              		.loc 2 465 0
 4385              		.syntax unified
 4386              	@ 465 "Drivers/CMSIS/Include/cmsis_gcc.h" 1
 4387 0034 EFF31183 		MRS r3, basepri
 4388              	@ 0 "" 2
 4389              		.thumb
 4390              		.syntax unified
 4391              	.LBE529:
 4392              	.LBE528:
1005:Middlewares/Third_Party/FreeRTOS/Source/CMSIS_RTOS_V2/cmsis_os2.c ****     mem = -1;
 4393              		.loc 1 1005 0
 4394 0038 002B     		cmp	r3, #0
 4395 003a ECD0     		beq	.L463
1003:Middlewares/Third_Party/FreeRTOS/Source/CMSIS_RTOS_V2/cmsis_os2.c **** 
 4396              		.loc 1 1003 0
 4397 003c 0020     		movs	r0, #0
 4398              	.LVL383:
 4399 003e 08BD     		pop	{r3, pc}
 4400              	.LVL384:
 4401              	.L477:
1013:Middlewares/Third_Party/FreeRTOS/Source/CMSIS_RTOS_V2/cmsis_os2.c ****           mem = 0;
 4402              		.loc 1 1013 0 discriminator 1
 4403 0040 C368     		ldr	r3, [r0, #12]
 4404 0042 33B1     		cbz	r3, .L473
1006:Middlewares/Third_Party/FreeRTOS/Source/CMSIS_RTOS_V2/cmsis_os2.c **** 
 4405              		.loc 1 1006 0
 4406 0044 4FF0FF33 		mov	r3, #-1
ARM GAS  /tmp/cce47g5y.s 			page 116


 4407 0048 EEE7     		b	.L464
 4408              	.L470:
1019:Middlewares/Third_Party/FreeRTOS/Source/CMSIS_RTOS_V2/cmsis_os2.c ****     }
 4409              		.loc 1 1019 0
 4410 004a 0023     		movs	r3, #0
 4411 004c ECE7     		b	.L464
 4412              	.L471:
1010:Middlewares/Third_Party/FreeRTOS/Source/CMSIS_RTOS_V2/cmsis_os2.c ****       }
 4413              		.loc 1 1010 0
 4414 004e 0123     		movs	r3, #1
 4415 0050 EAE7     		b	.L464
 4416              	.L473:
1014:Middlewares/Third_Party/FreeRTOS/Source/CMSIS_RTOS_V2/cmsis_os2.c ****         }
 4417              		.loc 1 1014 0
 4418 0052 0023     		movs	r3, #0
 4419 0054 E8E7     		b	.L464
 4420              	.LVL385:
 4421              	.L478:
1023:Middlewares/Third_Party/FreeRTOS/Source/CMSIS_RTOS_V2/cmsis_os2.c ****     }
 4422              		.loc 1 1023 0
 4423 0056 8068     		ldr	r0, [r0, #8]
 4424              	.LVL386:
 4425 0058 FFF7FEFF 		bl	xEventGroupCreateStatic
 4426              	.LVL387:
 4427 005c 08BD     		pop	{r3, pc}
 4428              	.LVL388:
 4429              	.L467:
1003:Middlewares/Third_Party/FreeRTOS/Source/CMSIS_RTOS_V2/cmsis_os2.c **** 
 4430              		.loc 1 1003 0
 4431 005e 0020     		movs	r0, #0
 4432              	.LVL389:
 4433 0060 08BD     		pop	{r3, pc}
 4434              	.LVL390:
 4435              	.L468:
 4436 0062 0020     		movs	r0, #0
 4437              	.LVL391:
 4438 0064 08BD     		pop	{r3, pc}
 4439              	.LVL392:
 4440              	.L474:
 4441 0066 0020     		movs	r0, #0
 4442              	.LVL393:
1028:Middlewares/Third_Party/FreeRTOS/Source/CMSIS_RTOS_V2/cmsis_os2.c ****       }
1029:Middlewares/Third_Party/FreeRTOS/Source/CMSIS_RTOS_V2/cmsis_os2.c ****     }
1030:Middlewares/Third_Party/FreeRTOS/Source/CMSIS_RTOS_V2/cmsis_os2.c ****   }
1031:Middlewares/Third_Party/FreeRTOS/Source/CMSIS_RTOS_V2/cmsis_os2.c **** 
1032:Middlewares/Third_Party/FreeRTOS/Source/CMSIS_RTOS_V2/cmsis_os2.c ****   return ((osEventFlagsId_t)hEventGroup);
1033:Middlewares/Third_Party/FreeRTOS/Source/CMSIS_RTOS_V2/cmsis_os2.c **** }
 4443              		.loc 1 1033 0
 4444 0068 08BD     		pop	{r3, pc}
 4445              	.LVL394:
 4446              	.L480:
 4447 006a 00BF     		.align	2
 4448              	.L479:
 4449 006c 00000000 		.word	.LANCHOR0
 4450              		.cfi_endproc
 4451              	.LFE87:
 4453              		.section	.text.osEventFlagsSet,"ax",%progbits
ARM GAS  /tmp/cce47g5y.s 			page 117


 4454              		.align	1
 4455              		.global	osEventFlagsSet
 4456              		.syntax unified
 4457              		.thumb
 4458              		.thumb_func
 4459              		.fpu softvfp
 4461              	osEventFlagsSet:
 4462              	.LFB88:
1034:Middlewares/Third_Party/FreeRTOS/Source/CMSIS_RTOS_V2/cmsis_os2.c **** 
1035:Middlewares/Third_Party/FreeRTOS/Source/CMSIS_RTOS_V2/cmsis_os2.c **** uint32_t osEventFlagsSet (osEventFlagsId_t ef_id, uint32_t flags) {
 4463              		.loc 1 1035 0
 4464              		.cfi_startproc
 4465              		@ args = 0, pretend = 0, frame = 8
 4466              		@ frame_needed = 0, uses_anonymous_args = 0
 4467              	.LVL395:
1036:Middlewares/Third_Party/FreeRTOS/Source/CMSIS_RTOS_V2/cmsis_os2.c ****   EventGroupHandle_t hEventGroup = (EventGroupHandle_t)ef_id;
1037:Middlewares/Third_Party/FreeRTOS/Source/CMSIS_RTOS_V2/cmsis_os2.c ****   uint32_t rflags;
1038:Middlewares/Third_Party/FreeRTOS/Source/CMSIS_RTOS_V2/cmsis_os2.c ****   BaseType_t yield;
1039:Middlewares/Third_Party/FreeRTOS/Source/CMSIS_RTOS_V2/cmsis_os2.c **** 
1040:Middlewares/Third_Party/FreeRTOS/Source/CMSIS_RTOS_V2/cmsis_os2.c ****   if ((hEventGroup == NULL) || ((flags & EVENT_FLAGS_INVALID_BITS) != 0U)) {
 4468              		.loc 1 1040 0
 4469 0000 90B3     		cbz	r0, .L485
 4470              		.loc 1 1040 0 is_stmt 0 discriminator 1
 4471 0002 11F07F4F 		tst	r1, #-16777216
 4472 0006 02D0     		beq	.L493
1041:Middlewares/Third_Party/FreeRTOS/Source/CMSIS_RTOS_V2/cmsis_os2.c ****     rflags = (uint32_t)osErrorParameter;
 4473              		.loc 1 1041 0 is_stmt 1
 4474 0008 6FF00300 		mvn	r0, #3
 4475              	.LVL396:
 4476 000c 7047     		bx	lr
 4477              	.LVL397:
 4478              	.L493:
1035:Middlewares/Third_Party/FreeRTOS/Source/CMSIS_RTOS_V2/cmsis_os2.c ****   EventGroupHandle_t hEventGroup = (EventGroupHandle_t)ef_id;
 4479              		.loc 1 1035 0
 4480 000e 10B5     		push	{r4, lr}
 4481              	.LCFI70:
 4482              		.cfi_def_cfa_offset 8
 4483              		.cfi_offset 4, -8
 4484              		.cfi_offset 14, -4
 4485 0010 82B0     		sub	sp, sp, #8
 4486              	.LCFI71:
 4487              		.cfi_def_cfa_offset 16
 4488 0012 0C46     		mov	r4, r1
 4489              	.LBB530:
 4490              	.LBB531:
 209:Drivers/CMSIS/Include/cmsis_gcc.h ****   return(result);
 4491              		.loc 2 209 0
 4492              		.syntax unified
 4493              	@ 209 "Drivers/CMSIS/Include/cmsis_gcc.h" 1
 4494 0014 EFF30583 		MRS r3, ipsr
 4495              	@ 0 "" 2
 4496              		.thumb
 4497              		.syntax unified
 4498              	.LBE531:
 4499              	.LBE530:
1042:Middlewares/Third_Party/FreeRTOS/Source/CMSIS_RTOS_V2/cmsis_os2.c ****   }
1043:Middlewares/Third_Party/FreeRTOS/Source/CMSIS_RTOS_V2/cmsis_os2.c ****   else if (IS_IRQ()) {
ARM GAS  /tmp/cce47g5y.s 			page 118


 4500              		.loc 1 1043 0
 4501 0018 73B9     		cbnz	r3, .L483
 4502              	.LBB532:
 4503              	.LBB533:
 386:Drivers/CMSIS/Include/cmsis_gcc.h ****   return(result);
 4504              		.loc 2 386 0
 4505              		.syntax unified
 4506              	@ 386 "Drivers/CMSIS/Include/cmsis_gcc.h" 1
 4507 001a EFF31083 		MRS r3, primask
 4508              	@ 0 "" 2
 4509              		.thumb
 4510              		.syntax unified
 4511              	.LBE533:
 4512              	.LBE532:
 4513              		.loc 1 1043 0
 4514 001e 5BB9     		cbnz	r3, .L483
 4515              		.loc 1 1043 0 is_stmt 0 discriminator 2
 4516 0020 144B     		ldr	r3, .L496
 4517 0022 1B68     		ldr	r3, [r3]
 4518 0024 022B     		cmp	r3, #2
 4519 0026 03D0     		beq	.L494
 4520              	.L484:
1044:Middlewares/Third_Party/FreeRTOS/Source/CMSIS_RTOS_V2/cmsis_os2.c ****     yield = pdFALSE;
1045:Middlewares/Third_Party/FreeRTOS/Source/CMSIS_RTOS_V2/cmsis_os2.c **** 
1046:Middlewares/Third_Party/FreeRTOS/Source/CMSIS_RTOS_V2/cmsis_os2.c ****     if (xEventGroupSetBitsFromISR (hEventGroup, (EventBits_t)flags, &yield) != pdFAIL) {
1047:Middlewares/Third_Party/FreeRTOS/Source/CMSIS_RTOS_V2/cmsis_os2.c ****       rflags = (uint32_t)osErrorResource;
1048:Middlewares/Third_Party/FreeRTOS/Source/CMSIS_RTOS_V2/cmsis_os2.c ****     } else {
1049:Middlewares/Third_Party/FreeRTOS/Source/CMSIS_RTOS_V2/cmsis_os2.c ****       rflags = flags;
1050:Middlewares/Third_Party/FreeRTOS/Source/CMSIS_RTOS_V2/cmsis_os2.c ****       portYIELD_FROM_ISR (yield);
1051:Middlewares/Third_Party/FreeRTOS/Source/CMSIS_RTOS_V2/cmsis_os2.c ****     }
1052:Middlewares/Third_Party/FreeRTOS/Source/CMSIS_RTOS_V2/cmsis_os2.c ****   }
1053:Middlewares/Third_Party/FreeRTOS/Source/CMSIS_RTOS_V2/cmsis_os2.c ****   else {
1054:Middlewares/Third_Party/FreeRTOS/Source/CMSIS_RTOS_V2/cmsis_os2.c ****     rflags = xEventGroupSetBits (hEventGroup, (EventBits_t)flags);
 4521              		.loc 1 1054 0 is_stmt 1
 4522 0028 2146     		mov	r1, r4
 4523              	.LVL398:
 4524 002a FFF7FEFF 		bl	xEventGroupSetBits
 4525              	.LVL399:
 4526 002e 0DE0     		b	.L481
 4527              	.LVL400:
 4528              	.L494:
 4529              	.LBB534:
 4530              	.LBB535:
 4531              		.loc 2 465 0
 4532              		.syntax unified
 4533              	@ 465 "Drivers/CMSIS/Include/cmsis_gcc.h" 1
 4534 0030 EFF31183 		MRS r3, basepri
 4535              	@ 0 "" 2
 4536              		.thumb
 4537              		.syntax unified
 4538              	.LBE535:
 4539              	.LBE534:
1043:Middlewares/Third_Party/FreeRTOS/Source/CMSIS_RTOS_V2/cmsis_os2.c ****     yield = pdFALSE;
 4540              		.loc 1 1043 0
 4541 0034 002B     		cmp	r3, #0
 4542 0036 F7D0     		beq	.L484
 4543              	.L483:
ARM GAS  /tmp/cce47g5y.s 			page 119


1044:Middlewares/Third_Party/FreeRTOS/Source/CMSIS_RTOS_V2/cmsis_os2.c ****     yield = pdFALSE;
 4544              		.loc 1 1044 0
 4545 0038 02AA     		add	r2, sp, #8
 4546 003a 0023     		movs	r3, #0
 4547 003c 42F8043D 		str	r3, [r2, #-4]!
1046:Middlewares/Third_Party/FreeRTOS/Source/CMSIS_RTOS_V2/cmsis_os2.c ****       rflags = (uint32_t)osErrorResource;
 4548              		.loc 1 1046 0
 4549 0040 2146     		mov	r1, r4
 4550              	.LVL401:
 4551 0042 FFF7FEFF 		bl	xEventGroupSetBitsFromISR
 4552              	.LVL402:
 4553 0046 18B1     		cbz	r0, .L495
1047:Middlewares/Third_Party/FreeRTOS/Source/CMSIS_RTOS_V2/cmsis_os2.c ****     } else {
 4554              		.loc 1 1047 0
 4555 0048 6FF00200 		mvn	r0, #2
 4556              	.L481:
1055:Middlewares/Third_Party/FreeRTOS/Source/CMSIS_RTOS_V2/cmsis_os2.c ****   }
1056:Middlewares/Third_Party/FreeRTOS/Source/CMSIS_RTOS_V2/cmsis_os2.c **** 
1057:Middlewares/Third_Party/FreeRTOS/Source/CMSIS_RTOS_V2/cmsis_os2.c ****   return (rflags);
1058:Middlewares/Third_Party/FreeRTOS/Source/CMSIS_RTOS_V2/cmsis_os2.c **** }
 4557              		.loc 1 1058 0
 4558 004c 02B0     		add	sp, sp, #8
 4559              	.LCFI72:
 4560              		.cfi_remember_state
 4561              		.cfi_def_cfa_offset 8
 4562              		@ sp needed
 4563 004e 10BD     		pop	{r4, pc}
 4564              	.LVL403:
 4565              	.L495:
 4566              	.LCFI73:
 4567              		.cfi_restore_state
1050:Middlewares/Third_Party/FreeRTOS/Source/CMSIS_RTOS_V2/cmsis_os2.c ****     }
 4568              		.loc 1 1050 0
 4569 0050 019B     		ldr	r3, [sp, #4]
 4570 0052 63B1     		cbz	r3, .L488
1050:Middlewares/Third_Party/FreeRTOS/Source/CMSIS_RTOS_V2/cmsis_os2.c ****     }
 4571              		.loc 1 1050 0 is_stmt 0 discriminator 1
 4572 0054 4FF08052 		mov	r2, #268435456
 4573 0058 074B     		ldr	r3, .L496+4
 4574 005a 1A60     		str	r2, [r3]
 4575              		.syntax unified
 4576              	@ 1050 "Middlewares/Third_Party/FreeRTOS/Source/CMSIS_RTOS_V2/cmsis_os2.c" 1
 4577 005c BFF34F8F 		dsb
 4578              	@ 0 "" 2
 4579              	@ 1050 "Middlewares/Third_Party/FreeRTOS/Source/CMSIS_RTOS_V2/cmsis_os2.c" 1
 4580 0060 BFF36F8F 		isb
 4581              	@ 0 "" 2
1049:Middlewares/Third_Party/FreeRTOS/Source/CMSIS_RTOS_V2/cmsis_os2.c ****       portYIELD_FROM_ISR (yield);
 4582              		.loc 1 1049 0 is_stmt 1 discriminator 1
 4583              		.thumb
 4584              		.syntax unified
 4585 0064 2046     		mov	r0, r4
 4586 0066 F1E7     		b	.L481
 4587              	.LVL404:
 4588              	.L485:
 4589              	.LCFI74:
 4590              		.cfi_def_cfa_offset 0
ARM GAS  /tmp/cce47g5y.s 			page 120


 4591              		.cfi_restore 4
 4592              		.cfi_restore 14
1041:Middlewares/Third_Party/FreeRTOS/Source/CMSIS_RTOS_V2/cmsis_os2.c ****   }
 4593              		.loc 1 1041 0
 4594 0068 6FF00300 		mvn	r0, #3
 4595              	.LVL405:
 4596 006c 7047     		bx	lr
 4597              	.LVL406:
 4598              	.L488:
 4599              	.LCFI75:
 4600              		.cfi_def_cfa_offset 16
 4601              		.cfi_offset 4, -8
 4602              		.cfi_offset 14, -4
1049:Middlewares/Third_Party/FreeRTOS/Source/CMSIS_RTOS_V2/cmsis_os2.c ****       portYIELD_FROM_ISR (yield);
 4603              		.loc 1 1049 0
 4604 006e 2046     		mov	r0, r4
 4605              	.LVL407:
1057:Middlewares/Third_Party/FreeRTOS/Source/CMSIS_RTOS_V2/cmsis_os2.c **** }
 4606              		.loc 1 1057 0
 4607 0070 ECE7     		b	.L481
 4608              	.L497:
 4609 0072 00BF     		.align	2
 4610              	.L496:
 4611 0074 00000000 		.word	.LANCHOR0
 4612 0078 04ED00E0 		.word	-536810236
 4613              		.cfi_endproc
 4614              	.LFE88:
 4616              		.section	.text.osEventFlagsClear,"ax",%progbits
 4617              		.align	1
 4618              		.global	osEventFlagsClear
 4619              		.syntax unified
 4620              		.thumb
 4621              		.thumb_func
 4622              		.fpu softvfp
 4624              	osEventFlagsClear:
 4625              	.LFB89:
1059:Middlewares/Third_Party/FreeRTOS/Source/CMSIS_RTOS_V2/cmsis_os2.c **** 
1060:Middlewares/Third_Party/FreeRTOS/Source/CMSIS_RTOS_V2/cmsis_os2.c **** uint32_t osEventFlagsClear (osEventFlagsId_t ef_id, uint32_t flags) {
 4626              		.loc 1 1060 0
 4627              		.cfi_startproc
 4628              		@ args = 0, pretend = 0, frame = 0
 4629              		@ frame_needed = 0, uses_anonymous_args = 0
 4630              	.LVL408:
 4631 0000 70B5     		push	{r4, r5, r6, lr}
 4632              	.LCFI76:
 4633              		.cfi_def_cfa_offset 16
 4634              		.cfi_offset 4, -16
 4635              		.cfi_offset 5, -12
 4636              		.cfi_offset 6, -8
 4637              		.cfi_offset 14, -4
 4638              	.LVL409:
1061:Middlewares/Third_Party/FreeRTOS/Source/CMSIS_RTOS_V2/cmsis_os2.c ****   EventGroupHandle_t hEventGroup = (EventGroupHandle_t)ef_id;
1062:Middlewares/Third_Party/FreeRTOS/Source/CMSIS_RTOS_V2/cmsis_os2.c ****   uint32_t rflags;
1063:Middlewares/Third_Party/FreeRTOS/Source/CMSIS_RTOS_V2/cmsis_os2.c **** 
1064:Middlewares/Third_Party/FreeRTOS/Source/CMSIS_RTOS_V2/cmsis_os2.c ****   if ((hEventGroup == NULL) || ((flags & EVENT_FLAGS_INVALID_BITS) != 0U)) {
 4639              		.loc 1 1064 0
 4640 0002 48B3     		cbz	r0, .L502
ARM GAS  /tmp/cce47g5y.s 			page 121


 4641 0004 0646     		mov	r6, r0
 4642              		.loc 1 1064 0 is_stmt 0 discriminator 1
 4643 0006 11F07F4F 		tst	r1, #-16777216
 4644 000a 03D0     		beq	.L506
1065:Middlewares/Third_Party/FreeRTOS/Source/CMSIS_RTOS_V2/cmsis_os2.c ****     rflags = (uint32_t)osErrorParameter;
 4645              		.loc 1 1065 0 is_stmt 1
 4646 000c 6FF00305 		mvn	r5, #3
 4647              	.LVL410:
 4648              	.L498:
1066:Middlewares/Third_Party/FreeRTOS/Source/CMSIS_RTOS_V2/cmsis_os2.c ****   }
1067:Middlewares/Third_Party/FreeRTOS/Source/CMSIS_RTOS_V2/cmsis_os2.c ****   else if (IS_IRQ()) {
1068:Middlewares/Third_Party/FreeRTOS/Source/CMSIS_RTOS_V2/cmsis_os2.c ****     rflags = xEventGroupGetBitsFromISR (hEventGroup);
1069:Middlewares/Third_Party/FreeRTOS/Source/CMSIS_RTOS_V2/cmsis_os2.c **** 
1070:Middlewares/Third_Party/FreeRTOS/Source/CMSIS_RTOS_V2/cmsis_os2.c ****     if (xEventGroupClearBitsFromISR (hEventGroup, (EventBits_t)flags) == pdFAIL) {
1071:Middlewares/Third_Party/FreeRTOS/Source/CMSIS_RTOS_V2/cmsis_os2.c ****       rflags = (uint32_t)osErrorResource;
1072:Middlewares/Third_Party/FreeRTOS/Source/CMSIS_RTOS_V2/cmsis_os2.c ****     }
1073:Middlewares/Third_Party/FreeRTOS/Source/CMSIS_RTOS_V2/cmsis_os2.c ****   }
1074:Middlewares/Third_Party/FreeRTOS/Source/CMSIS_RTOS_V2/cmsis_os2.c ****   else {
1075:Middlewares/Third_Party/FreeRTOS/Source/CMSIS_RTOS_V2/cmsis_os2.c ****     rflags = xEventGroupClearBits (hEventGroup, (EventBits_t)flags);
1076:Middlewares/Third_Party/FreeRTOS/Source/CMSIS_RTOS_V2/cmsis_os2.c ****   }
1077:Middlewares/Third_Party/FreeRTOS/Source/CMSIS_RTOS_V2/cmsis_os2.c **** 
1078:Middlewares/Third_Party/FreeRTOS/Source/CMSIS_RTOS_V2/cmsis_os2.c ****   return (rflags);
1079:Middlewares/Third_Party/FreeRTOS/Source/CMSIS_RTOS_V2/cmsis_os2.c **** }
 4649              		.loc 1 1079 0
 4650 0010 2846     		mov	r0, r5
 4651 0012 70BD     		pop	{r4, r5, r6, pc}
 4652              	.LVL411:
 4653              	.L506:
 4654 0014 0C46     		mov	r4, r1
 4655              	.LBB536:
 4656              	.LBB537:
 209:Drivers/CMSIS/Include/cmsis_gcc.h ****   return(result);
 4657              		.loc 2 209 0
 4658              		.syntax unified
 4659              	@ 209 "Drivers/CMSIS/Include/cmsis_gcc.h" 1
 4660 0016 EFF30583 		MRS r3, ipsr
 4661              	@ 0 "" 2
 4662              		.thumb
 4663              		.syntax unified
 4664              	.LBE537:
 4665              	.LBE536:
1067:Middlewares/Third_Party/FreeRTOS/Source/CMSIS_RTOS_V2/cmsis_os2.c ****     rflags = xEventGroupGetBitsFromISR (hEventGroup);
 4666              		.loc 1 1067 0
 4667 001a 83B9     		cbnz	r3, .L500
 4668              	.LBB538:
 4669              	.LBB539:
 386:Drivers/CMSIS/Include/cmsis_gcc.h ****   return(result);
 4670              		.loc 2 386 0
 4671              		.syntax unified
 4672              	@ 386 "Drivers/CMSIS/Include/cmsis_gcc.h" 1
 4673 001c EFF31083 		MRS r3, primask
 4674              	@ 0 "" 2
 4675              		.thumb
 4676              		.syntax unified
 4677              	.LBE539:
 4678              	.LBE538:
1067:Middlewares/Third_Party/FreeRTOS/Source/CMSIS_RTOS_V2/cmsis_os2.c ****     rflags = xEventGroupGetBitsFromISR (hEventGroup);
ARM GAS  /tmp/cce47g5y.s 			page 122


 4679              		.loc 1 1067 0
 4680 0020 6BB9     		cbnz	r3, .L500
1067:Middlewares/Third_Party/FreeRTOS/Source/CMSIS_RTOS_V2/cmsis_os2.c ****     rflags = xEventGroupGetBitsFromISR (hEventGroup);
 4681              		.loc 1 1067 0 is_stmt 0 discriminator 2
 4682 0022 0F4B     		ldr	r3, .L508
 4683 0024 1B68     		ldr	r3, [r3]
 4684 0026 022B     		cmp	r3, #2
 4685 0028 05D0     		beq	.L507
 4686              	.L501:
1075:Middlewares/Third_Party/FreeRTOS/Source/CMSIS_RTOS_V2/cmsis_os2.c ****   }
 4687              		.loc 1 1075 0 is_stmt 1
 4688 002a 2146     		mov	r1, r4
 4689              	.LVL412:
 4690 002c 3046     		mov	r0, r6
 4691              	.LVL413:
 4692 002e FFF7FEFF 		bl	xEventGroupClearBits
 4693              	.LVL414:
 4694 0032 0546     		mov	r5, r0
 4695              	.LVL415:
 4696 0034 ECE7     		b	.L498
 4697              	.LVL416:
 4698              	.L507:
 4699              	.LBB540:
 4700              	.LBB541:
 4701              		.loc 2 465 0
 4702              		.syntax unified
 4703              	@ 465 "Drivers/CMSIS/Include/cmsis_gcc.h" 1
 4704 0036 EFF31183 		MRS r3, basepri
 4705              	@ 0 "" 2
 4706              		.thumb
 4707              		.syntax unified
 4708              	.LBE541:
 4709              	.LBE540:
1067:Middlewares/Third_Party/FreeRTOS/Source/CMSIS_RTOS_V2/cmsis_os2.c ****     rflags = xEventGroupGetBitsFromISR (hEventGroup);
 4710              		.loc 1 1067 0
 4711 003a 002B     		cmp	r3, #0
 4712 003c F5D0     		beq	.L501
 4713              	.L500:
1068:Middlewares/Third_Party/FreeRTOS/Source/CMSIS_RTOS_V2/cmsis_os2.c **** 
 4714              		.loc 1 1068 0
 4715 003e 3046     		mov	r0, r6
 4716              	.LVL417:
 4717 0040 FFF7FEFF 		bl	xEventGroupGetBitsFromISR
 4718              	.LVL418:
 4719 0044 0546     		mov	r5, r0
 4720              	.LVL419:
1070:Middlewares/Third_Party/FreeRTOS/Source/CMSIS_RTOS_V2/cmsis_os2.c ****       rflags = (uint32_t)osErrorResource;
 4721              		.loc 1 1070 0
 4722 0046 2146     		mov	r1, r4
 4723 0048 3046     		mov	r0, r6
 4724              	.LVL420:
 4725 004a FFF7FEFF 		bl	xEventGroupClearBitsFromISR
 4726              	.LVL421:
 4727 004e 0028     		cmp	r0, #0
 4728 0050 DED1     		bne	.L498
1071:Middlewares/Third_Party/FreeRTOS/Source/CMSIS_RTOS_V2/cmsis_os2.c ****     }
 4729              		.loc 1 1071 0
ARM GAS  /tmp/cce47g5y.s 			page 123


 4730 0052 6FF00205 		mvn	r5, #2
 4731              	.LVL422:
1078:Middlewares/Third_Party/FreeRTOS/Source/CMSIS_RTOS_V2/cmsis_os2.c **** }
 4732              		.loc 1 1078 0
 4733 0056 DBE7     		b	.L498
 4734              	.LVL423:
 4735              	.L502:
1065:Middlewares/Third_Party/FreeRTOS/Source/CMSIS_RTOS_V2/cmsis_os2.c ****   }
 4736              		.loc 1 1065 0
 4737 0058 6FF00305 		mvn	r5, #3
 4738 005c D8E7     		b	.L498
 4739              	.L509:
 4740 005e 00BF     		.align	2
 4741              	.L508:
 4742 0060 00000000 		.word	.LANCHOR0
 4743              		.cfi_endproc
 4744              	.LFE89:
 4746              		.section	.text.osEventFlagsGet,"ax",%progbits
 4747              		.align	1
 4748              		.global	osEventFlagsGet
 4749              		.syntax unified
 4750              		.thumb
 4751              		.thumb_func
 4752              		.fpu softvfp
 4754              	osEventFlagsGet:
 4755              	.LFB90:
1080:Middlewares/Third_Party/FreeRTOS/Source/CMSIS_RTOS_V2/cmsis_os2.c **** 
1081:Middlewares/Third_Party/FreeRTOS/Source/CMSIS_RTOS_V2/cmsis_os2.c **** uint32_t osEventFlagsGet (osEventFlagsId_t ef_id) {
 4756              		.loc 1 1081 0
 4757              		.cfi_startproc
 4758              		@ args = 0, pretend = 0, frame = 0
 4759              		@ frame_needed = 0, uses_anonymous_args = 0
 4760              	.LVL424:
1082:Middlewares/Third_Party/FreeRTOS/Source/CMSIS_RTOS_V2/cmsis_os2.c ****   EventGroupHandle_t hEventGroup = (EventGroupHandle_t)ef_id;
1083:Middlewares/Third_Party/FreeRTOS/Source/CMSIS_RTOS_V2/cmsis_os2.c ****   uint32_t rflags;
1084:Middlewares/Third_Party/FreeRTOS/Source/CMSIS_RTOS_V2/cmsis_os2.c **** 
1085:Middlewares/Third_Party/FreeRTOS/Source/CMSIS_RTOS_V2/cmsis_os2.c ****   if (ef_id == NULL) {
 4761              		.loc 1 1085 0
 4762 0000 A8B1     		cbz	r0, .L514
1081:Middlewares/Third_Party/FreeRTOS/Source/CMSIS_RTOS_V2/cmsis_os2.c ****   EventGroupHandle_t hEventGroup = (EventGroupHandle_t)ef_id;
 4763              		.loc 1 1081 0
 4764 0002 08B5     		push	{r3, lr}
 4765              	.LCFI77:
 4766              		.cfi_def_cfa_offset 8
 4767              		.cfi_offset 3, -8
 4768              		.cfi_offset 14, -4
 4769              	.LBB542:
 4770              	.LBB543:
 209:Drivers/CMSIS/Include/cmsis_gcc.h ****   return(result);
 4771              		.loc 2 209 0
 4772              		.syntax unified
 4773              	@ 209 "Drivers/CMSIS/Include/cmsis_gcc.h" 1
 4774 0004 EFF30583 		MRS r3, ipsr
 4775              	@ 0 "" 2
 4776              		.thumb
 4777              		.syntax unified
 4778              	.LBE543:
ARM GAS  /tmp/cce47g5y.s 			page 124


 4779              	.LBE542:
1086:Middlewares/Third_Party/FreeRTOS/Source/CMSIS_RTOS_V2/cmsis_os2.c ****     rflags = 0U;
1087:Middlewares/Third_Party/FreeRTOS/Source/CMSIS_RTOS_V2/cmsis_os2.c ****   }
1088:Middlewares/Third_Party/FreeRTOS/Source/CMSIS_RTOS_V2/cmsis_os2.c ****   else if (IS_IRQ()) {
 4780              		.loc 1 1088 0
 4781 0008 73B9     		cbnz	r3, .L512
 4782              	.LBB544:
 4783              	.LBB545:
 386:Drivers/CMSIS/Include/cmsis_gcc.h ****   return(result);
 4784              		.loc 2 386 0
 4785              		.syntax unified
 4786              	@ 386 "Drivers/CMSIS/Include/cmsis_gcc.h" 1
 4787 000a EFF31083 		MRS r3, primask
 4788              	@ 0 "" 2
 4789              		.thumb
 4790              		.syntax unified
 4791              	.LBE545:
 4792              	.LBE544:
 4793              		.loc 1 1088 0
 4794 000e 5BB9     		cbnz	r3, .L512
 4795              		.loc 1 1088 0 is_stmt 0 discriminator 2
 4796 0010 084B     		ldr	r3, .L520
 4797 0012 1B68     		ldr	r3, [r3]
 4798 0014 022B     		cmp	r3, #2
 4799 0016 03D0     		beq	.L519
 4800              	.L513:
1089:Middlewares/Third_Party/FreeRTOS/Source/CMSIS_RTOS_V2/cmsis_os2.c ****     rflags = xEventGroupGetBitsFromISR (hEventGroup);
1090:Middlewares/Third_Party/FreeRTOS/Source/CMSIS_RTOS_V2/cmsis_os2.c ****   }
1091:Middlewares/Third_Party/FreeRTOS/Source/CMSIS_RTOS_V2/cmsis_os2.c ****   else {
1092:Middlewares/Third_Party/FreeRTOS/Source/CMSIS_RTOS_V2/cmsis_os2.c ****     rflags = xEventGroupGetBits (hEventGroup);
 4801              		.loc 1 1092 0 is_stmt 1
 4802 0018 0021     		movs	r1, #0
 4803 001a FFF7FEFF 		bl	xEventGroupClearBits
 4804              	.LVL425:
 4805 001e 08BD     		pop	{r3, pc}
 4806              	.LVL426:
 4807              	.L519:
 4808              	.LBB546:
 4809              	.LBB547:
 4810              		.loc 2 465 0
 4811              		.syntax unified
 4812              	@ 465 "Drivers/CMSIS/Include/cmsis_gcc.h" 1
 4813 0020 EFF31183 		MRS r3, basepri
 4814              	@ 0 "" 2
 4815              		.thumb
 4816              		.syntax unified
 4817              	.LBE547:
 4818              	.LBE546:
1088:Middlewares/Third_Party/FreeRTOS/Source/CMSIS_RTOS_V2/cmsis_os2.c ****     rflags = xEventGroupGetBitsFromISR (hEventGroup);
 4819              		.loc 1 1088 0
 4820 0024 002B     		cmp	r3, #0
 4821 0026 F7D0     		beq	.L513
 4822              	.L512:
1089:Middlewares/Third_Party/FreeRTOS/Source/CMSIS_RTOS_V2/cmsis_os2.c ****     rflags = xEventGroupGetBitsFromISR (hEventGroup);
 4823              		.loc 1 1089 0
 4824 0028 FFF7FEFF 		bl	xEventGroupGetBitsFromISR
 4825              	.LVL427:
ARM GAS  /tmp/cce47g5y.s 			page 125


 4826 002c 08BD     		pop	{r3, pc}
 4827              	.LVL428:
 4828              	.L514:
 4829              	.LCFI78:
 4830              		.cfi_def_cfa_offset 0
 4831              		.cfi_restore 3
 4832              		.cfi_restore 14
1086:Middlewares/Third_Party/FreeRTOS/Source/CMSIS_RTOS_V2/cmsis_os2.c ****   }
 4833              		.loc 1 1086 0
 4834 002e 0020     		movs	r0, #0
 4835              	.LVL429:
1093:Middlewares/Third_Party/FreeRTOS/Source/CMSIS_RTOS_V2/cmsis_os2.c ****   }
1094:Middlewares/Third_Party/FreeRTOS/Source/CMSIS_RTOS_V2/cmsis_os2.c **** 
1095:Middlewares/Third_Party/FreeRTOS/Source/CMSIS_RTOS_V2/cmsis_os2.c ****   return (rflags);
 4836              		.loc 1 1095 0
 4837 0030 7047     		bx	lr
 4838              	.L521:
 4839 0032 00BF     		.align	2
 4840              	.L520:
 4841 0034 00000000 		.word	.LANCHOR0
 4842              		.cfi_endproc
 4843              	.LFE90:
 4845              		.section	.text.osEventFlagsWait,"ax",%progbits
 4846              		.align	1
 4847              		.global	osEventFlagsWait
 4848              		.syntax unified
 4849              		.thumb
 4850              		.thumb_func
 4851              		.fpu softvfp
 4853              	osEventFlagsWait:
 4854              	.LFB91:
1096:Middlewares/Third_Party/FreeRTOS/Source/CMSIS_RTOS_V2/cmsis_os2.c **** }
1097:Middlewares/Third_Party/FreeRTOS/Source/CMSIS_RTOS_V2/cmsis_os2.c **** 
1098:Middlewares/Third_Party/FreeRTOS/Source/CMSIS_RTOS_V2/cmsis_os2.c **** uint32_t osEventFlagsWait (osEventFlagsId_t ef_id, uint32_t flags, uint32_t options, uint32_t timeo
 4855              		.loc 1 1098 0
 4856              		.cfi_startproc
 4857              		@ args = 0, pretend = 0, frame = 0
 4858              		@ frame_needed = 0, uses_anonymous_args = 0
 4859              	.LVL430:
1099:Middlewares/Third_Party/FreeRTOS/Source/CMSIS_RTOS_V2/cmsis_os2.c ****   EventGroupHandle_t hEventGroup = (EventGroupHandle_t)ef_id;
1100:Middlewares/Third_Party/FreeRTOS/Source/CMSIS_RTOS_V2/cmsis_os2.c ****   BaseType_t wait_all;
1101:Middlewares/Third_Party/FreeRTOS/Source/CMSIS_RTOS_V2/cmsis_os2.c ****   BaseType_t exit_clr;
1102:Middlewares/Third_Party/FreeRTOS/Source/CMSIS_RTOS_V2/cmsis_os2.c ****   uint32_t rflags;
1103:Middlewares/Third_Party/FreeRTOS/Source/CMSIS_RTOS_V2/cmsis_os2.c **** 
1104:Middlewares/Third_Party/FreeRTOS/Source/CMSIS_RTOS_V2/cmsis_os2.c ****   if ((hEventGroup == NULL) || ((flags & EVENT_FLAGS_INVALID_BITS) != 0U)) {
 4860              		.loc 1 1104 0
 4861 0000 0028     		cmp	r0, #0
 4862 0002 40D0     		beq	.L528
1098:Middlewares/Third_Party/FreeRTOS/Source/CMSIS_RTOS_V2/cmsis_os2.c ****   EventGroupHandle_t hEventGroup = (EventGroupHandle_t)ef_id;
 4863              		.loc 1 1098 0 discriminator 1
 4864 0004 F0B5     		push	{r4, r5, r6, r7, lr}
 4865              	.LCFI79:
 4866              		.cfi_def_cfa_offset 20
 4867              		.cfi_offset 4, -20
 4868              		.cfi_offset 5, -16
 4869              		.cfi_offset 6, -12
 4870              		.cfi_offset 7, -8
ARM GAS  /tmp/cce47g5y.s 			page 126


 4871              		.cfi_offset 14, -4
 4872 0006 83B0     		sub	sp, sp, #12
 4873              	.LCFI80:
 4874              		.cfi_def_cfa_offset 32
 4875 0008 0446     		mov	r4, r0
 4876              		.loc 1 1104 0 discriminator 1
 4877 000a 11F07F4F 		tst	r1, #-16777216
 4878 000e 03D0     		beq	.L541
1105:Middlewares/Third_Party/FreeRTOS/Source/CMSIS_RTOS_V2/cmsis_os2.c ****     rflags = (uint32_t)osErrorParameter;
 4879              		.loc 1 1105 0
 4880 0010 6FF00300 		mvn	r0, #3
 4881              	.LVL431:
 4882              	.L522:
1106:Middlewares/Third_Party/FreeRTOS/Source/CMSIS_RTOS_V2/cmsis_os2.c ****   }
1107:Middlewares/Third_Party/FreeRTOS/Source/CMSIS_RTOS_V2/cmsis_os2.c ****   else if (IS_IRQ()) {
1108:Middlewares/Third_Party/FreeRTOS/Source/CMSIS_RTOS_V2/cmsis_os2.c ****     rflags = (uint32_t)osErrorISR;
1109:Middlewares/Third_Party/FreeRTOS/Source/CMSIS_RTOS_V2/cmsis_os2.c ****   }
1110:Middlewares/Third_Party/FreeRTOS/Source/CMSIS_RTOS_V2/cmsis_os2.c ****   else {
1111:Middlewares/Third_Party/FreeRTOS/Source/CMSIS_RTOS_V2/cmsis_os2.c ****     if (options & osFlagsWaitAll) {
1112:Middlewares/Third_Party/FreeRTOS/Source/CMSIS_RTOS_V2/cmsis_os2.c ****       wait_all = pdTRUE;
1113:Middlewares/Third_Party/FreeRTOS/Source/CMSIS_RTOS_V2/cmsis_os2.c ****     } else {
1114:Middlewares/Third_Party/FreeRTOS/Source/CMSIS_RTOS_V2/cmsis_os2.c ****       wait_all = pdFAIL;
1115:Middlewares/Third_Party/FreeRTOS/Source/CMSIS_RTOS_V2/cmsis_os2.c ****     }
1116:Middlewares/Third_Party/FreeRTOS/Source/CMSIS_RTOS_V2/cmsis_os2.c **** 
1117:Middlewares/Third_Party/FreeRTOS/Source/CMSIS_RTOS_V2/cmsis_os2.c ****     if (options & osFlagsNoClear) {
1118:Middlewares/Third_Party/FreeRTOS/Source/CMSIS_RTOS_V2/cmsis_os2.c ****       exit_clr = pdFAIL;
1119:Middlewares/Third_Party/FreeRTOS/Source/CMSIS_RTOS_V2/cmsis_os2.c ****     } else {
1120:Middlewares/Third_Party/FreeRTOS/Source/CMSIS_RTOS_V2/cmsis_os2.c ****       exit_clr = pdTRUE;
1121:Middlewares/Third_Party/FreeRTOS/Source/CMSIS_RTOS_V2/cmsis_os2.c ****     }
1122:Middlewares/Third_Party/FreeRTOS/Source/CMSIS_RTOS_V2/cmsis_os2.c **** 
1123:Middlewares/Third_Party/FreeRTOS/Source/CMSIS_RTOS_V2/cmsis_os2.c ****     rflags = xEventGroupWaitBits (hEventGroup, (EventBits_t)flags, exit_clr, wait_all, (TickType_t)
1124:Middlewares/Third_Party/FreeRTOS/Source/CMSIS_RTOS_V2/cmsis_os2.c **** 
1125:Middlewares/Third_Party/FreeRTOS/Source/CMSIS_RTOS_V2/cmsis_os2.c ****     if (options & osFlagsWaitAll) {
1126:Middlewares/Third_Party/FreeRTOS/Source/CMSIS_RTOS_V2/cmsis_os2.c ****       if (flags != rflags) {
1127:Middlewares/Third_Party/FreeRTOS/Source/CMSIS_RTOS_V2/cmsis_os2.c ****         if (timeout > 0U) {
1128:Middlewares/Third_Party/FreeRTOS/Source/CMSIS_RTOS_V2/cmsis_os2.c ****           rflags = (uint32_t)osErrorTimeout;
1129:Middlewares/Third_Party/FreeRTOS/Source/CMSIS_RTOS_V2/cmsis_os2.c ****         } else {
1130:Middlewares/Third_Party/FreeRTOS/Source/CMSIS_RTOS_V2/cmsis_os2.c ****           rflags = (uint32_t)osErrorResource;
1131:Middlewares/Third_Party/FreeRTOS/Source/CMSIS_RTOS_V2/cmsis_os2.c ****         }
1132:Middlewares/Third_Party/FreeRTOS/Source/CMSIS_RTOS_V2/cmsis_os2.c ****       }
1133:Middlewares/Third_Party/FreeRTOS/Source/CMSIS_RTOS_V2/cmsis_os2.c ****     }
1134:Middlewares/Third_Party/FreeRTOS/Source/CMSIS_RTOS_V2/cmsis_os2.c ****     else {
1135:Middlewares/Third_Party/FreeRTOS/Source/CMSIS_RTOS_V2/cmsis_os2.c ****       if ((flags & rflags) == 0U) {
1136:Middlewares/Third_Party/FreeRTOS/Source/CMSIS_RTOS_V2/cmsis_os2.c ****         if (timeout > 0U) {
1137:Middlewares/Third_Party/FreeRTOS/Source/CMSIS_RTOS_V2/cmsis_os2.c ****           rflags = (uint32_t)osErrorTimeout;
1138:Middlewares/Third_Party/FreeRTOS/Source/CMSIS_RTOS_V2/cmsis_os2.c ****         } else {
1139:Middlewares/Third_Party/FreeRTOS/Source/CMSIS_RTOS_V2/cmsis_os2.c ****           rflags = (uint32_t)osErrorResource;
1140:Middlewares/Third_Party/FreeRTOS/Source/CMSIS_RTOS_V2/cmsis_os2.c ****         }
1141:Middlewares/Third_Party/FreeRTOS/Source/CMSIS_RTOS_V2/cmsis_os2.c ****       }
1142:Middlewares/Third_Party/FreeRTOS/Source/CMSIS_RTOS_V2/cmsis_os2.c ****     }
1143:Middlewares/Third_Party/FreeRTOS/Source/CMSIS_RTOS_V2/cmsis_os2.c ****   }
1144:Middlewares/Third_Party/FreeRTOS/Source/CMSIS_RTOS_V2/cmsis_os2.c **** 
1145:Middlewares/Third_Party/FreeRTOS/Source/CMSIS_RTOS_V2/cmsis_os2.c ****   return (rflags);
1146:Middlewares/Third_Party/FreeRTOS/Source/CMSIS_RTOS_V2/cmsis_os2.c **** }
 4883              		.loc 1 1146 0
 4884 0014 03B0     		add	sp, sp, #12
 4885              	.LCFI81:
ARM GAS  /tmp/cce47g5y.s 			page 127


 4886              		.cfi_remember_state
 4887              		.cfi_def_cfa_offset 20
 4888              		@ sp needed
 4889 0016 F0BD     		pop	{r4, r5, r6, r7, pc}
 4890              	.LVL432:
 4891              	.L541:
 4892              	.LCFI82:
 4893              		.cfi_restore_state
 4894              	.LBB548:
 4895              	.LBB549:
 209:Drivers/CMSIS/Include/cmsis_gcc.h ****   return(result);
 4896              		.loc 2 209 0
 4897              		.syntax unified
 4898              	@ 209 "Drivers/CMSIS/Include/cmsis_gcc.h" 1
 4899 0018 EFF30580 		MRS r0, ipsr
 4900              	@ 0 "" 2
 4901              	.LVL433:
 4902              		.thumb
 4903              		.syntax unified
 4904              	.LBE549:
 4905              	.LBE548:
1107:Middlewares/Third_Party/FreeRTOS/Source/CMSIS_RTOS_V2/cmsis_os2.c ****     rflags = (uint32_t)osErrorISR;
 4906              		.loc 1 1107 0
 4907 001c 10B1     		cbz	r0, .L542
1108:Middlewares/Third_Party/FreeRTOS/Source/CMSIS_RTOS_V2/cmsis_os2.c ****   }
 4908              		.loc 1 1108 0
 4909 001e 6FF00500 		mvn	r0, #5
 4910 0022 F7E7     		b	.L522
 4911              	.L542:
 4912              	.LBB550:
 4913              	.LBB551:
 386:Drivers/CMSIS/Include/cmsis_gcc.h ****   return(result);
 4914              		.loc 2 386 0
 4915              		.syntax unified
 4916              	@ 386 "Drivers/CMSIS/Include/cmsis_gcc.h" 1
 4917 0024 EFF31080 		MRS r0, primask
 4918              	@ 0 "" 2
 4919              		.thumb
 4920              		.syntax unified
 4921              	.LBE551:
 4922              	.LBE550:
1107:Middlewares/Third_Party/FreeRTOS/Source/CMSIS_RTOS_V2/cmsis_os2.c ****     rflags = (uint32_t)osErrorISR;
 4923              		.loc 1 1107 0
 4924 0028 10B1     		cbz	r0, .L543
1108:Middlewares/Third_Party/FreeRTOS/Source/CMSIS_RTOS_V2/cmsis_os2.c ****   }
 4925              		.loc 1 1108 0
 4926 002a 6FF00500 		mvn	r0, #5
 4927 002e F1E7     		b	.L522
 4928              	.L543:
1107:Middlewares/Third_Party/FreeRTOS/Source/CMSIS_RTOS_V2/cmsis_os2.c ****     rflags = (uint32_t)osErrorISR;
 4929              		.loc 1 1107 0 discriminator 2
 4930 0030 1948     		ldr	r0, .L545
 4931 0032 0068     		ldr	r0, [r0]
 4932 0034 0228     		cmp	r0, #2
 4933 0036 15D0     		beq	.L544
 4934              	.L524:
1111:Middlewares/Third_Party/FreeRTOS/Source/CMSIS_RTOS_V2/cmsis_os2.c ****       wait_all = pdTRUE;
ARM GAS  /tmp/cce47g5y.s 			page 128


 4935              		.loc 1 1111 0
 4936 0038 12F00106 		ands	r6, r2, #1
 4937 003c 19D0     		beq	.L533
1112:Middlewares/Third_Party/FreeRTOS/Source/CMSIS_RTOS_V2/cmsis_os2.c ****     } else {
 4938              		.loc 1 1112 0
 4939 003e 0127     		movs	r7, #1
 4940              	.L525:
 4941              	.LVL434:
1117:Middlewares/Third_Party/FreeRTOS/Source/CMSIS_RTOS_V2/cmsis_os2.c ****       exit_clr = pdFAIL;
 4942              		.loc 1 1117 0
 4943 0040 12F0020F 		tst	r2, #2
 4944 0044 17D0     		beq	.L534
1118:Middlewares/Third_Party/FreeRTOS/Source/CMSIS_RTOS_V2/cmsis_os2.c ****     } else {
 4945              		.loc 1 1118 0
 4946 0046 0022     		movs	r2, #0
 4947              	.LVL435:
 4948              	.L526:
 4949 0048 2046     		mov	r0, r4
 4950 004a 1D46     		mov	r5, r3
 4951 004c 0C46     		mov	r4, r1
 4952              	.LVL436:
1123:Middlewares/Third_Party/FreeRTOS/Source/CMSIS_RTOS_V2/cmsis_os2.c **** 
 4953              		.loc 1 1123 0
 4954 004e 0093     		str	r3, [sp]
 4955 0050 3B46     		mov	r3, r7
 4956              	.LVL437:
 4957 0052 FFF7FEFF 		bl	xEventGroupWaitBits
 4958              	.LVL438:
1125:Middlewares/Third_Party/FreeRTOS/Source/CMSIS_RTOS_V2/cmsis_os2.c ****       if (flags != rflags) {
 4959              		.loc 1 1125 0
 4960 0056 86B1     		cbz	r6, .L527
1126:Middlewares/Third_Party/FreeRTOS/Source/CMSIS_RTOS_V2/cmsis_os2.c ****         if (timeout > 0U) {
 4961              		.loc 1 1126 0
 4962 0058 8442     		cmp	r4, r0
 4963 005a DBD0     		beq	.L522
1127:Middlewares/Third_Party/FreeRTOS/Source/CMSIS_RTOS_V2/cmsis_os2.c ****           rflags = (uint32_t)osErrorTimeout;
 4964              		.loc 1 1127 0
 4965 005c B5B1     		cbz	r5, .L535
1128:Middlewares/Third_Party/FreeRTOS/Source/CMSIS_RTOS_V2/cmsis_os2.c ****         } else {
 4966              		.loc 1 1128 0
 4967 005e 6FF00100 		mvn	r0, #1
 4968              	.LVL439:
 4969 0062 D7E7     		b	.L522
 4970              	.LVL440:
 4971              	.L544:
 4972              	.LBB552:
 4973              	.LBB553:
 4974              		.loc 2 465 0
 4975              		.syntax unified
 4976              	@ 465 "Drivers/CMSIS/Include/cmsis_gcc.h" 1
 4977 0064 EFF31180 		MRS r0, basepri
 4978              	@ 0 "" 2
 4979              		.thumb
 4980              		.syntax unified
 4981              	.LBE553:
 4982              	.LBE552:
1107:Middlewares/Third_Party/FreeRTOS/Source/CMSIS_RTOS_V2/cmsis_os2.c ****     rflags = (uint32_t)osErrorISR;
ARM GAS  /tmp/cce47g5y.s 			page 129


 4983              		.loc 1 1107 0
 4984 0068 0028     		cmp	r0, #0
 4985 006a E5D0     		beq	.L524
1108:Middlewares/Third_Party/FreeRTOS/Source/CMSIS_RTOS_V2/cmsis_os2.c ****   }
 4986              		.loc 1 1108 0
 4987 006c 6FF00500 		mvn	r0, #5
 4988 0070 D0E7     		b	.L522
 4989              	.L533:
1114:Middlewares/Third_Party/FreeRTOS/Source/CMSIS_RTOS_V2/cmsis_os2.c ****     }
 4990              		.loc 1 1114 0
 4991 0072 0027     		movs	r7, #0
 4992 0074 E4E7     		b	.L525
 4993              	.LVL441:
 4994              	.L534:
1120:Middlewares/Third_Party/FreeRTOS/Source/CMSIS_RTOS_V2/cmsis_os2.c ****     }
 4995              		.loc 1 1120 0
 4996 0076 0122     		movs	r2, #1
 4997              	.LVL442:
 4998 0078 E6E7     		b	.L526
 4999              	.LVL443:
 5000              	.L527:
1135:Middlewares/Third_Party/FreeRTOS/Source/CMSIS_RTOS_V2/cmsis_os2.c ****         if (timeout > 0U) {
 5001              		.loc 1 1135 0
 5002 007a 0442     		tst	r4, r0
 5003 007c CAD1     		bne	.L522
1136:Middlewares/Third_Party/FreeRTOS/Source/CMSIS_RTOS_V2/cmsis_os2.c ****           rflags = (uint32_t)osErrorTimeout;
 5004              		.loc 1 1136 0
 5005 007e 45B1     		cbz	r5, .L536
1137:Middlewares/Third_Party/FreeRTOS/Source/CMSIS_RTOS_V2/cmsis_os2.c ****         } else {
 5006              		.loc 1 1137 0
 5007 0080 6FF00100 		mvn	r0, #1
 5008              	.LVL444:
 5009 0084 C6E7     		b	.L522
 5010              	.LVL445:
 5011              	.L528:
 5012              	.LCFI83:
 5013              		.cfi_def_cfa_offset 0
 5014              		.cfi_restore 4
 5015              		.cfi_restore 5
 5016              		.cfi_restore 6
 5017              		.cfi_restore 7
 5018              		.cfi_restore 14
1105:Middlewares/Third_Party/FreeRTOS/Source/CMSIS_RTOS_V2/cmsis_os2.c ****   }
 5019              		.loc 1 1105 0
 5020 0086 6FF00300 		mvn	r0, #3
 5021              	.LVL446:
 5022 008a 7047     		bx	lr
 5023              	.LVL447:
 5024              	.L535:
 5025              	.LCFI84:
 5026              		.cfi_def_cfa_offset 32
 5027              		.cfi_offset 4, -20
 5028              		.cfi_offset 5, -16
 5029              		.cfi_offset 6, -12
 5030              		.cfi_offset 7, -8
 5031              		.cfi_offset 14, -4
1130:Middlewares/Third_Party/FreeRTOS/Source/CMSIS_RTOS_V2/cmsis_os2.c ****         }
ARM GAS  /tmp/cce47g5y.s 			page 130


 5032              		.loc 1 1130 0
 5033 008c 6FF00200 		mvn	r0, #2
 5034              	.LVL448:
 5035 0090 C0E7     		b	.L522
 5036              	.LVL449:
 5037              	.L536:
1139:Middlewares/Third_Party/FreeRTOS/Source/CMSIS_RTOS_V2/cmsis_os2.c ****         }
 5038              		.loc 1 1139 0
 5039 0092 6FF00200 		mvn	r0, #2
 5040              	.LVL450:
1145:Middlewares/Third_Party/FreeRTOS/Source/CMSIS_RTOS_V2/cmsis_os2.c **** }
 5041              		.loc 1 1145 0
 5042 0096 BDE7     		b	.L522
 5043              	.L546:
 5044              		.align	2
 5045              	.L545:
 5046 0098 00000000 		.word	.LANCHOR0
 5047              		.cfi_endproc
 5048              	.LFE91:
 5050              		.section	.text.osEventFlagsDelete,"ax",%progbits
 5051              		.align	1
 5052              		.global	osEventFlagsDelete
 5053              		.syntax unified
 5054              		.thumb
 5055              		.thumb_func
 5056              		.fpu softvfp
 5058              	osEventFlagsDelete:
 5059              	.LFB92:
1147:Middlewares/Third_Party/FreeRTOS/Source/CMSIS_RTOS_V2/cmsis_os2.c **** 
1148:Middlewares/Third_Party/FreeRTOS/Source/CMSIS_RTOS_V2/cmsis_os2.c **** osStatus_t osEventFlagsDelete (osEventFlagsId_t ef_id) {
 5060              		.loc 1 1148 0
 5061              		.cfi_startproc
 5062              		@ args = 0, pretend = 0, frame = 0
 5063              		@ frame_needed = 0, uses_anonymous_args = 0
 5064              	.LVL451:
 5065 0000 08B5     		push	{r3, lr}
 5066              	.LCFI85:
 5067              		.cfi_def_cfa_offset 8
 5068              		.cfi_offset 3, -8
 5069              		.cfi_offset 14, -4
 5070              	.LVL452:
 5071              	.LBB554:
 5072              	.LBB555:
 209:Drivers/CMSIS/Include/cmsis_gcc.h ****   return(result);
 5073              		.loc 2 209 0
 5074              		.syntax unified
 5075              	@ 209 "Drivers/CMSIS/Include/cmsis_gcc.h" 1
 5076 0002 EFF30583 		MRS r3, ipsr
 5077              	@ 0 "" 2
 5078              		.thumb
 5079              		.syntax unified
 5080              	.LBE555:
 5081              	.LBE554:
1149:Middlewares/Third_Party/FreeRTOS/Source/CMSIS_RTOS_V2/cmsis_os2.c ****   EventGroupHandle_t hEventGroup = (EventGroupHandle_t)ef_id;
1150:Middlewares/Third_Party/FreeRTOS/Source/CMSIS_RTOS_V2/cmsis_os2.c ****   osStatus_t stat;
1151:Middlewares/Third_Party/FreeRTOS/Source/CMSIS_RTOS_V2/cmsis_os2.c **** 
1152:Middlewares/Third_Party/FreeRTOS/Source/CMSIS_RTOS_V2/cmsis_os2.c **** #ifndef USE_FreeRTOS_HEAP_1
ARM GAS  /tmp/cce47g5y.s 			page 131


1153:Middlewares/Third_Party/FreeRTOS/Source/CMSIS_RTOS_V2/cmsis_os2.c ****   if (IS_IRQ()) {
 5082              		.loc 1 1153 0
 5083 0006 93B9     		cbnz	r3, .L550
 5084              	.LBB556:
 5085              	.LBB557:
 386:Drivers/CMSIS/Include/cmsis_gcc.h ****   return(result);
 5086              		.loc 2 386 0
 5087              		.syntax unified
 5088              	@ 386 "Drivers/CMSIS/Include/cmsis_gcc.h" 1
 5089 0008 EFF31083 		MRS r3, primask
 5090              	@ 0 "" 2
 5091              		.thumb
 5092              		.syntax unified
 5093              	.LBE557:
 5094              	.LBE556:
 5095              		.loc 1 1153 0
 5096 000c 93B9     		cbnz	r3, .L551
 5097              		.loc 1 1153 0 is_stmt 0 discriminator 2
 5098 000e 0C4B     		ldr	r3, .L556
 5099 0010 1B68     		ldr	r3, [r3]
 5100 0012 022B     		cmp	r3, #2
 5101 0014 04D0     		beq	.L555
 5102              	.L549:
1154:Middlewares/Third_Party/FreeRTOS/Source/CMSIS_RTOS_V2/cmsis_os2.c ****     stat = osErrorISR;
1155:Middlewares/Third_Party/FreeRTOS/Source/CMSIS_RTOS_V2/cmsis_os2.c ****   }
1156:Middlewares/Third_Party/FreeRTOS/Source/CMSIS_RTOS_V2/cmsis_os2.c ****   else if (hEventGroup == NULL) {
 5103              		.loc 1 1156 0 is_stmt 1
 5104 0016 80B1     		cbz	r0, .L553
 5105              	.LVL453:
1157:Middlewares/Third_Party/FreeRTOS/Source/CMSIS_RTOS_V2/cmsis_os2.c ****     stat = osErrorParameter;
1158:Middlewares/Third_Party/FreeRTOS/Source/CMSIS_RTOS_V2/cmsis_os2.c ****   }
1159:Middlewares/Third_Party/FreeRTOS/Source/CMSIS_RTOS_V2/cmsis_os2.c ****   else {
1160:Middlewares/Third_Party/FreeRTOS/Source/CMSIS_RTOS_V2/cmsis_os2.c ****     stat = osOK;
1161:Middlewares/Third_Party/FreeRTOS/Source/CMSIS_RTOS_V2/cmsis_os2.c ****     vEventGroupDelete (hEventGroup);
 5106              		.loc 1 1161 0
 5107 0018 FFF7FEFF 		bl	vEventGroupDelete
 5108              	.LVL454:
1160:Middlewares/Third_Party/FreeRTOS/Source/CMSIS_RTOS_V2/cmsis_os2.c ****     vEventGroupDelete (hEventGroup);
 5109              		.loc 1 1160 0
 5110 001c 0020     		movs	r0, #0
 5111 001e 08BD     		pop	{r3, pc}
 5112              	.LVL455:
 5113              	.L555:
 5114              	.LBB558:
 5115              	.LBB559:
 5116              		.loc 2 465 0
 5117              		.syntax unified
 5118              	@ 465 "Drivers/CMSIS/Include/cmsis_gcc.h" 1
 5119 0020 EFF31183 		MRS r3, basepri
 5120              	@ 0 "" 2
 5121              		.thumb
 5122              		.syntax unified
 5123              	.LBE559:
 5124              	.LBE558:
1153:Middlewares/Third_Party/FreeRTOS/Source/CMSIS_RTOS_V2/cmsis_os2.c ****     stat = osErrorISR;
 5125              		.loc 1 1153 0
 5126 0024 002B     		cmp	r3, #0
ARM GAS  /tmp/cce47g5y.s 			page 132


 5127 0026 F6D0     		beq	.L549
1154:Middlewares/Third_Party/FreeRTOS/Source/CMSIS_RTOS_V2/cmsis_os2.c ****   }
 5128              		.loc 1 1154 0
 5129 0028 6FF00500 		mvn	r0, #5
 5130              	.LVL456:
 5131 002c 08BD     		pop	{r3, pc}
 5132              	.LVL457:
 5133              	.L550:
 5134 002e 6FF00500 		mvn	r0, #5
 5135              	.LVL458:
 5136 0032 08BD     		pop	{r3, pc}
 5137              	.LVL459:
 5138              	.L551:
 5139 0034 6FF00500 		mvn	r0, #5
 5140              	.LVL460:
 5141 0038 08BD     		pop	{r3, pc}
 5142              	.LVL461:
 5143              	.L553:
1157:Middlewares/Third_Party/FreeRTOS/Source/CMSIS_RTOS_V2/cmsis_os2.c ****   }
 5144              		.loc 1 1157 0
 5145 003a 6FF00300 		mvn	r0, #3
 5146              	.LVL462:
1162:Middlewares/Third_Party/FreeRTOS/Source/CMSIS_RTOS_V2/cmsis_os2.c ****   }
1163:Middlewares/Third_Party/FreeRTOS/Source/CMSIS_RTOS_V2/cmsis_os2.c **** #else
1164:Middlewares/Third_Party/FreeRTOS/Source/CMSIS_RTOS_V2/cmsis_os2.c ****   stat = osError;
1165:Middlewares/Third_Party/FreeRTOS/Source/CMSIS_RTOS_V2/cmsis_os2.c **** #endif
1166:Middlewares/Third_Party/FreeRTOS/Source/CMSIS_RTOS_V2/cmsis_os2.c **** 
1167:Middlewares/Third_Party/FreeRTOS/Source/CMSIS_RTOS_V2/cmsis_os2.c ****   return (stat);
1168:Middlewares/Third_Party/FreeRTOS/Source/CMSIS_RTOS_V2/cmsis_os2.c **** }
 5147              		.loc 1 1168 0
 5148 003e 08BD     		pop	{r3, pc}
 5149              	.L557:
 5150              		.align	2
 5151              	.L556:
 5152 0040 00000000 		.word	.LANCHOR0
 5153              		.cfi_endproc
 5154              	.LFE92:
 5156              		.section	.text.osMutexNew,"ax",%progbits
 5157              		.align	1
 5158              		.global	osMutexNew
 5159              		.syntax unified
 5160              		.thumb
 5161              		.thumb_func
 5162              		.fpu softvfp
 5164              	osMutexNew:
 5165              	.LFB93:
1169:Middlewares/Third_Party/FreeRTOS/Source/CMSIS_RTOS_V2/cmsis_os2.c **** 
1170:Middlewares/Third_Party/FreeRTOS/Source/CMSIS_RTOS_V2/cmsis_os2.c **** /*---------------------------------------------------------------------------*/
1171:Middlewares/Third_Party/FreeRTOS/Source/CMSIS_RTOS_V2/cmsis_os2.c **** 
1172:Middlewares/Third_Party/FreeRTOS/Source/CMSIS_RTOS_V2/cmsis_os2.c **** osMutexId_t osMutexNew (const osMutexAttr_t *attr) {
 5166              		.loc 1 1172 0
 5167              		.cfi_startproc
 5168              		@ args = 0, pretend = 0, frame = 0
 5169              		@ frame_needed = 0, uses_anonymous_args = 0
 5170              	.LVL463:
 5171 0000 70B5     		push	{r4, r5, r6, lr}
 5172              	.LCFI86:
ARM GAS  /tmp/cce47g5y.s 			page 133


 5173              		.cfi_def_cfa_offset 16
 5174              		.cfi_offset 4, -16
 5175              		.cfi_offset 5, -12
 5176              		.cfi_offset 6, -8
 5177              		.cfi_offset 14, -4
 5178              	.LVL464:
 5179              	.LBB560:
 5180              	.LBB561:
 209:Drivers/CMSIS/Include/cmsis_gcc.h ****   return(result);
 5181              		.loc 2 209 0
 5182              		.syntax unified
 5183              	@ 209 "Drivers/CMSIS/Include/cmsis_gcc.h" 1
 5184 0002 EFF30583 		MRS r3, ipsr
 5185              	@ 0 "" 2
 5186              		.thumb
 5187              		.syntax unified
 5188              	.LBE561:
 5189              	.LBE560:
1173:Middlewares/Third_Party/FreeRTOS/Source/CMSIS_RTOS_V2/cmsis_os2.c ****   SemaphoreHandle_t hMutex;
1174:Middlewares/Third_Party/FreeRTOS/Source/CMSIS_RTOS_V2/cmsis_os2.c ****   uint32_t type;
1175:Middlewares/Third_Party/FreeRTOS/Source/CMSIS_RTOS_V2/cmsis_os2.c ****   uint32_t rmtx;
1176:Middlewares/Third_Party/FreeRTOS/Source/CMSIS_RTOS_V2/cmsis_os2.c ****   int32_t  mem;
1177:Middlewares/Third_Party/FreeRTOS/Source/CMSIS_RTOS_V2/cmsis_os2.c ****   #if (configQUEUE_REGISTRY_SIZE > 0)
1178:Middlewares/Third_Party/FreeRTOS/Source/CMSIS_RTOS_V2/cmsis_os2.c ****   const char *name;
1179:Middlewares/Third_Party/FreeRTOS/Source/CMSIS_RTOS_V2/cmsis_os2.c ****   #endif
1180:Middlewares/Third_Party/FreeRTOS/Source/CMSIS_RTOS_V2/cmsis_os2.c **** 
1181:Middlewares/Third_Party/FreeRTOS/Source/CMSIS_RTOS_V2/cmsis_os2.c ****   hMutex = NULL;
1182:Middlewares/Third_Party/FreeRTOS/Source/CMSIS_RTOS_V2/cmsis_os2.c **** 
1183:Middlewares/Third_Party/FreeRTOS/Source/CMSIS_RTOS_V2/cmsis_os2.c ****   if (!IS_IRQ()) {
 5190              		.loc 1 1183 0
 5191 0006 002B     		cmp	r3, #0
 5192 0008 56D1     		bne	.L571
 5193              	.LBB562:
 5194              	.LBB563:
 386:Drivers/CMSIS/Include/cmsis_gcc.h ****   return(result);
 5195              		.loc 2 386 0
 5196              		.syntax unified
 5197              	@ 386 "Drivers/CMSIS/Include/cmsis_gcc.h" 1
 5198 000a EFF31083 		MRS r3, primask
 5199              	@ 0 "" 2
 5200              		.thumb
 5201              		.syntax unified
 5202 000e 1E46     		mov	r6, r3
 5203              	.LBE563:
 5204              	.LBE562:
 5205              		.loc 1 1183 0
 5206 0010 002B     		cmp	r3, #0
 5207 0012 53D1     		bne	.L572
 5208              		.loc 1 1183 0 is_stmt 0 discriminator 2
 5209 0014 2B4A     		ldr	r2, .L586
 5210 0016 1268     		ldr	r2, [r2]
 5211 0018 022A     		cmp	r2, #2
 5212 001a 1BD0     		beq	.L583
 5213              	.L560:
1184:Middlewares/Third_Party/FreeRTOS/Source/CMSIS_RTOS_V2/cmsis_os2.c ****     if (attr != NULL) {
 5214              		.loc 1 1184 0 is_stmt 1
 5215 001c 00B1     		cbz	r0, .L561
ARM GAS  /tmp/cce47g5y.s 			page 134


1185:Middlewares/Third_Party/FreeRTOS/Source/CMSIS_RTOS_V2/cmsis_os2.c ****       type = attr->attr_bits;
 5216              		.loc 1 1185 0
 5217 001e 4368     		ldr	r3, [r0, #4]
 5218              	.LVL465:
 5219              	.L561:
1186:Middlewares/Third_Party/FreeRTOS/Source/CMSIS_RTOS_V2/cmsis_os2.c ****     } else {
1187:Middlewares/Third_Party/FreeRTOS/Source/CMSIS_RTOS_V2/cmsis_os2.c ****       type = 0U;
1188:Middlewares/Third_Party/FreeRTOS/Source/CMSIS_RTOS_V2/cmsis_os2.c ****     }
1189:Middlewares/Third_Party/FreeRTOS/Source/CMSIS_RTOS_V2/cmsis_os2.c **** 
1190:Middlewares/Third_Party/FreeRTOS/Source/CMSIS_RTOS_V2/cmsis_os2.c ****     if ((type & osMutexRecursive) == osMutexRecursive) {
 5220              		.loc 1 1190 0
 5221 0020 13F0010F 		tst	r3, #1
 5222 0024 00D0     		beq	.L562
1191:Middlewares/Third_Party/FreeRTOS/Source/CMSIS_RTOS_V2/cmsis_os2.c ****       rmtx = 1U;
 5223              		.loc 1 1191 0
 5224 0026 0126     		movs	r6, #1
 5225              	.L562:
 5226              	.LVL466:
1192:Middlewares/Third_Party/FreeRTOS/Source/CMSIS_RTOS_V2/cmsis_os2.c ****     } else {
1193:Middlewares/Third_Party/FreeRTOS/Source/CMSIS_RTOS_V2/cmsis_os2.c ****       rmtx = 0U;
1194:Middlewares/Third_Party/FreeRTOS/Source/CMSIS_RTOS_V2/cmsis_os2.c ****     }
1195:Middlewares/Third_Party/FreeRTOS/Source/CMSIS_RTOS_V2/cmsis_os2.c **** 
1196:Middlewares/Third_Party/FreeRTOS/Source/CMSIS_RTOS_V2/cmsis_os2.c ****     if ((type & osMutexRobust) != osMutexRobust) {
 5227              		.loc 1 1196 0
 5228 0028 13F0080F 		tst	r3, #8
 5229 002c 48D1     		bne	.L575
 5230              	.LVL467:
1197:Middlewares/Third_Party/FreeRTOS/Source/CMSIS_RTOS_V2/cmsis_os2.c ****       mem = -1;
1198:Middlewares/Third_Party/FreeRTOS/Source/CMSIS_RTOS_V2/cmsis_os2.c **** 
1199:Middlewares/Third_Party/FreeRTOS/Source/CMSIS_RTOS_V2/cmsis_os2.c ****       if (attr != NULL) {
 5231              		.loc 1 1199 0
 5232 002e E0B1     		cbz	r0, .L576
1200:Middlewares/Third_Party/FreeRTOS/Source/CMSIS_RTOS_V2/cmsis_os2.c ****         if ((attr->cb_mem != NULL) && (attr->cb_size >= sizeof(StaticSemaphore_t))) {
 5233              		.loc 1 1200 0
 5234 0030 8368     		ldr	r3, [r0, #8]
 5235              	.LVL468:
 5236 0032 13B1     		cbz	r3, .L564
 5237              		.loc 1 1200 0 is_stmt 0 discriminator 1
 5238 0034 C268     		ldr	r2, [r0, #12]
 5239 0036 4F2A     		cmp	r2, #79
 5240 0038 19D8     		bhi	.L577
 5241              	.L564:
1201:Middlewares/Third_Party/FreeRTOS/Source/CMSIS_RTOS_V2/cmsis_os2.c ****           mem = 1;
1202:Middlewares/Third_Party/FreeRTOS/Source/CMSIS_RTOS_V2/cmsis_os2.c ****         }
1203:Middlewares/Third_Party/FreeRTOS/Source/CMSIS_RTOS_V2/cmsis_os2.c ****         else {
1204:Middlewares/Third_Party/FreeRTOS/Source/CMSIS_RTOS_V2/cmsis_os2.c ****           if ((attr->cb_mem == NULL) && (attr->cb_size == 0U)) {
 5242              		.loc 1 1204 0 is_stmt 1
 5243 003a 8BB1     		cbz	r3, .L584
1197:Middlewares/Third_Party/FreeRTOS/Source/CMSIS_RTOS_V2/cmsis_os2.c **** 
 5244              		.loc 1 1197 0
 5245 003c 4FF0FF33 		mov	r3, #-1
 5246              	.L563:
 5247 0040 0446     		mov	r4, r0
 5248              	.LVL469:
1205:Middlewares/Third_Party/FreeRTOS/Source/CMSIS_RTOS_V2/cmsis_os2.c ****             mem = 0;
1206:Middlewares/Third_Party/FreeRTOS/Source/CMSIS_RTOS_V2/cmsis_os2.c ****           }
1207:Middlewares/Third_Party/FreeRTOS/Source/CMSIS_RTOS_V2/cmsis_os2.c ****         }
ARM GAS  /tmp/cce47g5y.s 			page 135


1208:Middlewares/Third_Party/FreeRTOS/Source/CMSIS_RTOS_V2/cmsis_os2.c ****       }
1209:Middlewares/Third_Party/FreeRTOS/Source/CMSIS_RTOS_V2/cmsis_os2.c ****       else {
1210:Middlewares/Third_Party/FreeRTOS/Source/CMSIS_RTOS_V2/cmsis_os2.c ****         mem = 0;
1211:Middlewares/Third_Party/FreeRTOS/Source/CMSIS_RTOS_V2/cmsis_os2.c ****       }
1212:Middlewares/Third_Party/FreeRTOS/Source/CMSIS_RTOS_V2/cmsis_os2.c **** 
1213:Middlewares/Third_Party/FreeRTOS/Source/CMSIS_RTOS_V2/cmsis_os2.c ****       if (mem == 1) {
 5249              		.loc 1 1213 0
 5250 0042 012B     		cmp	r3, #1
 5251 0044 17D0     		beq	.L585
1214:Middlewares/Third_Party/FreeRTOS/Source/CMSIS_RTOS_V2/cmsis_os2.c ****         if (rmtx != 0U) {
1215:Middlewares/Third_Party/FreeRTOS/Source/CMSIS_RTOS_V2/cmsis_os2.c ****           hMutex = xSemaphoreCreateRecursiveMutexStatic (attr->cb_mem);
1216:Middlewares/Third_Party/FreeRTOS/Source/CMSIS_RTOS_V2/cmsis_os2.c ****         }
1217:Middlewares/Third_Party/FreeRTOS/Source/CMSIS_RTOS_V2/cmsis_os2.c ****         else {
1218:Middlewares/Third_Party/FreeRTOS/Source/CMSIS_RTOS_V2/cmsis_os2.c ****           hMutex = xSemaphoreCreateMutexStatic (attr->cb_mem);
1219:Middlewares/Third_Party/FreeRTOS/Source/CMSIS_RTOS_V2/cmsis_os2.c ****         }
1220:Middlewares/Third_Party/FreeRTOS/Source/CMSIS_RTOS_V2/cmsis_os2.c ****       }
1221:Middlewares/Third_Party/FreeRTOS/Source/CMSIS_RTOS_V2/cmsis_os2.c ****       else {
1222:Middlewares/Third_Party/FreeRTOS/Source/CMSIS_RTOS_V2/cmsis_os2.c ****         if (mem == 0) {
 5252              		.loc 1 1222 0
 5253 0046 43BB     		cbnz	r3, .L580
1223:Middlewares/Third_Party/FreeRTOS/Source/CMSIS_RTOS_V2/cmsis_os2.c ****           if (rmtx != 0U) {
 5254              		.loc 1 1223 0
 5255 0048 16B3     		cbz	r6, .L568
1224:Middlewares/Third_Party/FreeRTOS/Source/CMSIS_RTOS_V2/cmsis_os2.c ****             hMutex = xSemaphoreCreateRecursiveMutex ();
 5256              		.loc 1 1224 0
 5257 004a 0420     		movs	r0, #4
 5258              	.LVL470:
 5259 004c FFF7FEFF 		bl	xQueueCreateMutex
 5260              	.LVL471:
 5261 0050 0546     		mov	r5, r0
 5262              	.LVL472:
 5263 0052 23E0     		b	.L567
 5264              	.LVL473:
 5265              	.L583:
 5266              	.LBB564:
 5267              	.LBB565:
 5268              		.loc 2 465 0
 5269              		.syntax unified
 5270              	@ 465 "Drivers/CMSIS/Include/cmsis_gcc.h" 1
 5271 0054 EFF31182 		MRS r2, basepri
 5272              	@ 0 "" 2
 5273              		.thumb
 5274              		.syntax unified
 5275              	.LBE565:
 5276              	.LBE564:
1183:Middlewares/Third_Party/FreeRTOS/Source/CMSIS_RTOS_V2/cmsis_os2.c ****     if (attr != NULL) {
 5277              		.loc 1 1183 0
 5278 0058 002A     		cmp	r2, #0
 5279 005a DFD0     		beq	.L560
1181:Middlewares/Third_Party/FreeRTOS/Source/CMSIS_RTOS_V2/cmsis_os2.c **** 
 5280              		.loc 1 1181 0
 5281 005c 0025     		movs	r5, #0
 5282 005e 27E0     		b	.L558
 5283              	.LVL474:
 5284              	.L584:
1204:Middlewares/Third_Party/FreeRTOS/Source/CMSIS_RTOS_V2/cmsis_os2.c ****             mem = 0;
 5285              		.loc 1 1204 0 discriminator 1
ARM GAS  /tmp/cce47g5y.s 			page 136


 5286 0060 C368     		ldr	r3, [r0, #12]
 5287 0062 33B1     		cbz	r3, .L579
1197:Middlewares/Third_Party/FreeRTOS/Source/CMSIS_RTOS_V2/cmsis_os2.c **** 
 5288              		.loc 1 1197 0
 5289 0064 4FF0FF33 		mov	r3, #-1
 5290 0068 EAE7     		b	.L563
 5291              	.LVL475:
 5292              	.L576:
1210:Middlewares/Third_Party/FreeRTOS/Source/CMSIS_RTOS_V2/cmsis_os2.c ****       }
 5293              		.loc 1 1210 0
 5294 006a 0023     		movs	r3, #0
 5295              	.LVL476:
 5296 006c E8E7     		b	.L563
 5297              	.L577:
1201:Middlewares/Third_Party/FreeRTOS/Source/CMSIS_RTOS_V2/cmsis_os2.c ****         }
 5298              		.loc 1 1201 0
 5299 006e 0123     		movs	r3, #1
 5300 0070 E6E7     		b	.L563
 5301              	.L579:
1205:Middlewares/Third_Party/FreeRTOS/Source/CMSIS_RTOS_V2/cmsis_os2.c ****           }
 5302              		.loc 1 1205 0
 5303 0072 0023     		movs	r3, #0
 5304 0074 E4E7     		b	.L563
 5305              	.LVL477:
 5306              	.L585:
1214:Middlewares/Third_Party/FreeRTOS/Source/CMSIS_RTOS_V2/cmsis_os2.c ****           hMutex = xSemaphoreCreateRecursiveMutexStatic (attr->cb_mem);
 5307              		.loc 1 1214 0
 5308 0076 2EB1     		cbz	r6, .L566
1215:Middlewares/Third_Party/FreeRTOS/Source/CMSIS_RTOS_V2/cmsis_os2.c ****         }
 5309              		.loc 1 1215 0
 5310 0078 8168     		ldr	r1, [r0, #8]
 5311 007a 0420     		movs	r0, #4
 5312              	.LVL478:
 5313 007c FFF7FEFF 		bl	xQueueCreateMutexStatic
 5314              	.LVL479:
 5315 0080 0546     		mov	r5, r0
 5316              	.LVL480:
 5317 0082 0BE0     		b	.L567
 5318              	.LVL481:
 5319              	.L566:
1218:Middlewares/Third_Party/FreeRTOS/Source/CMSIS_RTOS_V2/cmsis_os2.c ****         }
 5320              		.loc 1 1218 0
 5321 0084 8168     		ldr	r1, [r0, #8]
 5322 0086 0120     		movs	r0, #1
 5323              	.LVL482:
 5324 0088 FFF7FEFF 		bl	xQueueCreateMutexStatic
 5325              	.LVL483:
 5326 008c 0546     		mov	r5, r0
 5327              	.LVL484:
 5328 008e 05E0     		b	.L567
 5329              	.LVL485:
 5330              	.L568:
1225:Middlewares/Third_Party/FreeRTOS/Source/CMSIS_RTOS_V2/cmsis_os2.c ****           } else {
1226:Middlewares/Third_Party/FreeRTOS/Source/CMSIS_RTOS_V2/cmsis_os2.c ****             hMutex = xSemaphoreCreateMutex ();
 5331              		.loc 1 1226 0
 5332 0090 0120     		movs	r0, #1
 5333              	.LVL486:
ARM GAS  /tmp/cce47g5y.s 			page 137


 5334 0092 FFF7FEFF 		bl	xQueueCreateMutex
 5335              	.LVL487:
 5336 0096 0546     		mov	r5, r0
 5337              	.LVL488:
 5338 0098 00E0     		b	.L567
 5339              	.LVL489:
 5340              	.L580:
1181:Middlewares/Third_Party/FreeRTOS/Source/CMSIS_RTOS_V2/cmsis_os2.c **** 
 5341              		.loc 1 1181 0
 5342 009a 0025     		movs	r5, #0
 5343              	.LVL490:
 5344              	.L567:
1227:Middlewares/Third_Party/FreeRTOS/Source/CMSIS_RTOS_V2/cmsis_os2.c ****           }
1228:Middlewares/Third_Party/FreeRTOS/Source/CMSIS_RTOS_V2/cmsis_os2.c ****         }
1229:Middlewares/Third_Party/FreeRTOS/Source/CMSIS_RTOS_V2/cmsis_os2.c ****       }
1230:Middlewares/Third_Party/FreeRTOS/Source/CMSIS_RTOS_V2/cmsis_os2.c **** 
1231:Middlewares/Third_Party/FreeRTOS/Source/CMSIS_RTOS_V2/cmsis_os2.c ****       #if (configQUEUE_REGISTRY_SIZE > 0)
1232:Middlewares/Third_Party/FreeRTOS/Source/CMSIS_RTOS_V2/cmsis_os2.c ****       if (hMutex != NULL) {
 5345              		.loc 1 1232 0
 5346 009c 25B1     		cbz	r5, .L569
1233:Middlewares/Third_Party/FreeRTOS/Source/CMSIS_RTOS_V2/cmsis_os2.c ****         if (attr != NULL) {
 5347              		.loc 1 1233 0
 5348 009e 4CB1     		cbz	r4, .L581
1234:Middlewares/Third_Party/FreeRTOS/Source/CMSIS_RTOS_V2/cmsis_os2.c ****           name = attr->name;
 5349              		.loc 1 1234 0
 5350 00a0 2168     		ldr	r1, [r4]
 5351              	.LVL491:
 5352              	.L570:
1235:Middlewares/Third_Party/FreeRTOS/Source/CMSIS_RTOS_V2/cmsis_os2.c ****         } else {
1236:Middlewares/Third_Party/FreeRTOS/Source/CMSIS_RTOS_V2/cmsis_os2.c ****           name = NULL;
1237:Middlewares/Third_Party/FreeRTOS/Source/CMSIS_RTOS_V2/cmsis_os2.c ****         }
1238:Middlewares/Third_Party/FreeRTOS/Source/CMSIS_RTOS_V2/cmsis_os2.c ****         vQueueAddToRegistry (hMutex, name);
 5353              		.loc 1 1238 0
 5354 00a2 2846     		mov	r0, r5
 5355 00a4 FFF7FEFF 		bl	vQueueAddToRegistry
 5356              	.LVL492:
 5357              	.L569:
1239:Middlewares/Third_Party/FreeRTOS/Source/CMSIS_RTOS_V2/cmsis_os2.c ****       }
1240:Middlewares/Third_Party/FreeRTOS/Source/CMSIS_RTOS_V2/cmsis_os2.c ****       #endif
1241:Middlewares/Third_Party/FreeRTOS/Source/CMSIS_RTOS_V2/cmsis_os2.c **** 
1242:Middlewares/Third_Party/FreeRTOS/Source/CMSIS_RTOS_V2/cmsis_os2.c ****       if ((hMutex != NULL) && (rmtx != 0U)) {
 5358              		.loc 1 1242 0
 5359 00a8 15B1     		cbz	r5, .L558
 5360              		.loc 1 1242 0 is_stmt 0 discriminator 1
 5361 00aa 0EB1     		cbz	r6, .L558
1243:Middlewares/Third_Party/FreeRTOS/Source/CMSIS_RTOS_V2/cmsis_os2.c ****         hMutex = (SemaphoreHandle_t)((uint32_t)hMutex | 1U);
 5362              		.loc 1 1243 0 is_stmt 1
 5363 00ac 45F00105 		orr	r5, r5, #1
 5364              	.LVL493:
 5365              	.L558:
1244:Middlewares/Third_Party/FreeRTOS/Source/CMSIS_RTOS_V2/cmsis_os2.c ****       }
1245:Middlewares/Third_Party/FreeRTOS/Source/CMSIS_RTOS_V2/cmsis_os2.c ****     }
1246:Middlewares/Third_Party/FreeRTOS/Source/CMSIS_RTOS_V2/cmsis_os2.c ****   }
1247:Middlewares/Third_Party/FreeRTOS/Source/CMSIS_RTOS_V2/cmsis_os2.c **** 
1248:Middlewares/Third_Party/FreeRTOS/Source/CMSIS_RTOS_V2/cmsis_os2.c ****   return ((osMutexId_t)hMutex);
1249:Middlewares/Third_Party/FreeRTOS/Source/CMSIS_RTOS_V2/cmsis_os2.c **** }
 5366              		.loc 1 1249 0
ARM GAS  /tmp/cce47g5y.s 			page 138


 5367 00b0 2846     		mov	r0, r5
 5368 00b2 70BD     		pop	{r4, r5, r6, pc}
 5369              	.LVL494:
 5370              	.L581:
1236:Middlewares/Third_Party/FreeRTOS/Source/CMSIS_RTOS_V2/cmsis_os2.c ****         }
 5371              		.loc 1 1236 0
 5372 00b4 0021     		movs	r1, #0
 5373 00b6 F4E7     		b	.L570
 5374              	.LVL495:
 5375              	.L571:
1181:Middlewares/Third_Party/FreeRTOS/Source/CMSIS_RTOS_V2/cmsis_os2.c **** 
 5376              		.loc 1 1181 0
 5377 00b8 0025     		movs	r5, #0
 5378 00ba F9E7     		b	.L558
 5379              	.L572:
 5380 00bc 0025     		movs	r5, #0
 5381 00be F7E7     		b	.L558
 5382              	.LVL496:
 5383              	.L575:
 5384 00c0 0025     		movs	r5, #0
1248:Middlewares/Third_Party/FreeRTOS/Source/CMSIS_RTOS_V2/cmsis_os2.c **** }
 5385              		.loc 1 1248 0
 5386 00c2 F5E7     		b	.L558
 5387              	.L587:
 5388              		.align	2
 5389              	.L586:
 5390 00c4 00000000 		.word	.LANCHOR0
 5391              		.cfi_endproc
 5392              	.LFE93:
 5394              		.section	.text.osMutexAcquire,"ax",%progbits
 5395              		.align	1
 5396              		.global	osMutexAcquire
 5397              		.syntax unified
 5398              		.thumb
 5399              		.thumb_func
 5400              		.fpu softvfp
 5402              	osMutexAcquire:
 5403              	.LFB94:
1250:Middlewares/Third_Party/FreeRTOS/Source/CMSIS_RTOS_V2/cmsis_os2.c **** 
1251:Middlewares/Third_Party/FreeRTOS/Source/CMSIS_RTOS_V2/cmsis_os2.c **** osStatus_t osMutexAcquire (osMutexId_t mutex_id, uint32_t timeout) {
 5404              		.loc 1 1251 0
 5405              		.cfi_startproc
 5406              		@ args = 0, pretend = 0, frame = 0
 5407              		@ frame_needed = 0, uses_anonymous_args = 0
 5408              	.LVL497:
1252:Middlewares/Third_Party/FreeRTOS/Source/CMSIS_RTOS_V2/cmsis_os2.c ****   SemaphoreHandle_t hMutex;
1253:Middlewares/Third_Party/FreeRTOS/Source/CMSIS_RTOS_V2/cmsis_os2.c ****   osStatus_t stat;
1254:Middlewares/Third_Party/FreeRTOS/Source/CMSIS_RTOS_V2/cmsis_os2.c ****   uint32_t rmtx;
1255:Middlewares/Third_Party/FreeRTOS/Source/CMSIS_RTOS_V2/cmsis_os2.c **** 
1256:Middlewares/Third_Party/FreeRTOS/Source/CMSIS_RTOS_V2/cmsis_os2.c ****   hMutex = (SemaphoreHandle_t)((uint32_t)mutex_id & ~1U);
 5409              		.loc 1 1256 0
 5410 0000 20F00102 		bic	r2, r0, #1
 5411              	.LVL498:
1257:Middlewares/Third_Party/FreeRTOS/Source/CMSIS_RTOS_V2/cmsis_os2.c **** 
1258:Middlewares/Third_Party/FreeRTOS/Source/CMSIS_RTOS_V2/cmsis_os2.c ****   rmtx = (uint32_t)mutex_id & 1U;
 5412              		.loc 1 1258 0
 5413 0004 00F00103 		and	r3, r0, #1
ARM GAS  /tmp/cce47g5y.s 			page 139


 5414              	.LVL499:
 5415              	.LBB566:
 5416              	.LBB567:
 209:Drivers/CMSIS/Include/cmsis_gcc.h ****   return(result);
 5417              		.loc 2 209 0
 5418              		.syntax unified
 5419              	@ 209 "Drivers/CMSIS/Include/cmsis_gcc.h" 1
 5420 0008 EFF30580 		MRS r0, ipsr
 5421              	@ 0 "" 2
 5422              	.LVL500:
 5423              		.thumb
 5424              		.syntax unified
 5425              	.LBE567:
 5426              	.LBE566:
1259:Middlewares/Third_Party/FreeRTOS/Source/CMSIS_RTOS_V2/cmsis_os2.c **** 
1260:Middlewares/Third_Party/FreeRTOS/Source/CMSIS_RTOS_V2/cmsis_os2.c ****   stat = osOK;
1261:Middlewares/Third_Party/FreeRTOS/Source/CMSIS_RTOS_V2/cmsis_os2.c **** 
1262:Middlewares/Third_Party/FreeRTOS/Source/CMSIS_RTOS_V2/cmsis_os2.c ****   if (IS_IRQ()) {
 5427              		.loc 1 1262 0
 5428 000c 18BB     		cbnz	r0, .L592
 5429              	.LBB568:
 5430              	.LBB569:
 386:Drivers/CMSIS/Include/cmsis_gcc.h ****   return(result);
 5431              		.loc 2 386 0
 5432              		.syntax unified
 5433              	@ 386 "Drivers/CMSIS/Include/cmsis_gcc.h" 1
 5434 000e EFF31080 		MRS r0, primask
 5435              	@ 0 "" 2
 5436              		.thumb
 5437              		.syntax unified
 5438              	.LBE569:
 5439              	.LBE568:
 5440              		.loc 1 1262 0
 5441 0012 18BB     		cbnz	r0, .L593
 5442              		.loc 1 1262 0 is_stmt 0 discriminator 2
 5443 0014 1948     		ldr	r0, .L605
 5444 0016 0068     		ldr	r0, [r0]
 5445 0018 0228     		cmp	r0, #2
 5446 001a 0CD0     		beq	.L604
 5447              	.L590:
1263:Middlewares/Third_Party/FreeRTOS/Source/CMSIS_RTOS_V2/cmsis_os2.c ****     stat = osErrorISR;
1264:Middlewares/Third_Party/FreeRTOS/Source/CMSIS_RTOS_V2/cmsis_os2.c ****   }
1265:Middlewares/Third_Party/FreeRTOS/Source/CMSIS_RTOS_V2/cmsis_os2.c ****   else if (hMutex == NULL) {
 5448              		.loc 1 1265 0 is_stmt 1
 5449 001c 0AB3     		cbz	r2, .L595
1251:Middlewares/Third_Party/FreeRTOS/Source/CMSIS_RTOS_V2/cmsis_os2.c ****   SemaphoreHandle_t hMutex;
 5450              		.loc 1 1251 0
 5451 001e 10B5     		push	{r4, lr}
 5452              	.LCFI87:
 5453              		.cfi_def_cfa_offset 8
 5454              		.cfi_offset 4, -8
 5455              		.cfi_offset 14, -4
 5456 0020 0C46     		mov	r4, r1
1266:Middlewares/Third_Party/FreeRTOS/Source/CMSIS_RTOS_V2/cmsis_os2.c ****     stat = osErrorParameter;
1267:Middlewares/Third_Party/FreeRTOS/Source/CMSIS_RTOS_V2/cmsis_os2.c ****   }
1268:Middlewares/Third_Party/FreeRTOS/Source/CMSIS_RTOS_V2/cmsis_os2.c ****   else {
1269:Middlewares/Third_Party/FreeRTOS/Source/CMSIS_RTOS_V2/cmsis_os2.c ****     if (rmtx != 0U) {
ARM GAS  /tmp/cce47g5y.s 			page 140


 5457              		.loc 1 1269 0
 5458 0022 7BB1     		cbz	r3, .L591
1270:Middlewares/Third_Party/FreeRTOS/Source/CMSIS_RTOS_V2/cmsis_os2.c ****       if (xSemaphoreTakeRecursive (hMutex, timeout) != pdPASS) {
 5459              		.loc 1 1270 0
 5460 0024 1046     		mov	r0, r2
 5461 0026 FFF7FEFF 		bl	xQueueTakeMutexRecursive
 5462              	.LVL501:
 5463 002a 0128     		cmp	r0, #1
 5464 002c 1CD0     		beq	.L596
1271:Middlewares/Third_Party/FreeRTOS/Source/CMSIS_RTOS_V2/cmsis_os2.c ****         if (timeout != 0U) {
 5465              		.loc 1 1271 0
 5466 002e ECB1     		cbz	r4, .L597
1272:Middlewares/Third_Party/FreeRTOS/Source/CMSIS_RTOS_V2/cmsis_os2.c ****           stat = osErrorTimeout;
 5467              		.loc 1 1272 0
 5468 0030 6FF00100 		mvn	r0, #1
 5469 0034 10BD     		pop	{r4, pc}
 5470              	.LVL502:
 5471              	.L604:
 5472              	.LCFI88:
 5473              		.cfi_def_cfa_offset 0
 5474              		.cfi_restore 4
 5475              		.cfi_restore 14
 5476              	.LBB570:
 5477              	.LBB571:
 5478              		.loc 2 465 0
 5479              		.syntax unified
 5480              	@ 465 "Drivers/CMSIS/Include/cmsis_gcc.h" 1
 5481 0036 EFF31180 		MRS r0, basepri
 5482              	@ 0 "" 2
 5483              		.thumb
 5484              		.syntax unified
 5485              	.LBE571:
 5486              	.LBE570:
1262:Middlewares/Third_Party/FreeRTOS/Source/CMSIS_RTOS_V2/cmsis_os2.c ****     stat = osErrorISR;
 5487              		.loc 1 1262 0
 5488 003a 0028     		cmp	r0, #0
 5489 003c EED0     		beq	.L590
1263:Middlewares/Third_Party/FreeRTOS/Source/CMSIS_RTOS_V2/cmsis_os2.c ****   }
 5490              		.loc 1 1263 0
 5491 003e 6FF00500 		mvn	r0, #5
 5492 0042 7047     		bx	lr
 5493              	.L591:
 5494              	.LCFI89:
 5495              		.cfi_def_cfa_offset 8
 5496              		.cfi_offset 4, -8
 5497              		.cfi_offset 14, -4
1273:Middlewares/Third_Party/FreeRTOS/Source/CMSIS_RTOS_V2/cmsis_os2.c ****         } else {
1274:Middlewares/Third_Party/FreeRTOS/Source/CMSIS_RTOS_V2/cmsis_os2.c ****           stat = osErrorResource;
1275:Middlewares/Third_Party/FreeRTOS/Source/CMSIS_RTOS_V2/cmsis_os2.c ****         }
1276:Middlewares/Third_Party/FreeRTOS/Source/CMSIS_RTOS_V2/cmsis_os2.c ****       }
1277:Middlewares/Third_Party/FreeRTOS/Source/CMSIS_RTOS_V2/cmsis_os2.c ****     }
1278:Middlewares/Third_Party/FreeRTOS/Source/CMSIS_RTOS_V2/cmsis_os2.c ****     else {
1279:Middlewares/Third_Party/FreeRTOS/Source/CMSIS_RTOS_V2/cmsis_os2.c ****       if (xSemaphoreTake (hMutex, timeout) != pdPASS) {
 5498              		.loc 1 1279 0
 5499 0044 1046     		mov	r0, r2
 5500 0046 FFF7FEFF 		bl	xQueueSemaphoreTake
 5501              	.LVL503:
ARM GAS  /tmp/cce47g5y.s 			page 141


 5502 004a 0128     		cmp	r0, #1
 5503 004c 11D0     		beq	.L598
1280:Middlewares/Third_Party/FreeRTOS/Source/CMSIS_RTOS_V2/cmsis_os2.c ****         if (timeout != 0U) {
 5504              		.loc 1 1280 0
 5505 004e 94B1     		cbz	r4, .L599
1281:Middlewares/Third_Party/FreeRTOS/Source/CMSIS_RTOS_V2/cmsis_os2.c ****           stat = osErrorTimeout;
 5506              		.loc 1 1281 0
 5507 0050 6FF00100 		mvn	r0, #1
 5508 0054 10BD     		pop	{r4, pc}
 5509              	.LVL504:
 5510              	.L592:
 5511              	.LCFI90:
 5512              		.cfi_def_cfa_offset 0
 5513              		.cfi_restore 4
 5514              		.cfi_restore 14
1263:Middlewares/Third_Party/FreeRTOS/Source/CMSIS_RTOS_V2/cmsis_os2.c ****   }
 5515              		.loc 1 1263 0
 5516 0056 6FF00500 		mvn	r0, #5
 5517 005a 7047     		bx	lr
 5518              	.L593:
 5519 005c 6FF00500 		mvn	r0, #5
 5520 0060 7047     		bx	lr
 5521              	.L595:
1266:Middlewares/Third_Party/FreeRTOS/Source/CMSIS_RTOS_V2/cmsis_os2.c ****   }
 5522              		.loc 1 1266 0
 5523 0062 6FF00300 		mvn	r0, #3
 5524 0066 7047     		bx	lr
 5525              	.LVL505:
 5526              	.L596:
 5527              	.LCFI91:
 5528              		.cfi_def_cfa_offset 8
 5529              		.cfi_offset 4, -8
 5530              		.cfi_offset 14, -4
1260:Middlewares/Third_Party/FreeRTOS/Source/CMSIS_RTOS_V2/cmsis_os2.c **** 
 5531              		.loc 1 1260 0
 5532 0068 0020     		movs	r0, #0
 5533 006a 10BD     		pop	{r4, pc}
 5534              	.LVL506:
 5535              	.L597:
1274:Middlewares/Third_Party/FreeRTOS/Source/CMSIS_RTOS_V2/cmsis_os2.c ****         }
 5536              		.loc 1 1274 0
 5537 006c 6FF00200 		mvn	r0, #2
 5538 0070 10BD     		pop	{r4, pc}
 5539              	.LVL507:
 5540              	.L598:
1260:Middlewares/Third_Party/FreeRTOS/Source/CMSIS_RTOS_V2/cmsis_os2.c **** 
 5541              		.loc 1 1260 0
 5542 0072 0020     		movs	r0, #0
 5543 0074 10BD     		pop	{r4, pc}
 5544              	.LVL508:
 5545              	.L599:
1282:Middlewares/Third_Party/FreeRTOS/Source/CMSIS_RTOS_V2/cmsis_os2.c ****         } else {
1283:Middlewares/Third_Party/FreeRTOS/Source/CMSIS_RTOS_V2/cmsis_os2.c ****           stat = osErrorResource;
 5546              		.loc 1 1283 0
 5547 0076 6FF00200 		mvn	r0, #2
 5548              	.LVL509:
1284:Middlewares/Third_Party/FreeRTOS/Source/CMSIS_RTOS_V2/cmsis_os2.c ****         }
ARM GAS  /tmp/cce47g5y.s 			page 142


1285:Middlewares/Third_Party/FreeRTOS/Source/CMSIS_RTOS_V2/cmsis_os2.c ****       }
1286:Middlewares/Third_Party/FreeRTOS/Source/CMSIS_RTOS_V2/cmsis_os2.c ****     }
1287:Middlewares/Third_Party/FreeRTOS/Source/CMSIS_RTOS_V2/cmsis_os2.c ****   }
1288:Middlewares/Third_Party/FreeRTOS/Source/CMSIS_RTOS_V2/cmsis_os2.c **** 
1289:Middlewares/Third_Party/FreeRTOS/Source/CMSIS_RTOS_V2/cmsis_os2.c ****   return (stat);
1290:Middlewares/Third_Party/FreeRTOS/Source/CMSIS_RTOS_V2/cmsis_os2.c **** }
 5549              		.loc 1 1290 0
 5550 007a 10BD     		pop	{r4, pc}
 5551              	.LVL510:
 5552              	.L606:
 5553              		.align	2
 5554              	.L605:
 5555 007c 00000000 		.word	.LANCHOR0
 5556              		.cfi_endproc
 5557              	.LFE94:
 5559              		.section	.text.osMutexRelease,"ax",%progbits
 5560              		.align	1
 5561              		.global	osMutexRelease
 5562              		.syntax unified
 5563              		.thumb
 5564              		.thumb_func
 5565              		.fpu softvfp
 5567              	osMutexRelease:
 5568              	.LFB95:
1291:Middlewares/Third_Party/FreeRTOS/Source/CMSIS_RTOS_V2/cmsis_os2.c **** 
1292:Middlewares/Third_Party/FreeRTOS/Source/CMSIS_RTOS_V2/cmsis_os2.c **** osStatus_t osMutexRelease (osMutexId_t mutex_id) {
 5569              		.loc 1 1292 0
 5570              		.cfi_startproc
 5571              		@ args = 0, pretend = 0, frame = 0
 5572              		@ frame_needed = 0, uses_anonymous_args = 0
 5573              	.LVL511:
 5574              	.LBB572:
 5575              	.LBB573:
 209:Drivers/CMSIS/Include/cmsis_gcc.h ****   return(result);
 5576              		.loc 2 209 0
 5577              		.syntax unified
 5578              	@ 209 "Drivers/CMSIS/Include/cmsis_gcc.h" 1
 5579 0000 EFF30582 		MRS r2, ipsr
 5580              	@ 0 "" 2
 5581              		.thumb
 5582              		.syntax unified
 5583              	.LBE573:
 5584              	.LBE572:
1293:Middlewares/Third_Party/FreeRTOS/Source/CMSIS_RTOS_V2/cmsis_os2.c ****   SemaphoreHandle_t hMutex;
1294:Middlewares/Third_Party/FreeRTOS/Source/CMSIS_RTOS_V2/cmsis_os2.c ****   osStatus_t stat;
1295:Middlewares/Third_Party/FreeRTOS/Source/CMSIS_RTOS_V2/cmsis_os2.c ****   uint32_t rmtx;
1296:Middlewares/Third_Party/FreeRTOS/Source/CMSIS_RTOS_V2/cmsis_os2.c **** 
1297:Middlewares/Third_Party/FreeRTOS/Source/CMSIS_RTOS_V2/cmsis_os2.c ****   hMutex = (SemaphoreHandle_t)((uint32_t)mutex_id & ~1U);
1298:Middlewares/Third_Party/FreeRTOS/Source/CMSIS_RTOS_V2/cmsis_os2.c **** 
1299:Middlewares/Third_Party/FreeRTOS/Source/CMSIS_RTOS_V2/cmsis_os2.c ****   rmtx = (uint32_t)mutex_id & 1U;
1300:Middlewares/Third_Party/FreeRTOS/Source/CMSIS_RTOS_V2/cmsis_os2.c **** 
1301:Middlewares/Third_Party/FreeRTOS/Source/CMSIS_RTOS_V2/cmsis_os2.c ****   stat = osOK;
1302:Middlewares/Third_Party/FreeRTOS/Source/CMSIS_RTOS_V2/cmsis_os2.c **** 
1303:Middlewares/Third_Party/FreeRTOS/Source/CMSIS_RTOS_V2/cmsis_os2.c ****   if (IS_IRQ()) {
 5585              		.loc 1 1303 0
 5586 0004 2ABB     		cbnz	r2, .L611
1292:Middlewares/Third_Party/FreeRTOS/Source/CMSIS_RTOS_V2/cmsis_os2.c ****   SemaphoreHandle_t hMutex;
ARM GAS  /tmp/cce47g5y.s 			page 143


 5587              		.loc 1 1292 0
 5588 0006 10B5     		push	{r4, lr}
 5589              	.LCFI92:
 5590              		.cfi_def_cfa_offset 8
 5591              		.cfi_offset 4, -8
 5592              		.cfi_offset 14, -4
 5593 0008 20F00104 		bic	r4, r0, #1
 5594              	.LVL512:
 5595 000c 00F00100 		and	r0, r0, #1
 5596              	.LVL513:
 5597              	.LBB574:
 5598              	.LBB575:
 386:Drivers/CMSIS/Include/cmsis_gcc.h ****   return(result);
 5599              		.loc 2 386 0
 5600              		.syntax unified
 5601              	@ 386 "Drivers/CMSIS/Include/cmsis_gcc.h" 1
 5602 0010 EFF31082 		MRS r2, primask
 5603              	@ 0 "" 2
 5604              		.thumb
 5605              		.syntax unified
 5606              	.LBE575:
 5607              	.LBE574:
 5608              		.loc 1 1303 0
 5609 0014 02BB     		cbnz	r2, .L612
 5610              		.loc 1 1303 0 is_stmt 0 discriminator 2
 5611 0016 164A     		ldr	r2, .L622
 5612 0018 1268     		ldr	r2, [r2]
 5613 001a 022A     		cmp	r2, #2
 5614 001c 08D0     		beq	.L621
 5615              	.L609:
1304:Middlewares/Third_Party/FreeRTOS/Source/CMSIS_RTOS_V2/cmsis_os2.c ****     stat = osErrorISR;
1305:Middlewares/Third_Party/FreeRTOS/Source/CMSIS_RTOS_V2/cmsis_os2.c ****   }
1306:Middlewares/Third_Party/FreeRTOS/Source/CMSIS_RTOS_V2/cmsis_os2.c ****   else if (hMutex == NULL) {
 5616              		.loc 1 1306 0 is_stmt 1
 5617 001e F4B1     		cbz	r4, .L614
1307:Middlewares/Third_Party/FreeRTOS/Source/CMSIS_RTOS_V2/cmsis_os2.c ****     stat = osErrorParameter;
1308:Middlewares/Third_Party/FreeRTOS/Source/CMSIS_RTOS_V2/cmsis_os2.c ****   }
1309:Middlewares/Third_Party/FreeRTOS/Source/CMSIS_RTOS_V2/cmsis_os2.c ****   else {
1310:Middlewares/Third_Party/FreeRTOS/Source/CMSIS_RTOS_V2/cmsis_os2.c ****     if (rmtx != 0U) {
 5618              		.loc 1 1310 0
 5619 0020 68B1     		cbz	r0, .L610
1311:Middlewares/Third_Party/FreeRTOS/Source/CMSIS_RTOS_V2/cmsis_os2.c ****       if (xSemaphoreGiveRecursive (hMutex) != pdPASS) {
 5620              		.loc 1 1311 0
 5621 0022 2046     		mov	r0, r4
 5622              	.LVL514:
 5623 0024 FFF7FEFF 		bl	xQueueGiveMutexRecursive
 5624              	.LVL515:
 5625 0028 0128     		cmp	r0, #1
 5626 002a 1BD1     		bne	.L615
1301:Middlewares/Third_Party/FreeRTOS/Source/CMSIS_RTOS_V2/cmsis_os2.c **** 
 5627              		.loc 1 1301 0
 5628 002c 0020     		movs	r0, #0
 5629 002e 10BD     		pop	{r4, pc}
 5630              	.LVL516:
 5631              	.L621:
 5632              	.LBB576:
 5633              	.LBB577:
ARM GAS  /tmp/cce47g5y.s 			page 144


 5634              		.loc 2 465 0
 5635              		.syntax unified
 5636              	@ 465 "Drivers/CMSIS/Include/cmsis_gcc.h" 1
 5637 0030 EFF31182 		MRS r2, basepri
 5638              	@ 0 "" 2
 5639              		.thumb
 5640              		.syntax unified
 5641              	.LBE577:
 5642              	.LBE576:
1303:Middlewares/Third_Party/FreeRTOS/Source/CMSIS_RTOS_V2/cmsis_os2.c ****     stat = osErrorISR;
 5643              		.loc 1 1303 0
 5644 0034 002A     		cmp	r2, #0
 5645 0036 F2D0     		beq	.L609
1304:Middlewares/Third_Party/FreeRTOS/Source/CMSIS_RTOS_V2/cmsis_os2.c ****   }
 5646              		.loc 1 1304 0
 5647 0038 6FF00500 		mvn	r0, #5
 5648              	.LVL517:
 5649 003c 10BD     		pop	{r4, pc}
 5650              	.LVL518:
 5651              	.L610:
1312:Middlewares/Third_Party/FreeRTOS/Source/CMSIS_RTOS_V2/cmsis_os2.c ****         stat = osErrorResource;
1313:Middlewares/Third_Party/FreeRTOS/Source/CMSIS_RTOS_V2/cmsis_os2.c ****       }
1314:Middlewares/Third_Party/FreeRTOS/Source/CMSIS_RTOS_V2/cmsis_os2.c ****     }
1315:Middlewares/Third_Party/FreeRTOS/Source/CMSIS_RTOS_V2/cmsis_os2.c ****     else {
1316:Middlewares/Third_Party/FreeRTOS/Source/CMSIS_RTOS_V2/cmsis_os2.c ****       if (xSemaphoreGive (hMutex) != pdPASS) {
 5652              		.loc 1 1316 0
 5653 003e 0023     		movs	r3, #0
 5654 0040 1A46     		mov	r2, r3
 5655 0042 1946     		mov	r1, r3
 5656 0044 2046     		mov	r0, r4
 5657              	.LVL519:
 5658 0046 FFF7FEFF 		bl	xQueueGenericSend
 5659              	.LVL520:
 5660 004a 0128     		cmp	r0, #1
 5661 004c 0DD1     		bne	.L616
1301:Middlewares/Third_Party/FreeRTOS/Source/CMSIS_RTOS_V2/cmsis_os2.c **** 
 5662              		.loc 1 1301 0
 5663 004e 0020     		movs	r0, #0
 5664 0050 10BD     		pop	{r4, pc}
 5665              	.LVL521:
 5666              	.L611:
 5667              	.LCFI93:
 5668              		.cfi_def_cfa_offset 0
 5669              		.cfi_restore 4
 5670              		.cfi_restore 14
1304:Middlewares/Third_Party/FreeRTOS/Source/CMSIS_RTOS_V2/cmsis_os2.c ****   }
 5671              		.loc 1 1304 0
 5672 0052 6FF00500 		mvn	r0, #5
 5673              	.LVL522:
 5674 0056 7047     		bx	lr
 5675              	.LVL523:
 5676              	.L612:
 5677              	.LCFI94:
 5678              		.cfi_def_cfa_offset 8
 5679              		.cfi_offset 4, -8
 5680              		.cfi_offset 14, -4
 5681 0058 6FF00500 		mvn	r0, #5
ARM GAS  /tmp/cce47g5y.s 			page 145


 5682              	.LVL524:
 5683 005c 10BD     		pop	{r4, pc}
 5684              	.LVL525:
 5685              	.L614:
1307:Middlewares/Third_Party/FreeRTOS/Source/CMSIS_RTOS_V2/cmsis_os2.c ****   }
 5686              		.loc 1 1307 0
 5687 005e 6FF00300 		mvn	r0, #3
 5688              	.LVL526:
 5689 0062 10BD     		pop	{r4, pc}
 5690              	.LVL527:
 5691              	.L615:
1312:Middlewares/Third_Party/FreeRTOS/Source/CMSIS_RTOS_V2/cmsis_os2.c ****         stat = osErrorResource;
 5692              		.loc 1 1312 0
 5693 0064 6FF00200 		mvn	r0, #2
 5694 0068 10BD     		pop	{r4, pc}
 5695              	.LVL528:
 5696              	.L616:
1317:Middlewares/Third_Party/FreeRTOS/Source/CMSIS_RTOS_V2/cmsis_os2.c ****         stat = osErrorResource;
 5697              		.loc 1 1317 0
 5698 006a 6FF00200 		mvn	r0, #2
 5699              	.LVL529:
1318:Middlewares/Third_Party/FreeRTOS/Source/CMSIS_RTOS_V2/cmsis_os2.c ****       }
1319:Middlewares/Third_Party/FreeRTOS/Source/CMSIS_RTOS_V2/cmsis_os2.c ****     }
1320:Middlewares/Third_Party/FreeRTOS/Source/CMSIS_RTOS_V2/cmsis_os2.c ****   }
1321:Middlewares/Third_Party/FreeRTOS/Source/CMSIS_RTOS_V2/cmsis_os2.c **** 
1322:Middlewares/Third_Party/FreeRTOS/Source/CMSIS_RTOS_V2/cmsis_os2.c ****   return (stat);
1323:Middlewares/Third_Party/FreeRTOS/Source/CMSIS_RTOS_V2/cmsis_os2.c **** }
 5700              		.loc 1 1323 0
 5701 006e 10BD     		pop	{r4, pc}
 5702              	.LVL530:
 5703              	.L623:
 5704              		.align	2
 5705              	.L622:
 5706 0070 00000000 		.word	.LANCHOR0
 5707              		.cfi_endproc
 5708              	.LFE95:
 5710              		.section	.text.osMutexGetOwner,"ax",%progbits
 5711              		.align	1
 5712              		.global	osMutexGetOwner
 5713              		.syntax unified
 5714              		.thumb
 5715              		.thumb_func
 5716              		.fpu softvfp
 5718              	osMutexGetOwner:
 5719              	.LFB96:
1324:Middlewares/Third_Party/FreeRTOS/Source/CMSIS_RTOS_V2/cmsis_os2.c **** 
1325:Middlewares/Third_Party/FreeRTOS/Source/CMSIS_RTOS_V2/cmsis_os2.c **** osThreadId_t osMutexGetOwner (osMutexId_t mutex_id) {
 5720              		.loc 1 1325 0
 5721              		.cfi_startproc
 5722              		@ args = 0, pretend = 0, frame = 0
 5723              		@ frame_needed = 0, uses_anonymous_args = 0
 5724              	.LVL531:
 5725 0000 08B5     		push	{r3, lr}
 5726              	.LCFI95:
 5727              		.cfi_def_cfa_offset 8
 5728              		.cfi_offset 3, -8
 5729              		.cfi_offset 14, -4
ARM GAS  /tmp/cce47g5y.s 			page 146


 5730              	.LVL532:
 5731              	.LBB578:
 5732              	.LBB579:
 209:Drivers/CMSIS/Include/cmsis_gcc.h ****   return(result);
 5733              		.loc 2 209 0
 5734              		.syntax unified
 5735              	@ 209 "Drivers/CMSIS/Include/cmsis_gcc.h" 1
 5736 0002 EFF30583 		MRS r3, ipsr
 5737              	@ 0 "" 2
 5738              		.thumb
 5739              		.syntax unified
 5740              	.LBE579:
 5741              	.LBE578:
1326:Middlewares/Third_Party/FreeRTOS/Source/CMSIS_RTOS_V2/cmsis_os2.c ****   SemaphoreHandle_t hMutex;
1327:Middlewares/Third_Party/FreeRTOS/Source/CMSIS_RTOS_V2/cmsis_os2.c ****   osThreadId_t owner;
1328:Middlewares/Third_Party/FreeRTOS/Source/CMSIS_RTOS_V2/cmsis_os2.c **** 
1329:Middlewares/Third_Party/FreeRTOS/Source/CMSIS_RTOS_V2/cmsis_os2.c ****   hMutex = (SemaphoreHandle_t)((uint32_t)mutex_id & ~1U);
1330:Middlewares/Third_Party/FreeRTOS/Source/CMSIS_RTOS_V2/cmsis_os2.c **** 
1331:Middlewares/Third_Party/FreeRTOS/Source/CMSIS_RTOS_V2/cmsis_os2.c ****   if (IS_IRQ() || (hMutex == NULL)) {
 5742              		.loc 1 1331 0
 5743 0006 93B9     		cbnz	r3, .L627
 5744 0008 20F00100 		bic	r0, r0, #1
 5745              	.LVL533:
 5746              	.LBB580:
 5747              	.LBB581:
 386:Drivers/CMSIS/Include/cmsis_gcc.h ****   return(result);
 5748              		.loc 2 386 0
 5749              		.syntax unified
 5750              	@ 386 "Drivers/CMSIS/Include/cmsis_gcc.h" 1
 5751 000c EFF31083 		MRS r3, primask
 5752              	@ 0 "" 2
 5753              		.thumb
 5754              		.syntax unified
 5755              	.LBE581:
 5756              	.LBE580:
 5757              		.loc 1 1331 0
 5758 0010 7BB9     		cbnz	r3, .L628
 5759              		.loc 1 1331 0 is_stmt 0 discriminator 2
 5760 0012 0A4B     		ldr	r3, .L633
 5761 0014 1B68     		ldr	r3, [r3]
 5762 0016 022B     		cmp	r3, #2
 5763 0018 03D0     		beq	.L632
 5764              	.L626:
 5765              		.loc 1 1331 0 discriminator 5
 5766 001a 60B1     		cbz	r0, .L630
1332:Middlewares/Third_Party/FreeRTOS/Source/CMSIS_RTOS_V2/cmsis_os2.c ****     owner = NULL;
1333:Middlewares/Third_Party/FreeRTOS/Source/CMSIS_RTOS_V2/cmsis_os2.c ****   } else {
1334:Middlewares/Third_Party/FreeRTOS/Source/CMSIS_RTOS_V2/cmsis_os2.c ****     owner = (osThreadId_t)xSemaphoreGetMutexHolder (hMutex);
 5767              		.loc 1 1334 0 is_stmt 1
 5768 001c FFF7FEFF 		bl	xQueueGetMutexHolder
 5769              	.LVL534:
 5770 0020 08BD     		pop	{r3, pc}
 5771              	.LVL535:
 5772              	.L632:
 5773              	.LBB582:
 5774              	.LBB583:
 5775              		.loc 2 465 0
ARM GAS  /tmp/cce47g5y.s 			page 147


 5776              		.syntax unified
 5777              	@ 465 "Drivers/CMSIS/Include/cmsis_gcc.h" 1
 5778 0022 EFF31183 		MRS r3, basepri
 5779              	@ 0 "" 2
 5780              		.thumb
 5781              		.syntax unified
 5782              	.LBE583:
 5783              	.LBE582:
1331:Middlewares/Third_Party/FreeRTOS/Source/CMSIS_RTOS_V2/cmsis_os2.c ****     owner = NULL;
 5784              		.loc 1 1331 0
 5785 0026 002B     		cmp	r3, #0
 5786 0028 F7D0     		beq	.L626
1332:Middlewares/Third_Party/FreeRTOS/Source/CMSIS_RTOS_V2/cmsis_os2.c ****     owner = NULL;
 5787              		.loc 1 1332 0
 5788 002a 0020     		movs	r0, #0
 5789              	.LVL536:
 5790 002c 08BD     		pop	{r3, pc}
 5791              	.LVL537:
 5792              	.L627:
 5793 002e 0020     		movs	r0, #0
 5794              	.LVL538:
 5795 0030 08BD     		pop	{r3, pc}
 5796              	.LVL539:
 5797              	.L628:
 5798 0032 0020     		movs	r0, #0
 5799              	.LVL540:
 5800 0034 08BD     		pop	{r3, pc}
 5801              	.LVL541:
 5802              	.L630:
 5803 0036 0020     		movs	r0, #0
 5804              	.LVL542:
1335:Middlewares/Third_Party/FreeRTOS/Source/CMSIS_RTOS_V2/cmsis_os2.c ****   }
1336:Middlewares/Third_Party/FreeRTOS/Source/CMSIS_RTOS_V2/cmsis_os2.c **** 
1337:Middlewares/Third_Party/FreeRTOS/Source/CMSIS_RTOS_V2/cmsis_os2.c ****   return (owner);
1338:Middlewares/Third_Party/FreeRTOS/Source/CMSIS_RTOS_V2/cmsis_os2.c **** }
 5805              		.loc 1 1338 0
 5806 0038 08BD     		pop	{r3, pc}
 5807              	.L634:
 5808 003a 00BF     		.align	2
 5809              	.L633:
 5810 003c 00000000 		.word	.LANCHOR0
 5811              		.cfi_endproc
 5812              	.LFE96:
 5814              		.section	.text.osMutexDelete,"ax",%progbits
 5815              		.align	1
 5816              		.global	osMutexDelete
 5817              		.syntax unified
 5818              		.thumb
 5819              		.thumb_func
 5820              		.fpu softvfp
 5822              	osMutexDelete:
 5823              	.LFB97:
1339:Middlewares/Third_Party/FreeRTOS/Source/CMSIS_RTOS_V2/cmsis_os2.c **** 
1340:Middlewares/Third_Party/FreeRTOS/Source/CMSIS_RTOS_V2/cmsis_os2.c **** osStatus_t osMutexDelete (osMutexId_t mutex_id) {
 5824              		.loc 1 1340 0
 5825              		.cfi_startproc
 5826              		@ args = 0, pretend = 0, frame = 0
ARM GAS  /tmp/cce47g5y.s 			page 148


 5827              		@ frame_needed = 0, uses_anonymous_args = 0
 5828              	.LVL543:
 5829              	.LBB584:
 5830              	.LBB585:
 209:Drivers/CMSIS/Include/cmsis_gcc.h ****   return(result);
 5831              		.loc 2 209 0
 5832              		.syntax unified
 5833              	@ 209 "Drivers/CMSIS/Include/cmsis_gcc.h" 1
 5834 0000 EFF30583 		MRS r3, ipsr
 5835              	@ 0 "" 2
 5836              		.thumb
 5837              		.syntax unified
 5838              	.LBE585:
 5839              	.LBE584:
1341:Middlewares/Third_Party/FreeRTOS/Source/CMSIS_RTOS_V2/cmsis_os2.c ****   osStatus_t stat;
1342:Middlewares/Third_Party/FreeRTOS/Source/CMSIS_RTOS_V2/cmsis_os2.c **** #ifndef USE_FreeRTOS_HEAP_1
1343:Middlewares/Third_Party/FreeRTOS/Source/CMSIS_RTOS_V2/cmsis_os2.c ****   SemaphoreHandle_t hMutex;
1344:Middlewares/Third_Party/FreeRTOS/Source/CMSIS_RTOS_V2/cmsis_os2.c **** 
1345:Middlewares/Third_Party/FreeRTOS/Source/CMSIS_RTOS_V2/cmsis_os2.c ****   hMutex = (SemaphoreHandle_t)((uint32_t)mutex_id & ~1U);
1346:Middlewares/Third_Party/FreeRTOS/Source/CMSIS_RTOS_V2/cmsis_os2.c **** 
1347:Middlewares/Third_Party/FreeRTOS/Source/CMSIS_RTOS_V2/cmsis_os2.c ****   if (IS_IRQ()) {
 5840              		.loc 1 1347 0
 5841 0004 CBB9     		cbnz	r3, .L638
1340:Middlewares/Third_Party/FreeRTOS/Source/CMSIS_RTOS_V2/cmsis_os2.c ****   osStatus_t stat;
 5842              		.loc 1 1340 0
 5843 0006 10B5     		push	{r4, lr}
 5844              	.LCFI96:
 5845              		.cfi_def_cfa_offset 8
 5846              		.cfi_offset 4, -8
 5847              		.cfi_offset 14, -4
 5848 0008 20F00104 		bic	r4, r0, #1
 5849              	.LVL544:
 5850              	.LBB586:
 5851              	.LBB587:
 386:Drivers/CMSIS/Include/cmsis_gcc.h ****   return(result);
 5852              		.loc 2 386 0
 5853              		.syntax unified
 5854              	@ 386 "Drivers/CMSIS/Include/cmsis_gcc.h" 1
 5855 000c EFF31083 		MRS r3, primask
 5856              	@ 0 "" 2
 5857              		.thumb
 5858              		.syntax unified
 5859              	.LBE587:
 5860              	.LBE586:
 5861              		.loc 1 1347 0
 5862 0010 B3B9     		cbnz	r3, .L639
 5863              		.loc 1 1347 0 is_stmt 0 discriminator 2
 5864 0012 0E4B     		ldr	r3, .L647
 5865 0014 1B68     		ldr	r3, [r3]
 5866 0016 022B     		cmp	r3, #2
 5867 0018 08D0     		beq	.L646
 5868              	.L637:
1348:Middlewares/Third_Party/FreeRTOS/Source/CMSIS_RTOS_V2/cmsis_os2.c ****     stat = osErrorISR;
1349:Middlewares/Third_Party/FreeRTOS/Source/CMSIS_RTOS_V2/cmsis_os2.c ****   }
1350:Middlewares/Third_Party/FreeRTOS/Source/CMSIS_RTOS_V2/cmsis_os2.c ****   else if (hMutex == NULL) {
 5869              		.loc 1 1350 0 is_stmt 1
 5870 001a A4B1     		cbz	r4, .L641
ARM GAS  /tmp/cce47g5y.s 			page 149


1351:Middlewares/Third_Party/FreeRTOS/Source/CMSIS_RTOS_V2/cmsis_os2.c ****     stat = osErrorParameter;
1352:Middlewares/Third_Party/FreeRTOS/Source/CMSIS_RTOS_V2/cmsis_os2.c ****   }
1353:Middlewares/Third_Party/FreeRTOS/Source/CMSIS_RTOS_V2/cmsis_os2.c ****   else {
1354:Middlewares/Third_Party/FreeRTOS/Source/CMSIS_RTOS_V2/cmsis_os2.c ****     #if (configQUEUE_REGISTRY_SIZE > 0)
1355:Middlewares/Third_Party/FreeRTOS/Source/CMSIS_RTOS_V2/cmsis_os2.c ****     vQueueUnregisterQueue (hMutex);
 5871              		.loc 1 1355 0
 5872 001c 2046     		mov	r0, r4
 5873              	.LVL545:
 5874 001e FFF7FEFF 		bl	vQueueUnregisterQueue
 5875              	.LVL546:
1356:Middlewares/Third_Party/FreeRTOS/Source/CMSIS_RTOS_V2/cmsis_os2.c ****     #endif
1357:Middlewares/Third_Party/FreeRTOS/Source/CMSIS_RTOS_V2/cmsis_os2.c ****     stat = osOK;
1358:Middlewares/Third_Party/FreeRTOS/Source/CMSIS_RTOS_V2/cmsis_os2.c ****     vSemaphoreDelete (hMutex);
 5876              		.loc 1 1358 0
 5877 0022 2046     		mov	r0, r4
 5878 0024 FFF7FEFF 		bl	vQueueDelete
 5879              	.LVL547:
1357:Middlewares/Third_Party/FreeRTOS/Source/CMSIS_RTOS_V2/cmsis_os2.c ****     vSemaphoreDelete (hMutex);
 5880              		.loc 1 1357 0
 5881 0028 0020     		movs	r0, #0
 5882 002a 10BD     		pop	{r4, pc}
 5883              	.LVL548:
 5884              	.L646:
 5885              	.LBB588:
 5886              	.LBB589:
 5887              		.loc 2 465 0
 5888              		.syntax unified
 5889              	@ 465 "Drivers/CMSIS/Include/cmsis_gcc.h" 1
 5890 002c EFF31183 		MRS r3, basepri
 5891              	@ 0 "" 2
 5892              		.thumb
 5893              		.syntax unified
 5894              	.LBE589:
 5895              	.LBE588:
1347:Middlewares/Third_Party/FreeRTOS/Source/CMSIS_RTOS_V2/cmsis_os2.c ****     stat = osErrorISR;
 5896              		.loc 1 1347 0
 5897 0030 002B     		cmp	r3, #0
 5898 0032 F2D0     		beq	.L637
1348:Middlewares/Third_Party/FreeRTOS/Source/CMSIS_RTOS_V2/cmsis_os2.c ****   }
 5899              		.loc 1 1348 0
 5900 0034 6FF00500 		mvn	r0, #5
 5901              	.LVL549:
 5902 0038 10BD     		pop	{r4, pc}
 5903              	.LVL550:
 5904              	.L638:
 5905              	.LCFI97:
 5906              		.cfi_def_cfa_offset 0
 5907              		.cfi_restore 4
 5908              		.cfi_restore 14
 5909 003a 6FF00500 		mvn	r0, #5
 5910              	.LVL551:
 5911 003e 7047     		bx	lr
 5912              	.LVL552:
 5913              	.L639:
 5914              	.LCFI98:
 5915              		.cfi_def_cfa_offset 8
 5916              		.cfi_offset 4, -8
ARM GAS  /tmp/cce47g5y.s 			page 150


 5917              		.cfi_offset 14, -4
 5918 0040 6FF00500 		mvn	r0, #5
 5919              	.LVL553:
 5920 0044 10BD     		pop	{r4, pc}
 5921              	.LVL554:
 5922              	.L641:
1351:Middlewares/Third_Party/FreeRTOS/Source/CMSIS_RTOS_V2/cmsis_os2.c ****   }
 5923              		.loc 1 1351 0
 5924 0046 6FF00300 		mvn	r0, #3
 5925              	.LVL555:
1359:Middlewares/Third_Party/FreeRTOS/Source/CMSIS_RTOS_V2/cmsis_os2.c ****   }
1360:Middlewares/Third_Party/FreeRTOS/Source/CMSIS_RTOS_V2/cmsis_os2.c **** #else
1361:Middlewares/Third_Party/FreeRTOS/Source/CMSIS_RTOS_V2/cmsis_os2.c ****   stat = osError;
1362:Middlewares/Third_Party/FreeRTOS/Source/CMSIS_RTOS_V2/cmsis_os2.c **** #endif
1363:Middlewares/Third_Party/FreeRTOS/Source/CMSIS_RTOS_V2/cmsis_os2.c **** 
1364:Middlewares/Third_Party/FreeRTOS/Source/CMSIS_RTOS_V2/cmsis_os2.c ****   return (stat);
1365:Middlewares/Third_Party/FreeRTOS/Source/CMSIS_RTOS_V2/cmsis_os2.c **** }
 5926              		.loc 1 1365 0
 5927 004a 10BD     		pop	{r4, pc}
 5928              	.LVL556:
 5929              	.L648:
 5930              		.align	2
 5931              	.L647:
 5932 004c 00000000 		.word	.LANCHOR0
 5933              		.cfi_endproc
 5934              	.LFE97:
 5936              		.section	.text.osSemaphoreNew,"ax",%progbits
 5937              		.align	1
 5938              		.global	osSemaphoreNew
 5939              		.syntax unified
 5940              		.thumb
 5941              		.thumb_func
 5942              		.fpu softvfp
 5944              	osSemaphoreNew:
 5945              	.LFB98:
1366:Middlewares/Third_Party/FreeRTOS/Source/CMSIS_RTOS_V2/cmsis_os2.c **** 
1367:Middlewares/Third_Party/FreeRTOS/Source/CMSIS_RTOS_V2/cmsis_os2.c **** /*---------------------------------------------------------------------------*/
1368:Middlewares/Third_Party/FreeRTOS/Source/CMSIS_RTOS_V2/cmsis_os2.c **** 
1369:Middlewares/Third_Party/FreeRTOS/Source/CMSIS_RTOS_V2/cmsis_os2.c **** osSemaphoreId_t osSemaphoreNew (uint32_t max_count, uint32_t initial_count, const osSemaphoreAttr_t
 5946              		.loc 1 1369 0
 5947              		.cfi_startproc
 5948              		@ args = 0, pretend = 0, frame = 0
 5949              		@ frame_needed = 0, uses_anonymous_args = 0
 5950              	.LVL557:
 5951 0000 70B5     		push	{r4, r5, r6, lr}
 5952              	.LCFI99:
 5953              		.cfi_def_cfa_offset 16
 5954              		.cfi_offset 4, -16
 5955              		.cfi_offset 5, -12
 5956              		.cfi_offset 6, -8
 5957              		.cfi_offset 14, -4
 5958 0002 82B0     		sub	sp, sp, #8
 5959              	.LCFI100:
 5960              		.cfi_def_cfa_offset 24
 5961              	.LVL558:
 5962              	.LBB590:
 5963              	.LBB591:
ARM GAS  /tmp/cce47g5y.s 			page 151


 209:Drivers/CMSIS/Include/cmsis_gcc.h ****   return(result);
 5964              		.loc 2 209 0
 5965              		.syntax unified
 5966              	@ 209 "Drivers/CMSIS/Include/cmsis_gcc.h" 1
 5967 0004 EFF30583 		MRS r3, ipsr
 5968              	@ 0 "" 2
 5969              		.thumb
 5970              		.syntax unified
 5971              	.LBE591:
 5972              	.LBE590:
1370:Middlewares/Third_Party/FreeRTOS/Source/CMSIS_RTOS_V2/cmsis_os2.c ****   SemaphoreHandle_t hSemaphore;
1371:Middlewares/Third_Party/FreeRTOS/Source/CMSIS_RTOS_V2/cmsis_os2.c ****   int32_t mem;
1372:Middlewares/Third_Party/FreeRTOS/Source/CMSIS_RTOS_V2/cmsis_os2.c ****   #if (configQUEUE_REGISTRY_SIZE > 0)
1373:Middlewares/Third_Party/FreeRTOS/Source/CMSIS_RTOS_V2/cmsis_os2.c ****   const char *name;
1374:Middlewares/Third_Party/FreeRTOS/Source/CMSIS_RTOS_V2/cmsis_os2.c ****   #endif
1375:Middlewares/Third_Party/FreeRTOS/Source/CMSIS_RTOS_V2/cmsis_os2.c **** 
1376:Middlewares/Third_Party/FreeRTOS/Source/CMSIS_RTOS_V2/cmsis_os2.c ****   hSemaphore = NULL;
1377:Middlewares/Third_Party/FreeRTOS/Source/CMSIS_RTOS_V2/cmsis_os2.c **** 
1378:Middlewares/Third_Party/FreeRTOS/Source/CMSIS_RTOS_V2/cmsis_os2.c ****   if (!IS_IRQ() && (max_count > 0U) && (initial_count <= max_count)) {
 5973              		.loc 1 1378 0
 5974 0008 002B     		cmp	r3, #0
 5975 000a 64D1     		bne	.L660
 5976              	.LBB592:
 5977              	.LBB593:
 386:Drivers/CMSIS/Include/cmsis_gcc.h ****   return(result);
 5978              		.loc 2 386 0
 5979              		.syntax unified
 5980              	@ 386 "Drivers/CMSIS/Include/cmsis_gcc.h" 1
 5981 000c EFF31083 		MRS r3, primask
 5982              	@ 0 "" 2
 5983              		.thumb
 5984              		.syntax unified
 5985              	.LBE593:
 5986              	.LBE592:
 5987              		.loc 1 1378 0
 5988 0010 002B     		cmp	r3, #0
 5989 0012 62D1     		bne	.L661
 5990              		.loc 1 1378 0 is_stmt 0 discriminator 2
 5991 0014 354B     		ldr	r3, .L677
 5992 0016 1B68     		ldr	r3, [r3]
 5993 0018 022B     		cmp	r3, #2
 5994 001a 22D0     		beq	.L672
 5995              	.L651:
 5996              		.loc 1 1378 0 discriminator 5
 5997 001c 0028     		cmp	r0, #0
 5998 001e 5ED0     		beq	.L663
 5999              		.loc 1 1378 0 discriminator 6
 6000 0020 8842     		cmp	r0, r1
 6001 0022 5ED3     		bcc	.L664
 6002              	.LVL559:
1379:Middlewares/Third_Party/FreeRTOS/Source/CMSIS_RTOS_V2/cmsis_os2.c ****     mem = -1;
1380:Middlewares/Third_Party/FreeRTOS/Source/CMSIS_RTOS_V2/cmsis_os2.c **** 
1381:Middlewares/Third_Party/FreeRTOS/Source/CMSIS_RTOS_V2/cmsis_os2.c ****     if (attr != NULL) {
 6003              		.loc 1 1381 0 is_stmt 1
 6004 0024 42B3     		cbz	r2, .L665
1382:Middlewares/Third_Party/FreeRTOS/Source/CMSIS_RTOS_V2/cmsis_os2.c ****       if ((attr->cb_mem != NULL) && (attr->cb_size >= sizeof(StaticSemaphore_t))) {
 6005              		.loc 1 1382 0
ARM GAS  /tmp/cce47g5y.s 			page 152


 6006 0026 9368     		ldr	r3, [r2, #8]
 6007 0028 13B1     		cbz	r3, .L653
 6008              		.loc 1 1382 0 is_stmt 0 discriminator 1
 6009 002a D468     		ldr	r4, [r2, #12]
 6010 002c 4F2C     		cmp	r4, #79
 6011 002e 25D8     		bhi	.L666
 6012              	.L653:
1383:Middlewares/Third_Party/FreeRTOS/Source/CMSIS_RTOS_V2/cmsis_os2.c ****         mem = 1;
1384:Middlewares/Third_Party/FreeRTOS/Source/CMSIS_RTOS_V2/cmsis_os2.c ****       }
1385:Middlewares/Third_Party/FreeRTOS/Source/CMSIS_RTOS_V2/cmsis_os2.c ****       else {
1386:Middlewares/Third_Party/FreeRTOS/Source/CMSIS_RTOS_V2/cmsis_os2.c ****         if ((attr->cb_mem == NULL) && (attr->cb_size == 0U)) {
 6013              		.loc 1 1386 0 is_stmt 1
 6014 0030 EBB1     		cbz	r3, .L673
1379:Middlewares/Third_Party/FreeRTOS/Source/CMSIS_RTOS_V2/cmsis_os2.c **** 
 6015              		.loc 1 1379 0
 6016 0032 4FF0FF33 		mov	r3, #-1
 6017              	.L652:
 6018              	.LVL560:
1387:Middlewares/Third_Party/FreeRTOS/Source/CMSIS_RTOS_V2/cmsis_os2.c ****           mem = 0;
1388:Middlewares/Third_Party/FreeRTOS/Source/CMSIS_RTOS_V2/cmsis_os2.c ****         }
1389:Middlewares/Third_Party/FreeRTOS/Source/CMSIS_RTOS_V2/cmsis_os2.c ****       }
1390:Middlewares/Third_Party/FreeRTOS/Source/CMSIS_RTOS_V2/cmsis_os2.c ****     }
1391:Middlewares/Third_Party/FreeRTOS/Source/CMSIS_RTOS_V2/cmsis_os2.c ****     else {
1392:Middlewares/Third_Party/FreeRTOS/Source/CMSIS_RTOS_V2/cmsis_os2.c ****       mem = 0;
1393:Middlewares/Third_Party/FreeRTOS/Source/CMSIS_RTOS_V2/cmsis_os2.c ****     }
1394:Middlewares/Third_Party/FreeRTOS/Source/CMSIS_RTOS_V2/cmsis_os2.c **** 
1395:Middlewares/Third_Party/FreeRTOS/Source/CMSIS_RTOS_V2/cmsis_os2.c ****     if (mem != -1) {
 6019              		.loc 1 1395 0
 6020 0036 B3F1FF3F 		cmp	r3, #-1
 6021 003a 54D0     		beq	.L669
 6022 003c 1446     		mov	r4, r2
 6023 003e 0D46     		mov	r5, r1
1396:Middlewares/Third_Party/FreeRTOS/Source/CMSIS_RTOS_V2/cmsis_os2.c ****       if (max_count == 1U) {
 6024              		.loc 1 1396 0
 6025 0040 0128     		cmp	r0, #1
 6026 0042 1FD0     		beq	.L674
1397:Middlewares/Third_Party/FreeRTOS/Source/CMSIS_RTOS_V2/cmsis_os2.c ****         if (mem == 1) {
1398:Middlewares/Third_Party/FreeRTOS/Source/CMSIS_RTOS_V2/cmsis_os2.c ****           hSemaphore = xSemaphoreCreateBinaryStatic ((StaticSemaphore_t *)attr->cb_mem);
1399:Middlewares/Third_Party/FreeRTOS/Source/CMSIS_RTOS_V2/cmsis_os2.c ****         }
1400:Middlewares/Third_Party/FreeRTOS/Source/CMSIS_RTOS_V2/cmsis_os2.c ****         else {
1401:Middlewares/Third_Party/FreeRTOS/Source/CMSIS_RTOS_V2/cmsis_os2.c ****           hSemaphore = xSemaphoreCreateBinary();
1402:Middlewares/Third_Party/FreeRTOS/Source/CMSIS_RTOS_V2/cmsis_os2.c ****         }
1403:Middlewares/Third_Party/FreeRTOS/Source/CMSIS_RTOS_V2/cmsis_os2.c **** 
1404:Middlewares/Third_Party/FreeRTOS/Source/CMSIS_RTOS_V2/cmsis_os2.c ****         if ((hSemaphore != NULL) && (initial_count != 0U)) {
1405:Middlewares/Third_Party/FreeRTOS/Source/CMSIS_RTOS_V2/cmsis_os2.c ****           if (xSemaphoreGive (hSemaphore) != pdPASS) {
1406:Middlewares/Third_Party/FreeRTOS/Source/CMSIS_RTOS_V2/cmsis_os2.c ****             vSemaphoreDelete (hSemaphore);
1407:Middlewares/Third_Party/FreeRTOS/Source/CMSIS_RTOS_V2/cmsis_os2.c ****             hSemaphore = NULL;
1408:Middlewares/Third_Party/FreeRTOS/Source/CMSIS_RTOS_V2/cmsis_os2.c ****           }
1409:Middlewares/Third_Party/FreeRTOS/Source/CMSIS_RTOS_V2/cmsis_os2.c ****         }
1410:Middlewares/Third_Party/FreeRTOS/Source/CMSIS_RTOS_V2/cmsis_os2.c ****       }
1411:Middlewares/Third_Party/FreeRTOS/Source/CMSIS_RTOS_V2/cmsis_os2.c ****       else {
1412:Middlewares/Third_Party/FreeRTOS/Source/CMSIS_RTOS_V2/cmsis_os2.c ****         if (mem == 1) {
 6027              		.loc 1 1412 0
 6028 0044 012B     		cmp	r3, #1
 6029 0046 3FD0     		beq	.L675
1413:Middlewares/Third_Party/FreeRTOS/Source/CMSIS_RTOS_V2/cmsis_os2.c ****           hSemaphore = xSemaphoreCreateCountingStatic (max_count, initial_count, (StaticSemaphore_t
1414:Middlewares/Third_Party/FreeRTOS/Source/CMSIS_RTOS_V2/cmsis_os2.c ****         }
ARM GAS  /tmp/cce47g5y.s 			page 153


1415:Middlewares/Third_Party/FreeRTOS/Source/CMSIS_RTOS_V2/cmsis_os2.c ****         else {
1416:Middlewares/Third_Party/FreeRTOS/Source/CMSIS_RTOS_V2/cmsis_os2.c ****           hSemaphore = xSemaphoreCreateCounting (max_count, initial_count);
 6030              		.loc 1 1416 0
 6031 0048 FFF7FEFF 		bl	xQueueCreateCountingSemaphore
 6032              	.LVL561:
 6033 004c 0646     		mov	r6, r0
 6034              	.LVL562:
 6035              	.L657:
1417:Middlewares/Third_Party/FreeRTOS/Source/CMSIS_RTOS_V2/cmsis_os2.c ****         }
1418:Middlewares/Third_Party/FreeRTOS/Source/CMSIS_RTOS_V2/cmsis_os2.c ****       }
1419:Middlewares/Third_Party/FreeRTOS/Source/CMSIS_RTOS_V2/cmsis_os2.c **** 
1420:Middlewares/Third_Party/FreeRTOS/Source/CMSIS_RTOS_V2/cmsis_os2.c ****       #if (configQUEUE_REGISTRY_SIZE > 0)
1421:Middlewares/Third_Party/FreeRTOS/Source/CMSIS_RTOS_V2/cmsis_os2.c ****       if (hSemaphore != NULL) {
 6036              		.loc 1 1421 0
 6037 004e 2EB1     		cbz	r6, .L649
1422:Middlewares/Third_Party/FreeRTOS/Source/CMSIS_RTOS_V2/cmsis_os2.c ****         if (attr != NULL) {
 6038              		.loc 1 1422 0
 6039 0050 002C     		cmp	r4, #0
 6040 0052 3ED0     		beq	.L670
1423:Middlewares/Third_Party/FreeRTOS/Source/CMSIS_RTOS_V2/cmsis_os2.c ****           name = attr->name;
 6041              		.loc 1 1423 0
 6042 0054 2168     		ldr	r1, [r4]
 6043              	.LVL563:
 6044              	.L659:
1424:Middlewares/Third_Party/FreeRTOS/Source/CMSIS_RTOS_V2/cmsis_os2.c ****         } else {
1425:Middlewares/Third_Party/FreeRTOS/Source/CMSIS_RTOS_V2/cmsis_os2.c ****           name = NULL;
1426:Middlewares/Third_Party/FreeRTOS/Source/CMSIS_RTOS_V2/cmsis_os2.c ****         }
1427:Middlewares/Third_Party/FreeRTOS/Source/CMSIS_RTOS_V2/cmsis_os2.c ****         vQueueAddToRegistry (hSemaphore, name);
 6045              		.loc 1 1427 0
 6046 0056 3046     		mov	r0, r6
 6047 0058 FFF7FEFF 		bl	vQueueAddToRegistry
 6048              	.LVL564:
 6049              	.L649:
1428:Middlewares/Third_Party/FreeRTOS/Source/CMSIS_RTOS_V2/cmsis_os2.c ****       }
1429:Middlewares/Third_Party/FreeRTOS/Source/CMSIS_RTOS_V2/cmsis_os2.c ****       #endif
1430:Middlewares/Third_Party/FreeRTOS/Source/CMSIS_RTOS_V2/cmsis_os2.c ****     }
1431:Middlewares/Third_Party/FreeRTOS/Source/CMSIS_RTOS_V2/cmsis_os2.c ****   }
1432:Middlewares/Third_Party/FreeRTOS/Source/CMSIS_RTOS_V2/cmsis_os2.c **** 
1433:Middlewares/Third_Party/FreeRTOS/Source/CMSIS_RTOS_V2/cmsis_os2.c ****   return ((osSemaphoreId_t)hSemaphore);
1434:Middlewares/Third_Party/FreeRTOS/Source/CMSIS_RTOS_V2/cmsis_os2.c **** }
 6050              		.loc 1 1434 0
 6051 005c 3046     		mov	r0, r6
 6052 005e 02B0     		add	sp, sp, #8
 6053              	.LCFI101:
 6054              		.cfi_remember_state
 6055              		.cfi_def_cfa_offset 16
 6056              		@ sp needed
 6057 0060 70BD     		pop	{r4, r5, r6, pc}
 6058              	.LVL565:
 6059              	.L672:
 6060              	.LCFI102:
 6061              		.cfi_restore_state
 6062              	.LBB594:
 6063              	.LBB595:
 6064              		.loc 2 465 0
 6065              		.syntax unified
 6066              	@ 465 "Drivers/CMSIS/Include/cmsis_gcc.h" 1
ARM GAS  /tmp/cce47g5y.s 			page 154


 6067 0062 EFF31183 		MRS r3, basepri
 6068              	@ 0 "" 2
 6069              		.thumb
 6070              		.syntax unified
 6071              	.LBE595:
 6072              	.LBE594:
1378:Middlewares/Third_Party/FreeRTOS/Source/CMSIS_RTOS_V2/cmsis_os2.c ****     mem = -1;
 6073              		.loc 1 1378 0
 6074 0066 002B     		cmp	r3, #0
 6075 0068 D8D0     		beq	.L651
1376:Middlewares/Third_Party/FreeRTOS/Source/CMSIS_RTOS_V2/cmsis_os2.c **** 
 6076              		.loc 1 1376 0
 6077 006a 0026     		movs	r6, #0
 6078 006c F6E7     		b	.L649
 6079              	.LVL566:
 6080              	.L673:
1386:Middlewares/Third_Party/FreeRTOS/Source/CMSIS_RTOS_V2/cmsis_os2.c ****           mem = 0;
 6081              		.loc 1 1386 0 discriminator 1
 6082 006e D368     		ldr	r3, [r2, #12]
 6083 0070 33B1     		cbz	r3, .L668
1379:Middlewares/Third_Party/FreeRTOS/Source/CMSIS_RTOS_V2/cmsis_os2.c **** 
 6084              		.loc 1 1379 0
 6085 0072 4FF0FF33 		mov	r3, #-1
 6086 0076 DEE7     		b	.L652
 6087              	.L665:
1392:Middlewares/Third_Party/FreeRTOS/Source/CMSIS_RTOS_V2/cmsis_os2.c ****     }
 6088              		.loc 1 1392 0
 6089 0078 0023     		movs	r3, #0
 6090 007a DCE7     		b	.L652
 6091              	.L666:
1383:Middlewares/Third_Party/FreeRTOS/Source/CMSIS_RTOS_V2/cmsis_os2.c ****       }
 6092              		.loc 1 1383 0
 6093 007c 0123     		movs	r3, #1
 6094 007e DAE7     		b	.L652
 6095              	.L668:
1387:Middlewares/Third_Party/FreeRTOS/Source/CMSIS_RTOS_V2/cmsis_os2.c ****         }
 6096              		.loc 1 1387 0
 6097 0080 0023     		movs	r3, #0
 6098 0082 D8E7     		b	.L652
 6099              	.LVL567:
 6100              	.L674:
1397:Middlewares/Third_Party/FreeRTOS/Source/CMSIS_RTOS_V2/cmsis_os2.c ****           hSemaphore = xSemaphoreCreateBinaryStatic ((StaticSemaphore_t *)attr->cb_mem);
 6101              		.loc 1 1397 0
 6102 0084 012B     		cmp	r3, #1
 6103 0086 16D0     		beq	.L676
1401:Middlewares/Third_Party/FreeRTOS/Source/CMSIS_RTOS_V2/cmsis_os2.c ****         }
 6104              		.loc 1 1401 0
 6105 0088 0322     		movs	r2, #3
 6106              	.LVL568:
 6107 008a 0021     		movs	r1, #0
 6108              	.LVL569:
 6109 008c 0120     		movs	r0, #1
 6110              	.LVL570:
 6111 008e FFF7FEFF 		bl	xQueueGenericCreate
 6112              	.LVL571:
 6113 0092 0646     		mov	r6, r0
 6114              	.LVL572:
ARM GAS  /tmp/cce47g5y.s 			page 155


 6115              	.L656:
1404:Middlewares/Third_Party/FreeRTOS/Source/CMSIS_RTOS_V2/cmsis_os2.c ****           if (xSemaphoreGive (hSemaphore) != pdPASS) {
 6116              		.loc 1 1404 0
 6117 0094 002E     		cmp	r6, #0
 6118 0096 DAD0     		beq	.L657
1404:Middlewares/Third_Party/FreeRTOS/Source/CMSIS_RTOS_V2/cmsis_os2.c ****           if (xSemaphoreGive (hSemaphore) != pdPASS) {
 6119              		.loc 1 1404 0 is_stmt 0 discriminator 1
 6120 0098 002D     		cmp	r5, #0
 6121 009a D8D0     		beq	.L657
1405:Middlewares/Third_Party/FreeRTOS/Source/CMSIS_RTOS_V2/cmsis_os2.c ****             vSemaphoreDelete (hSemaphore);
 6122              		.loc 1 1405 0 is_stmt 1
 6123 009c 0023     		movs	r3, #0
 6124 009e 1A46     		mov	r2, r3
 6125 00a0 1946     		mov	r1, r3
 6126 00a2 3046     		mov	r0, r6
 6127 00a4 FFF7FEFF 		bl	xQueueGenericSend
 6128              	.LVL573:
 6129 00a8 0128     		cmp	r0, #1
 6130 00aa D0D0     		beq	.L657
1406:Middlewares/Third_Party/FreeRTOS/Source/CMSIS_RTOS_V2/cmsis_os2.c ****             hSemaphore = NULL;
 6131              		.loc 1 1406 0
 6132 00ac 3046     		mov	r0, r6
 6133 00ae FFF7FEFF 		bl	vQueueDelete
 6134              	.LVL574:
1407:Middlewares/Third_Party/FreeRTOS/Source/CMSIS_RTOS_V2/cmsis_os2.c ****           }
 6135              		.loc 1 1407 0
 6136 00b2 0026     		movs	r6, #0
 6137 00b4 CBE7     		b	.L657
 6138              	.LVL575:
 6139              	.L676:
1398:Middlewares/Third_Party/FreeRTOS/Source/CMSIS_RTOS_V2/cmsis_os2.c ****         }
 6140              		.loc 1 1398 0
 6141 00b6 0323     		movs	r3, #3
 6142              	.LVL576:
 6143 00b8 0093     		str	r3, [sp]
 6144 00ba 9368     		ldr	r3, [r2, #8]
 6145 00bc 0022     		movs	r2, #0
 6146              	.LVL577:
 6147 00be 1146     		mov	r1, r2
 6148              	.LVL578:
 6149 00c0 FFF7FEFF 		bl	xQueueGenericCreateStatic
 6150              	.LVL579:
 6151 00c4 0646     		mov	r6, r0
 6152              	.LVL580:
 6153 00c6 E5E7     		b	.L656
 6154              	.LVL581:
 6155              	.L675:
1413:Middlewares/Third_Party/FreeRTOS/Source/CMSIS_RTOS_V2/cmsis_os2.c ****         }
 6156              		.loc 1 1413 0
 6157 00c8 9268     		ldr	r2, [r2, #8]
 6158              	.LVL582:
 6159 00ca FFF7FEFF 		bl	xQueueCreateCountingSemaphoreStatic
 6160              	.LVL583:
 6161 00ce 0646     		mov	r6, r0
 6162              	.LVL584:
 6163 00d0 BDE7     		b	.L657
 6164              	.LVL585:
ARM GAS  /tmp/cce47g5y.s 			page 156


 6165              	.L670:
1425:Middlewares/Third_Party/FreeRTOS/Source/CMSIS_RTOS_V2/cmsis_os2.c ****         }
 6166              		.loc 1 1425 0
 6167 00d2 0021     		movs	r1, #0
 6168 00d4 BFE7     		b	.L659
 6169              	.LVL586:
 6170              	.L660:
1376:Middlewares/Third_Party/FreeRTOS/Source/CMSIS_RTOS_V2/cmsis_os2.c **** 
 6171              		.loc 1 1376 0
 6172 00d6 0026     		movs	r6, #0
 6173 00d8 C0E7     		b	.L649
 6174              	.L661:
 6175 00da 0026     		movs	r6, #0
 6176 00dc BEE7     		b	.L649
 6177              	.L663:
 6178 00de 0026     		movs	r6, #0
 6179 00e0 BCE7     		b	.L649
 6180              	.L664:
 6181 00e2 0026     		movs	r6, #0
 6182 00e4 BAE7     		b	.L649
 6183              	.LVL587:
 6184              	.L669:
 6185 00e6 0026     		movs	r6, #0
1433:Middlewares/Third_Party/FreeRTOS/Source/CMSIS_RTOS_V2/cmsis_os2.c **** }
 6186              		.loc 1 1433 0
 6187 00e8 B8E7     		b	.L649
 6188              	.L678:
 6189 00ea 00BF     		.align	2
 6190              	.L677:
 6191 00ec 00000000 		.word	.LANCHOR0
 6192              		.cfi_endproc
 6193              	.LFE98:
 6195              		.section	.text.osSemaphoreAcquire,"ax",%progbits
 6196              		.align	1
 6197              		.global	osSemaphoreAcquire
 6198              		.syntax unified
 6199              		.thumb
 6200              		.thumb_func
 6201              		.fpu softvfp
 6203              	osSemaphoreAcquire:
 6204              	.LFB99:
1435:Middlewares/Third_Party/FreeRTOS/Source/CMSIS_RTOS_V2/cmsis_os2.c **** 
1436:Middlewares/Third_Party/FreeRTOS/Source/CMSIS_RTOS_V2/cmsis_os2.c **** osStatus_t osSemaphoreAcquire (osSemaphoreId_t semaphore_id, uint32_t timeout) {
 6205              		.loc 1 1436 0
 6206              		.cfi_startproc
 6207              		@ args = 0, pretend = 0, frame = 8
 6208              		@ frame_needed = 0, uses_anonymous_args = 0
 6209              	.LVL588:
1437:Middlewares/Third_Party/FreeRTOS/Source/CMSIS_RTOS_V2/cmsis_os2.c ****   SemaphoreHandle_t hSemaphore = (SemaphoreHandle_t)semaphore_id;
1438:Middlewares/Third_Party/FreeRTOS/Source/CMSIS_RTOS_V2/cmsis_os2.c ****   osStatus_t stat;
1439:Middlewares/Third_Party/FreeRTOS/Source/CMSIS_RTOS_V2/cmsis_os2.c ****   BaseType_t yield;
1440:Middlewares/Third_Party/FreeRTOS/Source/CMSIS_RTOS_V2/cmsis_os2.c **** 
1441:Middlewares/Third_Party/FreeRTOS/Source/CMSIS_RTOS_V2/cmsis_os2.c ****   stat = osOK;
1442:Middlewares/Third_Party/FreeRTOS/Source/CMSIS_RTOS_V2/cmsis_os2.c **** 
1443:Middlewares/Third_Party/FreeRTOS/Source/CMSIS_RTOS_V2/cmsis_os2.c ****   if (hSemaphore == NULL) {
 6210              		.loc 1 1443 0
 6211 0000 78B3     		cbz	r0, .L683
ARM GAS  /tmp/cce47g5y.s 			page 157


1436:Middlewares/Third_Party/FreeRTOS/Source/CMSIS_RTOS_V2/cmsis_os2.c ****   SemaphoreHandle_t hSemaphore = (SemaphoreHandle_t)semaphore_id;
 6212              		.loc 1 1436 0
 6213 0002 10B5     		push	{r4, lr}
 6214              	.LCFI103:
 6215              		.cfi_def_cfa_offset 8
 6216              		.cfi_offset 4, -8
 6217              		.cfi_offset 14, -4
 6218 0004 82B0     		sub	sp, sp, #8
 6219              	.LCFI104:
 6220              		.cfi_def_cfa_offset 16
 6221 0006 0C46     		mov	r4, r1
 6222              	.LBB596:
 6223              	.LBB597:
 209:Drivers/CMSIS/Include/cmsis_gcc.h ****   return(result);
 6224              		.loc 2 209 0
 6225              		.syntax unified
 6226              	@ 209 "Drivers/CMSIS/Include/cmsis_gcc.h" 1
 6227 0008 EFF30583 		MRS r3, ipsr
 6228              	@ 0 "" 2
 6229              		.thumb
 6230              		.syntax unified
 6231              	.LBE597:
 6232              	.LBE596:
1444:Middlewares/Third_Party/FreeRTOS/Source/CMSIS_RTOS_V2/cmsis_os2.c ****     stat = osErrorParameter;
1445:Middlewares/Third_Party/FreeRTOS/Source/CMSIS_RTOS_V2/cmsis_os2.c ****   }
1446:Middlewares/Third_Party/FreeRTOS/Source/CMSIS_RTOS_V2/cmsis_os2.c ****   else if (IS_IRQ()) {
 6233              		.loc 1 1446 0
 6234 000c 9BB9     		cbnz	r3, .L681
 6235              	.LBB598:
 6236              	.LBB599:
 386:Drivers/CMSIS/Include/cmsis_gcc.h ****   return(result);
 6237              		.loc 2 386 0
 6238              		.syntax unified
 6239              	@ 386 "Drivers/CMSIS/Include/cmsis_gcc.h" 1
 6240 000e EFF31083 		MRS r3, primask
 6241              	@ 0 "" 2
 6242              		.thumb
 6243              		.syntax unified
 6244              	.LBE599:
 6245              	.LBE598:
 6246              		.loc 1 1446 0
 6247 0012 83B9     		cbnz	r3, .L681
 6248              		.loc 1 1446 0 is_stmt 0 discriminator 2
 6249 0014 1B4B     		ldr	r3, .L694
 6250 0016 1B68     		ldr	r3, [r3]
 6251 0018 022B     		cmp	r3, #2
 6252 001a 08D0     		beq	.L693
 6253              	.L682:
1447:Middlewares/Third_Party/FreeRTOS/Source/CMSIS_RTOS_V2/cmsis_os2.c ****     if (timeout != 0U) {
1448:Middlewares/Third_Party/FreeRTOS/Source/CMSIS_RTOS_V2/cmsis_os2.c ****       stat = osErrorParameter;
1449:Middlewares/Third_Party/FreeRTOS/Source/CMSIS_RTOS_V2/cmsis_os2.c ****     }
1450:Middlewares/Third_Party/FreeRTOS/Source/CMSIS_RTOS_V2/cmsis_os2.c ****     else {
1451:Middlewares/Third_Party/FreeRTOS/Source/CMSIS_RTOS_V2/cmsis_os2.c ****       yield = pdFALSE;
1452:Middlewares/Third_Party/FreeRTOS/Source/CMSIS_RTOS_V2/cmsis_os2.c **** 
1453:Middlewares/Third_Party/FreeRTOS/Source/CMSIS_RTOS_V2/cmsis_os2.c ****       if (xSemaphoreTakeFromISR (hSemaphore, &yield) != pdPASS) {
1454:Middlewares/Third_Party/FreeRTOS/Source/CMSIS_RTOS_V2/cmsis_os2.c ****         stat = osErrorResource;
1455:Middlewares/Third_Party/FreeRTOS/Source/CMSIS_RTOS_V2/cmsis_os2.c ****       } else {
ARM GAS  /tmp/cce47g5y.s 			page 158


1456:Middlewares/Third_Party/FreeRTOS/Source/CMSIS_RTOS_V2/cmsis_os2.c ****         portYIELD_FROM_ISR (yield);
1457:Middlewares/Third_Party/FreeRTOS/Source/CMSIS_RTOS_V2/cmsis_os2.c ****       }
1458:Middlewares/Third_Party/FreeRTOS/Source/CMSIS_RTOS_V2/cmsis_os2.c ****     }
1459:Middlewares/Third_Party/FreeRTOS/Source/CMSIS_RTOS_V2/cmsis_os2.c ****   }
1460:Middlewares/Third_Party/FreeRTOS/Source/CMSIS_RTOS_V2/cmsis_os2.c ****   else {
1461:Middlewares/Third_Party/FreeRTOS/Source/CMSIS_RTOS_V2/cmsis_os2.c ****     if (xSemaphoreTake (hSemaphore, (TickType_t)timeout) != pdPASS) {
 6254              		.loc 1 1461 0 is_stmt 1
 6255 001c 2146     		mov	r1, r4
 6256              	.LVL589:
 6257 001e FFF7FEFF 		bl	xQueueSemaphoreTake
 6258              	.LVL590:
 6259 0022 0128     		cmp	r0, #1
 6260 0024 28D0     		beq	.L687
1462:Middlewares/Third_Party/FreeRTOS/Source/CMSIS_RTOS_V2/cmsis_os2.c ****       if (timeout != 0U) {
 6261              		.loc 1 1462 0
 6262 0026 4CB3     		cbz	r4, .L688
1463:Middlewares/Third_Party/FreeRTOS/Source/CMSIS_RTOS_V2/cmsis_os2.c ****         stat = osErrorTimeout;
 6263              		.loc 1 1463 0
 6264 0028 6FF00100 		mvn	r0, #1
 6265 002c 17E0     		b	.L679
 6266              	.LVL591:
 6267              	.L693:
 6268              	.LBB600:
 6269              	.LBB601:
 6270              		.loc 2 465 0
 6271              		.syntax unified
 6272              	@ 465 "Drivers/CMSIS/Include/cmsis_gcc.h" 1
 6273 002e EFF31183 		MRS r3, basepri
 6274              	@ 0 "" 2
 6275              		.thumb
 6276              		.syntax unified
 6277              	.LBE601:
 6278              	.LBE600:
1446:Middlewares/Third_Party/FreeRTOS/Source/CMSIS_RTOS_V2/cmsis_os2.c ****     if (timeout != 0U) {
 6279              		.loc 1 1446 0
 6280 0032 002B     		cmp	r3, #0
 6281 0034 F2D0     		beq	.L682
 6282              	.L681:
1447:Middlewares/Third_Party/FreeRTOS/Source/CMSIS_RTOS_V2/cmsis_os2.c ****       stat = osErrorParameter;
 6283              		.loc 1 1447 0
 6284 0036 BCB9     		cbnz	r4, .L684
1451:Middlewares/Third_Party/FreeRTOS/Source/CMSIS_RTOS_V2/cmsis_os2.c **** 
 6285              		.loc 1 1451 0
 6286 0038 0021     		movs	r1, #0
 6287              	.LVL592:
 6288 003a 02AA     		add	r2, sp, #8
 6289 003c 42F8041D 		str	r1, [r2, #-4]!
1453:Middlewares/Third_Party/FreeRTOS/Source/CMSIS_RTOS_V2/cmsis_os2.c ****         stat = osErrorResource;
 6290              		.loc 1 1453 0
 6291 0040 FFF7FEFF 		bl	xQueueReceiveFromISR
 6292              	.LVL593:
 6293 0044 0128     		cmp	r0, #1
 6294 0046 12D1     		bne	.L685
1456:Middlewares/Third_Party/FreeRTOS/Source/CMSIS_RTOS_V2/cmsis_os2.c ****       }
 6295              		.loc 1 1456 0
 6296 0048 019B     		ldr	r3, [sp, #4]
 6297 004a 9BB1     		cbz	r3, .L686
ARM GAS  /tmp/cce47g5y.s 			page 159


1456:Middlewares/Third_Party/FreeRTOS/Source/CMSIS_RTOS_V2/cmsis_os2.c ****       }
 6298              		.loc 1 1456 0 is_stmt 0 discriminator 1
 6299 004c 4FF08052 		mov	r2, #268435456
 6300 0050 0D4B     		ldr	r3, .L694+4
 6301 0052 1A60     		str	r2, [r3]
 6302              		.syntax unified
 6303              	@ 1456 "Middlewares/Third_Party/FreeRTOS/Source/CMSIS_RTOS_V2/cmsis_os2.c" 1
 6304 0054 BFF34F8F 		dsb
 6305              	@ 0 "" 2
 6306              	@ 1456 "Middlewares/Third_Party/FreeRTOS/Source/CMSIS_RTOS_V2/cmsis_os2.c" 1
 6307 0058 BFF36F8F 		isb
 6308              	@ 0 "" 2
1441:Middlewares/Third_Party/FreeRTOS/Source/CMSIS_RTOS_V2/cmsis_os2.c **** 
 6309              		.loc 1 1441 0 is_stmt 1 discriminator 1
 6310              		.thumb
 6311              		.syntax unified
 6312 005c 0020     		movs	r0, #0
 6313              	.LVL594:
 6314              	.L679:
1464:Middlewares/Third_Party/FreeRTOS/Source/CMSIS_RTOS_V2/cmsis_os2.c ****       } else {
1465:Middlewares/Third_Party/FreeRTOS/Source/CMSIS_RTOS_V2/cmsis_os2.c ****         stat = osErrorResource;
1466:Middlewares/Third_Party/FreeRTOS/Source/CMSIS_RTOS_V2/cmsis_os2.c ****       }
1467:Middlewares/Third_Party/FreeRTOS/Source/CMSIS_RTOS_V2/cmsis_os2.c ****     }
1468:Middlewares/Third_Party/FreeRTOS/Source/CMSIS_RTOS_V2/cmsis_os2.c ****   }
1469:Middlewares/Third_Party/FreeRTOS/Source/CMSIS_RTOS_V2/cmsis_os2.c **** 
1470:Middlewares/Third_Party/FreeRTOS/Source/CMSIS_RTOS_V2/cmsis_os2.c ****   return (stat);
1471:Middlewares/Third_Party/FreeRTOS/Source/CMSIS_RTOS_V2/cmsis_os2.c **** }
 6315              		.loc 1 1471 0
 6316 005e 02B0     		add	sp, sp, #8
 6317              	.LCFI105:
 6318              		.cfi_def_cfa_offset 8
 6319              		@ sp needed
 6320 0060 10BD     		pop	{r4, pc}
 6321              	.LVL595:
 6322              	.L683:
 6323              	.LCFI106:
 6324              		.cfi_def_cfa_offset 0
 6325              		.cfi_restore 4
 6326              		.cfi_restore 14
1444:Middlewares/Third_Party/FreeRTOS/Source/CMSIS_RTOS_V2/cmsis_os2.c ****   }
 6327              		.loc 1 1444 0
 6328 0062 6FF00300 		mvn	r0, #3
 6329              	.LVL596:
 6330 0066 7047     		bx	lr
 6331              	.LVL597:
 6332              	.L684:
 6333              	.LCFI107:
 6334              		.cfi_def_cfa_offset 16
 6335              		.cfi_offset 4, -8
 6336              		.cfi_offset 14, -4
1448:Middlewares/Third_Party/FreeRTOS/Source/CMSIS_RTOS_V2/cmsis_os2.c ****     }
 6337              		.loc 1 1448 0
 6338 0068 6FF00300 		mvn	r0, #3
 6339              	.LVL598:
 6340 006c F7E7     		b	.L679
 6341              	.LVL599:
 6342              	.L685:
ARM GAS  /tmp/cce47g5y.s 			page 160


1454:Middlewares/Third_Party/FreeRTOS/Source/CMSIS_RTOS_V2/cmsis_os2.c ****       } else {
 6343              		.loc 1 1454 0
 6344 006e 6FF00200 		mvn	r0, #2
 6345 0072 F4E7     		b	.L679
 6346              	.L686:
1441:Middlewares/Third_Party/FreeRTOS/Source/CMSIS_RTOS_V2/cmsis_os2.c **** 
 6347              		.loc 1 1441 0
 6348 0074 0020     		movs	r0, #0
 6349 0076 F2E7     		b	.L679
 6350              	.L687:
 6351 0078 0020     		movs	r0, #0
 6352 007a F0E7     		b	.L679
 6353              	.L688:
1465:Middlewares/Third_Party/FreeRTOS/Source/CMSIS_RTOS_V2/cmsis_os2.c ****       }
 6354              		.loc 1 1465 0
 6355 007c 6FF00200 		mvn	r0, #2
 6356              	.LVL600:
1470:Middlewares/Third_Party/FreeRTOS/Source/CMSIS_RTOS_V2/cmsis_os2.c **** }
 6357              		.loc 1 1470 0
 6358 0080 EDE7     		b	.L679
 6359              	.L695:
 6360 0082 00BF     		.align	2
 6361              	.L694:
 6362 0084 00000000 		.word	.LANCHOR0
 6363 0088 04ED00E0 		.word	-536810236
 6364              		.cfi_endproc
 6365              	.LFE99:
 6367              		.section	.text.osSemaphoreRelease,"ax",%progbits
 6368              		.align	1
 6369              		.global	osSemaphoreRelease
 6370              		.syntax unified
 6371              		.thumb
 6372              		.thumb_func
 6373              		.fpu softvfp
 6375              	osSemaphoreRelease:
 6376              	.LFB100:
1472:Middlewares/Third_Party/FreeRTOS/Source/CMSIS_RTOS_V2/cmsis_os2.c **** 
1473:Middlewares/Third_Party/FreeRTOS/Source/CMSIS_RTOS_V2/cmsis_os2.c **** osStatus_t osSemaphoreRelease (osSemaphoreId_t semaphore_id) {
 6377              		.loc 1 1473 0
 6378              		.cfi_startproc
 6379              		@ args = 0, pretend = 0, frame = 8
 6380              		@ frame_needed = 0, uses_anonymous_args = 0
 6381              	.LVL601:
1474:Middlewares/Third_Party/FreeRTOS/Source/CMSIS_RTOS_V2/cmsis_os2.c ****   SemaphoreHandle_t hSemaphore = (SemaphoreHandle_t)semaphore_id;
1475:Middlewares/Third_Party/FreeRTOS/Source/CMSIS_RTOS_V2/cmsis_os2.c ****   osStatus_t stat;
1476:Middlewares/Third_Party/FreeRTOS/Source/CMSIS_RTOS_V2/cmsis_os2.c ****   BaseType_t yield;
1477:Middlewares/Third_Party/FreeRTOS/Source/CMSIS_RTOS_V2/cmsis_os2.c **** 
1478:Middlewares/Third_Party/FreeRTOS/Source/CMSIS_RTOS_V2/cmsis_os2.c ****   stat = osOK;
1479:Middlewares/Third_Party/FreeRTOS/Source/CMSIS_RTOS_V2/cmsis_os2.c **** 
1480:Middlewares/Third_Party/FreeRTOS/Source/CMSIS_RTOS_V2/cmsis_os2.c ****   if (hSemaphore == NULL) {
 6382              		.loc 1 1480 0
 6383 0000 70B3     		cbz	r0, .L700
1473:Middlewares/Third_Party/FreeRTOS/Source/CMSIS_RTOS_V2/cmsis_os2.c ****   SemaphoreHandle_t hSemaphore = (SemaphoreHandle_t)semaphore_id;
 6384              		.loc 1 1473 0
 6385 0002 00B5     		push	{lr}
 6386              	.LCFI108:
 6387              		.cfi_def_cfa_offset 4
ARM GAS  /tmp/cce47g5y.s 			page 161


 6388              		.cfi_offset 14, -4
 6389 0004 83B0     		sub	sp, sp, #12
 6390              	.LCFI109:
 6391              		.cfi_def_cfa_offset 16
 6392              	.LBB602:
 6393              	.LBB603:
 209:Drivers/CMSIS/Include/cmsis_gcc.h ****   return(result);
 6394              		.loc 2 209 0
 6395              		.syntax unified
 6396              	@ 209 "Drivers/CMSIS/Include/cmsis_gcc.h" 1
 6397 0006 EFF30583 		MRS r3, ipsr
 6398              	@ 0 "" 2
 6399              		.thumb
 6400              		.syntax unified
 6401              	.LBE603:
 6402              	.LBE602:
1481:Middlewares/Third_Party/FreeRTOS/Source/CMSIS_RTOS_V2/cmsis_os2.c ****     stat = osErrorParameter;
1482:Middlewares/Third_Party/FreeRTOS/Source/CMSIS_RTOS_V2/cmsis_os2.c ****   }
1483:Middlewares/Third_Party/FreeRTOS/Source/CMSIS_RTOS_V2/cmsis_os2.c ****   else if (IS_IRQ()) {
 6403              		.loc 1 1483 0
 6404 000a 9BB9     		cbnz	r3, .L698
 6405              	.LBB604:
 6406              	.LBB605:
 386:Drivers/CMSIS/Include/cmsis_gcc.h ****   return(result);
 6407              		.loc 2 386 0
 6408              		.syntax unified
 6409              	@ 386 "Drivers/CMSIS/Include/cmsis_gcc.h" 1
 6410 000c EFF31083 		MRS r3, primask
 6411              	@ 0 "" 2
 6412              		.thumb
 6413              		.syntax unified
 6414              	.LBE605:
 6415              	.LBE604:
 6416              		.loc 1 1483 0
 6417 0010 83B9     		cbnz	r3, .L698
 6418              		.loc 1 1483 0 is_stmt 0 discriminator 2
 6419 0012 194B     		ldr	r3, .L709
 6420 0014 1B68     		ldr	r3, [r3]
 6421 0016 022B     		cmp	r3, #2
 6422 0018 08D0     		beq	.L708
 6423              	.L699:
1484:Middlewares/Third_Party/FreeRTOS/Source/CMSIS_RTOS_V2/cmsis_os2.c ****     yield = pdFALSE;
1485:Middlewares/Third_Party/FreeRTOS/Source/CMSIS_RTOS_V2/cmsis_os2.c **** 
1486:Middlewares/Third_Party/FreeRTOS/Source/CMSIS_RTOS_V2/cmsis_os2.c ****     if (xSemaphoreGiveFromISR (hSemaphore, &yield) != pdTRUE) {
1487:Middlewares/Third_Party/FreeRTOS/Source/CMSIS_RTOS_V2/cmsis_os2.c ****       stat = osErrorResource;
1488:Middlewares/Third_Party/FreeRTOS/Source/CMSIS_RTOS_V2/cmsis_os2.c ****     } else {
1489:Middlewares/Third_Party/FreeRTOS/Source/CMSIS_RTOS_V2/cmsis_os2.c ****       portYIELD_FROM_ISR (yield);
1490:Middlewares/Third_Party/FreeRTOS/Source/CMSIS_RTOS_V2/cmsis_os2.c ****     }
1491:Middlewares/Third_Party/FreeRTOS/Source/CMSIS_RTOS_V2/cmsis_os2.c ****   }
1492:Middlewares/Third_Party/FreeRTOS/Source/CMSIS_RTOS_V2/cmsis_os2.c ****   else {
1493:Middlewares/Third_Party/FreeRTOS/Source/CMSIS_RTOS_V2/cmsis_os2.c ****     if (xSemaphoreGive (hSemaphore) != pdPASS) {
 6424              		.loc 1 1493 0 is_stmt 1
 6425 001a 0023     		movs	r3, #0
 6426 001c 1A46     		mov	r2, r3
 6427 001e 1946     		mov	r1, r3
 6428 0020 FFF7FEFF 		bl	xQueueGenericSend
 6429              	.LVL602:
ARM GAS  /tmp/cce47g5y.s 			page 162


 6430 0024 0128     		cmp	r0, #1
 6431 0026 23D1     		bne	.L703
1478:Middlewares/Third_Party/FreeRTOS/Source/CMSIS_RTOS_V2/cmsis_os2.c **** 
 6432              		.loc 1 1478 0
 6433 0028 0020     		movs	r0, #0
 6434 002a 16E0     		b	.L696
 6435              	.LVL603:
 6436              	.L708:
 6437              	.LBB606:
 6438              	.LBB607:
 6439              		.loc 2 465 0
 6440              		.syntax unified
 6441              	@ 465 "Drivers/CMSIS/Include/cmsis_gcc.h" 1
 6442 002c EFF31183 		MRS r3, basepri
 6443              	@ 0 "" 2
 6444              		.thumb
 6445              		.syntax unified
 6446              	.LBE607:
 6447              	.LBE606:
1483:Middlewares/Third_Party/FreeRTOS/Source/CMSIS_RTOS_V2/cmsis_os2.c ****     yield = pdFALSE;
 6448              		.loc 1 1483 0
 6449 0030 002B     		cmp	r3, #0
 6450 0032 F2D0     		beq	.L699
 6451              	.L698:
1484:Middlewares/Third_Party/FreeRTOS/Source/CMSIS_RTOS_V2/cmsis_os2.c ****     yield = pdFALSE;
 6452              		.loc 1 1484 0
 6453 0034 02A9     		add	r1, sp, #8
 6454 0036 0023     		movs	r3, #0
 6455 0038 41F8043D 		str	r3, [r1, #-4]!
1486:Middlewares/Third_Party/FreeRTOS/Source/CMSIS_RTOS_V2/cmsis_os2.c ****       stat = osErrorResource;
 6456              		.loc 1 1486 0
 6457 003c FFF7FEFF 		bl	xQueueGiveFromISR
 6458              	.LVL604:
 6459 0040 0128     		cmp	r0, #1
 6460 0042 10D1     		bne	.L701
1489:Middlewares/Third_Party/FreeRTOS/Source/CMSIS_RTOS_V2/cmsis_os2.c ****     }
 6461              		.loc 1 1489 0
 6462 0044 019B     		ldr	r3, [sp, #4]
 6463 0046 8BB1     		cbz	r3, .L702
1489:Middlewares/Third_Party/FreeRTOS/Source/CMSIS_RTOS_V2/cmsis_os2.c ****     }
 6464              		.loc 1 1489 0 is_stmt 0 discriminator 1
 6465 0048 4FF08052 		mov	r2, #268435456
 6466 004c 0B4B     		ldr	r3, .L709+4
 6467 004e 1A60     		str	r2, [r3]
 6468              		.syntax unified
 6469              	@ 1489 "Middlewares/Third_Party/FreeRTOS/Source/CMSIS_RTOS_V2/cmsis_os2.c" 1
 6470 0050 BFF34F8F 		dsb
 6471              	@ 0 "" 2
 6472              	@ 1489 "Middlewares/Third_Party/FreeRTOS/Source/CMSIS_RTOS_V2/cmsis_os2.c" 1
 6473 0054 BFF36F8F 		isb
 6474              	@ 0 "" 2
1478:Middlewares/Third_Party/FreeRTOS/Source/CMSIS_RTOS_V2/cmsis_os2.c **** 
 6475              		.loc 1 1478 0 is_stmt 1 discriminator 1
 6476              		.thumb
 6477              		.syntax unified
 6478 0058 0020     		movs	r0, #0
 6479              	.LVL605:
ARM GAS  /tmp/cce47g5y.s 			page 163


 6480              	.L696:
1494:Middlewares/Third_Party/FreeRTOS/Source/CMSIS_RTOS_V2/cmsis_os2.c ****       stat = osErrorResource;
1495:Middlewares/Third_Party/FreeRTOS/Source/CMSIS_RTOS_V2/cmsis_os2.c ****     }
1496:Middlewares/Third_Party/FreeRTOS/Source/CMSIS_RTOS_V2/cmsis_os2.c ****   }
1497:Middlewares/Third_Party/FreeRTOS/Source/CMSIS_RTOS_V2/cmsis_os2.c **** 
1498:Middlewares/Third_Party/FreeRTOS/Source/CMSIS_RTOS_V2/cmsis_os2.c ****   return (stat);
1499:Middlewares/Third_Party/FreeRTOS/Source/CMSIS_RTOS_V2/cmsis_os2.c **** }
 6481              		.loc 1 1499 0
 6482 005a 03B0     		add	sp, sp, #12
 6483              	.LCFI110:
 6484              		.cfi_def_cfa_offset 4
 6485              		@ sp needed
 6486 005c 5DF804FB 		ldr	pc, [sp], #4
 6487              	.LVL606:
 6488              	.L700:
 6489              	.LCFI111:
 6490              		.cfi_def_cfa_offset 0
 6491              		.cfi_restore 14
1481:Middlewares/Third_Party/FreeRTOS/Source/CMSIS_RTOS_V2/cmsis_os2.c ****   }
 6492              		.loc 1 1481 0
 6493 0060 6FF00300 		mvn	r0, #3
 6494              	.LVL607:
 6495 0064 7047     		bx	lr
 6496              	.L701:
 6497              	.LCFI112:
 6498              		.cfi_def_cfa_offset 16
 6499              		.cfi_offset 14, -4
1487:Middlewares/Third_Party/FreeRTOS/Source/CMSIS_RTOS_V2/cmsis_os2.c ****     } else {
 6500              		.loc 1 1487 0
 6501 0066 6FF00200 		mvn	r0, #2
 6502 006a F6E7     		b	.L696
 6503              	.L702:
1478:Middlewares/Third_Party/FreeRTOS/Source/CMSIS_RTOS_V2/cmsis_os2.c **** 
 6504              		.loc 1 1478 0
 6505 006c 0020     		movs	r0, #0
 6506 006e F4E7     		b	.L696
 6507              	.L703:
1494:Middlewares/Third_Party/FreeRTOS/Source/CMSIS_RTOS_V2/cmsis_os2.c ****     }
 6508              		.loc 1 1494 0
 6509 0070 6FF00200 		mvn	r0, #2
 6510              	.LVL608:
1498:Middlewares/Third_Party/FreeRTOS/Source/CMSIS_RTOS_V2/cmsis_os2.c **** }
 6511              		.loc 1 1498 0
 6512 0074 F1E7     		b	.L696
 6513              	.L710:
 6514 0076 00BF     		.align	2
 6515              	.L709:
 6516 0078 00000000 		.word	.LANCHOR0
 6517 007c 04ED00E0 		.word	-536810236
 6518              		.cfi_endproc
 6519              	.LFE100:
 6521              		.section	.text.osSemaphoreGetCount,"ax",%progbits
 6522              		.align	1
 6523              		.global	osSemaphoreGetCount
 6524              		.syntax unified
 6525              		.thumb
 6526              		.thumb_func
ARM GAS  /tmp/cce47g5y.s 			page 164


 6527              		.fpu softvfp
 6529              	osSemaphoreGetCount:
 6530              	.LFB101:
1500:Middlewares/Third_Party/FreeRTOS/Source/CMSIS_RTOS_V2/cmsis_os2.c **** 
1501:Middlewares/Third_Party/FreeRTOS/Source/CMSIS_RTOS_V2/cmsis_os2.c **** uint32_t osSemaphoreGetCount (osSemaphoreId_t semaphore_id) {
 6531              		.loc 1 1501 0
 6532              		.cfi_startproc
 6533              		@ args = 0, pretend = 0, frame = 0
 6534              		@ frame_needed = 0, uses_anonymous_args = 0
 6535              	.LVL609:
1502:Middlewares/Third_Party/FreeRTOS/Source/CMSIS_RTOS_V2/cmsis_os2.c ****   SemaphoreHandle_t hSemaphore = (SemaphoreHandle_t)semaphore_id;
1503:Middlewares/Third_Party/FreeRTOS/Source/CMSIS_RTOS_V2/cmsis_os2.c ****   uint32_t count;
1504:Middlewares/Third_Party/FreeRTOS/Source/CMSIS_RTOS_V2/cmsis_os2.c **** 
1505:Middlewares/Third_Party/FreeRTOS/Source/CMSIS_RTOS_V2/cmsis_os2.c ****   if (hSemaphore == NULL) {
 6536              		.loc 1 1505 0
 6537 0000 A0B1     		cbz	r0, .L715
1501:Middlewares/Third_Party/FreeRTOS/Source/CMSIS_RTOS_V2/cmsis_os2.c ****   SemaphoreHandle_t hSemaphore = (SemaphoreHandle_t)semaphore_id;
 6538              		.loc 1 1501 0
 6539 0002 08B5     		push	{r3, lr}
 6540              	.LCFI113:
 6541              		.cfi_def_cfa_offset 8
 6542              		.cfi_offset 3, -8
 6543              		.cfi_offset 14, -4
 6544              	.LBB608:
 6545              	.LBB609:
 209:Drivers/CMSIS/Include/cmsis_gcc.h ****   return(result);
 6546              		.loc 2 209 0
 6547              		.syntax unified
 6548              	@ 209 "Drivers/CMSIS/Include/cmsis_gcc.h" 1
 6549 0004 EFF30583 		MRS r3, ipsr
 6550              	@ 0 "" 2
 6551              		.thumb
 6552              		.syntax unified
 6553              	.LBE609:
 6554              	.LBE608:
1506:Middlewares/Third_Party/FreeRTOS/Source/CMSIS_RTOS_V2/cmsis_os2.c ****     count = 0U;
1507:Middlewares/Third_Party/FreeRTOS/Source/CMSIS_RTOS_V2/cmsis_os2.c ****   }
1508:Middlewares/Third_Party/FreeRTOS/Source/CMSIS_RTOS_V2/cmsis_os2.c ****   else if (IS_IRQ()) {
 6555              		.loc 1 1508 0
 6556 0008 6BB9     		cbnz	r3, .L713
 6557              	.LBB610:
 6558              	.LBB611:
 386:Drivers/CMSIS/Include/cmsis_gcc.h ****   return(result);
 6559              		.loc 2 386 0
 6560              		.syntax unified
 6561              	@ 386 "Drivers/CMSIS/Include/cmsis_gcc.h" 1
 6562 000a EFF31083 		MRS r3, primask
 6563              	@ 0 "" 2
 6564              		.thumb
 6565              		.syntax unified
 6566              	.LBE611:
 6567              	.LBE610:
 6568              		.loc 1 1508 0
 6569 000e 53B9     		cbnz	r3, .L713
 6570              		.loc 1 1508 0 is_stmt 0 discriminator 2
 6571 0010 074B     		ldr	r3, .L721
 6572 0012 1B68     		ldr	r3, [r3]
ARM GAS  /tmp/cce47g5y.s 			page 165


 6573 0014 022B     		cmp	r3, #2
 6574 0016 02D0     		beq	.L720
 6575              	.L714:
1509:Middlewares/Third_Party/FreeRTOS/Source/CMSIS_RTOS_V2/cmsis_os2.c ****     count = uxQueueMessagesWaitingFromISR (hSemaphore);
1510:Middlewares/Third_Party/FreeRTOS/Source/CMSIS_RTOS_V2/cmsis_os2.c ****   } else {
1511:Middlewares/Third_Party/FreeRTOS/Source/CMSIS_RTOS_V2/cmsis_os2.c ****     count = (uint32_t)uxSemaphoreGetCount (hSemaphore);
 6576              		.loc 1 1511 0 is_stmt 1
 6577 0018 FFF7FEFF 		bl	uxQueueMessagesWaiting
 6578              	.LVL610:
 6579 001c 08BD     		pop	{r3, pc}
 6580              	.LVL611:
 6581              	.L720:
 6582              	.LBB612:
 6583              	.LBB613:
 6584              		.loc 2 465 0
 6585              		.syntax unified
 6586              	@ 465 "Drivers/CMSIS/Include/cmsis_gcc.h" 1
 6587 001e EFF31183 		MRS r3, basepri
 6588              	@ 0 "" 2
 6589              		.thumb
 6590              		.syntax unified
 6591              	.LBE613:
 6592              	.LBE612:
1508:Middlewares/Third_Party/FreeRTOS/Source/CMSIS_RTOS_V2/cmsis_os2.c ****     count = uxQueueMessagesWaitingFromISR (hSemaphore);
 6593              		.loc 1 1508 0
 6594 0022 002B     		cmp	r3, #0
 6595 0024 F8D0     		beq	.L714
 6596              	.L713:
1509:Middlewares/Third_Party/FreeRTOS/Source/CMSIS_RTOS_V2/cmsis_os2.c ****     count = uxQueueMessagesWaitingFromISR (hSemaphore);
 6597              		.loc 1 1509 0
 6598 0026 FFF7FEFF 		bl	uxQueueMessagesWaitingFromISR
 6599              	.LVL612:
 6600 002a 08BD     		pop	{r3, pc}
 6601              	.LVL613:
 6602              	.L715:
 6603              	.LCFI114:
 6604              		.cfi_def_cfa_offset 0
 6605              		.cfi_restore 3
 6606              		.cfi_restore 14
1506:Middlewares/Third_Party/FreeRTOS/Source/CMSIS_RTOS_V2/cmsis_os2.c ****   }
 6607              		.loc 1 1506 0
 6608 002c 0020     		movs	r0, #0
 6609              	.LVL614:
1512:Middlewares/Third_Party/FreeRTOS/Source/CMSIS_RTOS_V2/cmsis_os2.c ****   }
1513:Middlewares/Third_Party/FreeRTOS/Source/CMSIS_RTOS_V2/cmsis_os2.c **** 
1514:Middlewares/Third_Party/FreeRTOS/Source/CMSIS_RTOS_V2/cmsis_os2.c ****   return (count);
 6610              		.loc 1 1514 0
 6611 002e 7047     		bx	lr
 6612              	.L722:
 6613              		.align	2
 6614              	.L721:
 6615 0030 00000000 		.word	.LANCHOR0
 6616              		.cfi_endproc
 6617              	.LFE101:
 6619              		.section	.text.osSemaphoreDelete,"ax",%progbits
 6620              		.align	1
 6621              		.global	osSemaphoreDelete
ARM GAS  /tmp/cce47g5y.s 			page 166


 6622              		.syntax unified
 6623              		.thumb
 6624              		.thumb_func
 6625              		.fpu softvfp
 6627              	osSemaphoreDelete:
 6628              	.LFB102:
1515:Middlewares/Third_Party/FreeRTOS/Source/CMSIS_RTOS_V2/cmsis_os2.c **** }
1516:Middlewares/Third_Party/FreeRTOS/Source/CMSIS_RTOS_V2/cmsis_os2.c **** 
1517:Middlewares/Third_Party/FreeRTOS/Source/CMSIS_RTOS_V2/cmsis_os2.c **** osStatus_t osSemaphoreDelete (osSemaphoreId_t semaphore_id) {
 6629              		.loc 1 1517 0
 6630              		.cfi_startproc
 6631              		@ args = 0, pretend = 0, frame = 0
 6632              		@ frame_needed = 0, uses_anonymous_args = 0
 6633              	.LVL615:
 6634              	.LBB614:
 6635              	.LBB615:
 209:Drivers/CMSIS/Include/cmsis_gcc.h ****   return(result);
 6636              		.loc 2 209 0
 6637              		.syntax unified
 6638              	@ 209 "Drivers/CMSIS/Include/cmsis_gcc.h" 1
 6639 0000 EFF30583 		MRS r3, ipsr
 6640              	@ 0 "" 2
 6641              		.thumb
 6642              		.syntax unified
 6643              	.LBE615:
 6644              	.LBE614:
1518:Middlewares/Third_Party/FreeRTOS/Source/CMSIS_RTOS_V2/cmsis_os2.c ****   SemaphoreHandle_t hSemaphore = (SemaphoreHandle_t)semaphore_id;
1519:Middlewares/Third_Party/FreeRTOS/Source/CMSIS_RTOS_V2/cmsis_os2.c ****   osStatus_t stat;
1520:Middlewares/Third_Party/FreeRTOS/Source/CMSIS_RTOS_V2/cmsis_os2.c **** 
1521:Middlewares/Third_Party/FreeRTOS/Source/CMSIS_RTOS_V2/cmsis_os2.c **** #ifndef USE_FreeRTOS_HEAP_1
1522:Middlewares/Third_Party/FreeRTOS/Source/CMSIS_RTOS_V2/cmsis_os2.c ****   if (IS_IRQ()) {
 6645              		.loc 1 1522 0
 6646 0004 BBB9     		cbnz	r3, .L726
 6647              	.LBB616:
 6648              	.LBB617:
 386:Drivers/CMSIS/Include/cmsis_gcc.h ****   return(result);
 6649              		.loc 2 386 0
 6650              		.syntax unified
 6651              	@ 386 "Drivers/CMSIS/Include/cmsis_gcc.h" 1
 6652 0006 EFF31083 		MRS r3, primask
 6653              	@ 0 "" 2
 6654              		.thumb
 6655              		.syntax unified
 6656              	.LBE617:
 6657              	.LBE616:
 6658              		.loc 1 1522 0
 6659 000a BBB9     		cbnz	r3, .L727
 6660              		.loc 1 1522 0 is_stmt 0 discriminator 2
 6661 000c 0E4B     		ldr	r3, .L735
 6662 000e 1B68     		ldr	r3, [r3]
 6663 0010 022B     		cmp	r3, #2
 6664 0012 09D0     		beq	.L734
 6665              	.L725:
1523:Middlewares/Third_Party/FreeRTOS/Source/CMSIS_RTOS_V2/cmsis_os2.c ****     stat = osErrorISR;
1524:Middlewares/Third_Party/FreeRTOS/Source/CMSIS_RTOS_V2/cmsis_os2.c ****   }
1525:Middlewares/Third_Party/FreeRTOS/Source/CMSIS_RTOS_V2/cmsis_os2.c ****   else if (hSemaphore == NULL) {
 6666              		.loc 1 1525 0 is_stmt 1
ARM GAS  /tmp/cce47g5y.s 			page 167


 6667 0014 A8B1     		cbz	r0, .L729
1517:Middlewares/Third_Party/FreeRTOS/Source/CMSIS_RTOS_V2/cmsis_os2.c ****   SemaphoreHandle_t hSemaphore = (SemaphoreHandle_t)semaphore_id;
 6668              		.loc 1 1517 0
 6669 0016 10B5     		push	{r4, lr}
 6670              	.LCFI115:
 6671              		.cfi_def_cfa_offset 8
 6672              		.cfi_offset 4, -8
 6673              		.cfi_offset 14, -4
 6674 0018 0446     		mov	r4, r0
1526:Middlewares/Third_Party/FreeRTOS/Source/CMSIS_RTOS_V2/cmsis_os2.c ****     stat = osErrorParameter;
1527:Middlewares/Third_Party/FreeRTOS/Source/CMSIS_RTOS_V2/cmsis_os2.c ****   }
1528:Middlewares/Third_Party/FreeRTOS/Source/CMSIS_RTOS_V2/cmsis_os2.c ****   else {
1529:Middlewares/Third_Party/FreeRTOS/Source/CMSIS_RTOS_V2/cmsis_os2.c ****     #if (configQUEUE_REGISTRY_SIZE > 0)
1530:Middlewares/Third_Party/FreeRTOS/Source/CMSIS_RTOS_V2/cmsis_os2.c ****     vQueueUnregisterQueue (hSemaphore);
 6675              		.loc 1 1530 0
 6676 001a FFF7FEFF 		bl	vQueueUnregisterQueue
 6677              	.LVL616:
1531:Middlewares/Third_Party/FreeRTOS/Source/CMSIS_RTOS_V2/cmsis_os2.c ****     #endif
1532:Middlewares/Third_Party/FreeRTOS/Source/CMSIS_RTOS_V2/cmsis_os2.c **** 
1533:Middlewares/Third_Party/FreeRTOS/Source/CMSIS_RTOS_V2/cmsis_os2.c ****     stat = osOK;
1534:Middlewares/Third_Party/FreeRTOS/Source/CMSIS_RTOS_V2/cmsis_os2.c ****     vSemaphoreDelete (hSemaphore);
 6678              		.loc 1 1534 0
 6679 001e 2046     		mov	r0, r4
 6680 0020 FFF7FEFF 		bl	vQueueDelete
 6681              	.LVL617:
1533:Middlewares/Third_Party/FreeRTOS/Source/CMSIS_RTOS_V2/cmsis_os2.c ****     vSemaphoreDelete (hSemaphore);
 6682              		.loc 1 1533 0
 6683 0024 0020     		movs	r0, #0
 6684 0026 10BD     		pop	{r4, pc}
 6685              	.LVL618:
 6686              	.L734:
 6687              	.LCFI116:
 6688              		.cfi_def_cfa_offset 0
 6689              		.cfi_restore 4
 6690              		.cfi_restore 14
 6691              	.LBB618:
 6692              	.LBB619:
 6693              		.loc 2 465 0
 6694              		.syntax unified
 6695              	@ 465 "Drivers/CMSIS/Include/cmsis_gcc.h" 1
 6696 0028 EFF31183 		MRS r3, basepri
 6697              	@ 0 "" 2
 6698              		.thumb
 6699              		.syntax unified
 6700              	.LBE619:
 6701              	.LBE618:
1522:Middlewares/Third_Party/FreeRTOS/Source/CMSIS_RTOS_V2/cmsis_os2.c ****     stat = osErrorISR;
 6702              		.loc 1 1522 0
 6703 002c 002B     		cmp	r3, #0
 6704 002e F1D0     		beq	.L725
1523:Middlewares/Third_Party/FreeRTOS/Source/CMSIS_RTOS_V2/cmsis_os2.c ****   }
 6705              		.loc 1 1523 0
 6706 0030 6FF00500 		mvn	r0, #5
 6707              	.LVL619:
 6708 0034 7047     		bx	lr
 6709              	.LVL620:
 6710              	.L726:
ARM GAS  /tmp/cce47g5y.s 			page 168


 6711 0036 6FF00500 		mvn	r0, #5
 6712              	.LVL621:
 6713 003a 7047     		bx	lr
 6714              	.LVL622:
 6715              	.L727:
 6716 003c 6FF00500 		mvn	r0, #5
 6717              	.LVL623:
 6718 0040 7047     		bx	lr
 6719              	.LVL624:
 6720              	.L729:
1526:Middlewares/Third_Party/FreeRTOS/Source/CMSIS_RTOS_V2/cmsis_os2.c ****   }
 6721              		.loc 1 1526 0
 6722 0042 6FF00300 		mvn	r0, #3
 6723              	.LVL625:
1535:Middlewares/Third_Party/FreeRTOS/Source/CMSIS_RTOS_V2/cmsis_os2.c ****   }
1536:Middlewares/Third_Party/FreeRTOS/Source/CMSIS_RTOS_V2/cmsis_os2.c **** #else
1537:Middlewares/Third_Party/FreeRTOS/Source/CMSIS_RTOS_V2/cmsis_os2.c ****   stat = osError;
1538:Middlewares/Third_Party/FreeRTOS/Source/CMSIS_RTOS_V2/cmsis_os2.c **** #endif
1539:Middlewares/Third_Party/FreeRTOS/Source/CMSIS_RTOS_V2/cmsis_os2.c **** 
1540:Middlewares/Third_Party/FreeRTOS/Source/CMSIS_RTOS_V2/cmsis_os2.c ****   return (stat);
 6724              		.loc 1 1540 0
 6725 0046 7047     		bx	lr
 6726              	.L736:
 6727              		.align	2
 6728              	.L735:
 6729 0048 00000000 		.word	.LANCHOR0
 6730              		.cfi_endproc
 6731              	.LFE102:
 6733              		.section	.text.osMessageQueueNew,"ax",%progbits
 6734              		.align	1
 6735              		.global	osMessageQueueNew
 6736              		.syntax unified
 6737              		.thumb
 6738              		.thumb_func
 6739              		.fpu softvfp
 6741              	osMessageQueueNew:
 6742              	.LFB103:
1541:Middlewares/Third_Party/FreeRTOS/Source/CMSIS_RTOS_V2/cmsis_os2.c **** }
1542:Middlewares/Third_Party/FreeRTOS/Source/CMSIS_RTOS_V2/cmsis_os2.c **** 
1543:Middlewares/Third_Party/FreeRTOS/Source/CMSIS_RTOS_V2/cmsis_os2.c **** /*---------------------------------------------------------------------------*/
1544:Middlewares/Third_Party/FreeRTOS/Source/CMSIS_RTOS_V2/cmsis_os2.c **** 
1545:Middlewares/Third_Party/FreeRTOS/Source/CMSIS_RTOS_V2/cmsis_os2.c **** osMessageQueueId_t osMessageQueueNew (uint32_t msg_count, uint32_t msg_size, const osMessageQueueAt
 6743              		.loc 1 1545 0
 6744              		.cfi_startproc
 6745              		@ args = 0, pretend = 0, frame = 0
 6746              		@ frame_needed = 0, uses_anonymous_args = 0
 6747              	.LVL626:
 6748 0000 30B5     		push	{r4, r5, lr}
 6749              	.LCFI117:
 6750              		.cfi_def_cfa_offset 12
 6751              		.cfi_offset 4, -12
 6752              		.cfi_offset 5, -8
 6753              		.cfi_offset 14, -4
 6754 0002 83B0     		sub	sp, sp, #12
 6755              	.LCFI118:
 6756              		.cfi_def_cfa_offset 24
 6757              	.LVL627:
ARM GAS  /tmp/cce47g5y.s 			page 169


 6758              	.LBB620:
 6759              	.LBB621:
 209:Drivers/CMSIS/Include/cmsis_gcc.h ****   return(result);
 6760              		.loc 2 209 0
 6761              		.syntax unified
 6762              	@ 209 "Drivers/CMSIS/Include/cmsis_gcc.h" 1
 6763 0004 EFF30583 		MRS r3, ipsr
 6764              	@ 0 "" 2
 6765              		.thumb
 6766              		.syntax unified
 6767              	.LBE621:
 6768              	.LBE620:
1546:Middlewares/Third_Party/FreeRTOS/Source/CMSIS_RTOS_V2/cmsis_os2.c ****   QueueHandle_t hQueue;
1547:Middlewares/Third_Party/FreeRTOS/Source/CMSIS_RTOS_V2/cmsis_os2.c ****   int32_t mem;
1548:Middlewares/Third_Party/FreeRTOS/Source/CMSIS_RTOS_V2/cmsis_os2.c ****   #if (configQUEUE_REGISTRY_SIZE > 0)
1549:Middlewares/Third_Party/FreeRTOS/Source/CMSIS_RTOS_V2/cmsis_os2.c ****   const char *name;
1550:Middlewares/Third_Party/FreeRTOS/Source/CMSIS_RTOS_V2/cmsis_os2.c ****   #endif
1551:Middlewares/Third_Party/FreeRTOS/Source/CMSIS_RTOS_V2/cmsis_os2.c **** 
1552:Middlewares/Third_Party/FreeRTOS/Source/CMSIS_RTOS_V2/cmsis_os2.c ****   hQueue = NULL;
1553:Middlewares/Third_Party/FreeRTOS/Source/CMSIS_RTOS_V2/cmsis_os2.c **** 
1554:Middlewares/Third_Party/FreeRTOS/Source/CMSIS_RTOS_V2/cmsis_os2.c ****   if (!IS_IRQ() && (msg_count > 0U) && (msg_size > 0U)) {
 6769              		.loc 1 1554 0
 6770 0008 002B     		cmp	r3, #0
 6771 000a 53D1     		bne	.L745
 6772              	.LBB622:
 6773              	.LBB623:
 386:Drivers/CMSIS/Include/cmsis_gcc.h ****   return(result);
 6774              		.loc 2 386 0
 6775              		.syntax unified
 6776              	@ 386 "Drivers/CMSIS/Include/cmsis_gcc.h" 1
 6777 000c EFF31083 		MRS r3, primask
 6778              	@ 0 "" 2
 6779              		.thumb
 6780              		.syntax unified
 6781              	.LBE623:
 6782              	.LBE622:
 6783              		.loc 1 1554 0
 6784 0010 002B     		cmp	r3, #0
 6785 0012 51D1     		bne	.L746
 6786              		.loc 1 1554 0 is_stmt 0 discriminator 2
 6787 0014 2B4B     		ldr	r3, .L764
 6788 0016 1B68     		ldr	r3, [r3]
 6789 0018 022B     		cmp	r3, #2
 6790 001a 21D0     		beq	.L759
 6791              	.L739:
 6792              		.loc 1 1554 0 discriminator 5
 6793 001c 0028     		cmp	r0, #0
 6794 001e 4DD0     		beq	.L748
 6795              		.loc 1 1554 0 discriminator 6
 6796 0020 0029     		cmp	r1, #0
 6797 0022 4DD0     		beq	.L749
 6798              	.LVL628:
1555:Middlewares/Third_Party/FreeRTOS/Source/CMSIS_RTOS_V2/cmsis_os2.c ****     mem = -1;
1556:Middlewares/Third_Party/FreeRTOS/Source/CMSIS_RTOS_V2/cmsis_os2.c **** 
1557:Middlewares/Third_Party/FreeRTOS/Source/CMSIS_RTOS_V2/cmsis_os2.c ****     if (attr != NULL) {
 6799              		.loc 1 1557 0 is_stmt 1
 6800 0024 72B3     		cbz	r2, .L750
ARM GAS  /tmp/cce47g5y.s 			page 170


1558:Middlewares/Third_Party/FreeRTOS/Source/CMSIS_RTOS_V2/cmsis_os2.c ****       if ((attr->cb_mem != NULL) && (attr->cb_size >= sizeof(StaticQueue_t)) &&
 6801              		.loc 1 1558 0
 6802 0026 9368     		ldr	r3, [r2, #8]
 6803 0028 4BB1     		cbz	r3, .L741
 6804              		.loc 1 1558 0 is_stmt 0 discriminator 1
 6805 002a D468     		ldr	r4, [r2, #12]
 6806 002c 4F2C     		cmp	r4, #79
 6807 002e 06D9     		bls	.L741
1559:Middlewares/Third_Party/FreeRTOS/Source/CMSIS_RTOS_V2/cmsis_os2.c ****           (attr->mq_mem != NULL) && (attr->mq_size >= (msg_count * msg_size))) {
 6808              		.loc 1 1559 0 is_stmt 1 discriminator 2
 6809 0030 1469     		ldr	r4, [r2, #16]
1558:Middlewares/Third_Party/FreeRTOS/Source/CMSIS_RTOS_V2/cmsis_os2.c ****       if ((attr->cb_mem != NULL) && (attr->cb_size >= sizeof(StaticQueue_t)) &&
 6810              		.loc 1 1558 0 discriminator 2
 6811 0032 24B1     		cbz	r4, .L741
 6812              		.loc 1 1559 0
 6813 0034 5569     		ldr	r5, [r2, #20]
 6814 0036 01FB00F4 		mul	r4, r1, r0
 6815 003a A542     		cmp	r5, r4
 6816 003c 24D2     		bcs	.L751
 6817              	.L741:
1560:Middlewares/Third_Party/FreeRTOS/Source/CMSIS_RTOS_V2/cmsis_os2.c ****         mem = 1;
1561:Middlewares/Third_Party/FreeRTOS/Source/CMSIS_RTOS_V2/cmsis_os2.c ****       }
1562:Middlewares/Third_Party/FreeRTOS/Source/CMSIS_RTOS_V2/cmsis_os2.c ****       else {
1563:Middlewares/Third_Party/FreeRTOS/Source/CMSIS_RTOS_V2/cmsis_os2.c ****         if ((attr->cb_mem == NULL) && (attr->cb_size == 0U) &&
 6818              		.loc 1 1563 0
 6819 003e ABB1     		cbz	r3, .L760
1555:Middlewares/Third_Party/FreeRTOS/Source/CMSIS_RTOS_V2/cmsis_os2.c **** 
 6820              		.loc 1 1555 0
 6821 0040 4FF0FF33 		mov	r3, #-1
 6822              	.L740:
 6823 0044 1446     		mov	r4, r2
 6824              	.LVL629:
1564:Middlewares/Third_Party/FreeRTOS/Source/CMSIS_RTOS_V2/cmsis_os2.c ****             (attr->mq_mem == NULL) && (attr->mq_size == 0U)) {
1565:Middlewares/Third_Party/FreeRTOS/Source/CMSIS_RTOS_V2/cmsis_os2.c ****           mem = 0;
1566:Middlewares/Third_Party/FreeRTOS/Source/CMSIS_RTOS_V2/cmsis_os2.c ****         }
1567:Middlewares/Third_Party/FreeRTOS/Source/CMSIS_RTOS_V2/cmsis_os2.c ****       }
1568:Middlewares/Third_Party/FreeRTOS/Source/CMSIS_RTOS_V2/cmsis_os2.c ****     }
1569:Middlewares/Third_Party/FreeRTOS/Source/CMSIS_RTOS_V2/cmsis_os2.c ****     else {
1570:Middlewares/Third_Party/FreeRTOS/Source/CMSIS_RTOS_V2/cmsis_os2.c ****       mem = 0;
1571:Middlewares/Third_Party/FreeRTOS/Source/CMSIS_RTOS_V2/cmsis_os2.c ****     }
1572:Middlewares/Third_Party/FreeRTOS/Source/CMSIS_RTOS_V2/cmsis_os2.c **** 
1573:Middlewares/Third_Party/FreeRTOS/Source/CMSIS_RTOS_V2/cmsis_os2.c ****     if (mem == 1) {
 6825              		.loc 1 1573 0
 6826 0046 012B     		cmp	r3, #1
 6827 0048 25D0     		beq	.L761
1574:Middlewares/Third_Party/FreeRTOS/Source/CMSIS_RTOS_V2/cmsis_os2.c ****       hQueue = xQueueCreateStatic (msg_count, msg_size, attr->mq_mem, attr->cb_mem);
1575:Middlewares/Third_Party/FreeRTOS/Source/CMSIS_RTOS_V2/cmsis_os2.c ****     }
1576:Middlewares/Third_Party/FreeRTOS/Source/CMSIS_RTOS_V2/cmsis_os2.c ****     else {
1577:Middlewares/Third_Party/FreeRTOS/Source/CMSIS_RTOS_V2/cmsis_os2.c ****       if (mem == 0) {
 6828              		.loc 1 1577 0
 6829 004a 63B3     		cbz	r3, .L762
1552:Middlewares/Third_Party/FreeRTOS/Source/CMSIS_RTOS_V2/cmsis_os2.c **** 
 6830              		.loc 1 1552 0
 6831 004c 0025     		movs	r5, #0
 6832              	.LVL630:
 6833              	.L743:
1578:Middlewares/Third_Party/FreeRTOS/Source/CMSIS_RTOS_V2/cmsis_os2.c ****         hQueue = xQueueCreate (msg_count, msg_size);
ARM GAS  /tmp/cce47g5y.s 			page 171


1579:Middlewares/Third_Party/FreeRTOS/Source/CMSIS_RTOS_V2/cmsis_os2.c ****       }
1580:Middlewares/Third_Party/FreeRTOS/Source/CMSIS_RTOS_V2/cmsis_os2.c ****     }
1581:Middlewares/Third_Party/FreeRTOS/Source/CMSIS_RTOS_V2/cmsis_os2.c **** 
1582:Middlewares/Third_Party/FreeRTOS/Source/CMSIS_RTOS_V2/cmsis_os2.c ****     #if (configQUEUE_REGISTRY_SIZE > 0)
1583:Middlewares/Third_Party/FreeRTOS/Source/CMSIS_RTOS_V2/cmsis_os2.c ****     if (hQueue != NULL) {
 6834              		.loc 1 1583 0
 6835 004e 25B1     		cbz	r5, .L737
1584:Middlewares/Third_Party/FreeRTOS/Source/CMSIS_RTOS_V2/cmsis_os2.c ****       if (attr != NULL) {
 6836              		.loc 1 1584 0
 6837 0050 74B3     		cbz	r4, .L757
1585:Middlewares/Third_Party/FreeRTOS/Source/CMSIS_RTOS_V2/cmsis_os2.c ****         name = attr->name;
 6838              		.loc 1 1585 0
 6839 0052 2168     		ldr	r1, [r4]
 6840              	.LVL631:
 6841              	.L744:
1586:Middlewares/Third_Party/FreeRTOS/Source/CMSIS_RTOS_V2/cmsis_os2.c ****       } else {
1587:Middlewares/Third_Party/FreeRTOS/Source/CMSIS_RTOS_V2/cmsis_os2.c ****         name = NULL;
1588:Middlewares/Third_Party/FreeRTOS/Source/CMSIS_RTOS_V2/cmsis_os2.c ****       }
1589:Middlewares/Third_Party/FreeRTOS/Source/CMSIS_RTOS_V2/cmsis_os2.c ****       vQueueAddToRegistry (hQueue, name);
 6842              		.loc 1 1589 0
 6843 0054 2846     		mov	r0, r5
 6844 0056 FFF7FEFF 		bl	vQueueAddToRegistry
 6845              	.LVL632:
 6846              	.L737:
1590:Middlewares/Third_Party/FreeRTOS/Source/CMSIS_RTOS_V2/cmsis_os2.c ****     }
1591:Middlewares/Third_Party/FreeRTOS/Source/CMSIS_RTOS_V2/cmsis_os2.c ****     #endif
1592:Middlewares/Third_Party/FreeRTOS/Source/CMSIS_RTOS_V2/cmsis_os2.c **** 
1593:Middlewares/Third_Party/FreeRTOS/Source/CMSIS_RTOS_V2/cmsis_os2.c ****   }
1594:Middlewares/Third_Party/FreeRTOS/Source/CMSIS_RTOS_V2/cmsis_os2.c **** 
1595:Middlewares/Third_Party/FreeRTOS/Source/CMSIS_RTOS_V2/cmsis_os2.c ****   return ((osMessageQueueId_t)hQueue);
1596:Middlewares/Third_Party/FreeRTOS/Source/CMSIS_RTOS_V2/cmsis_os2.c **** }
 6847              		.loc 1 1596 0
 6848 005a 2846     		mov	r0, r5
 6849 005c 03B0     		add	sp, sp, #12
 6850              	.LCFI119:
 6851              		.cfi_remember_state
 6852              		.cfi_def_cfa_offset 12
 6853              		@ sp needed
 6854 005e 30BD     		pop	{r4, r5, pc}
 6855              	.LVL633:
 6856              	.L759:
 6857              	.LCFI120:
 6858              		.cfi_restore_state
 6859              	.LBB624:
 6860              	.LBB625:
 6861              		.loc 2 465 0
 6862              		.syntax unified
 6863              	@ 465 "Drivers/CMSIS/Include/cmsis_gcc.h" 1
 6864 0060 EFF31183 		MRS r3, basepri
 6865              	@ 0 "" 2
 6866              		.thumb
 6867              		.syntax unified
 6868              	.LBE625:
 6869              	.LBE624:
1554:Middlewares/Third_Party/FreeRTOS/Source/CMSIS_RTOS_V2/cmsis_os2.c ****     mem = -1;
 6870              		.loc 1 1554 0
 6871 0064 002B     		cmp	r3, #0
ARM GAS  /tmp/cce47g5y.s 			page 172


 6872 0066 D9D0     		beq	.L739
1552:Middlewares/Third_Party/FreeRTOS/Source/CMSIS_RTOS_V2/cmsis_os2.c **** 
 6873              		.loc 1 1552 0
 6874 0068 0025     		movs	r5, #0
 6875 006a F6E7     		b	.L737
 6876              	.LVL634:
 6877              	.L760:
1563:Middlewares/Third_Party/FreeRTOS/Source/CMSIS_RTOS_V2/cmsis_os2.c ****             (attr->mq_mem == NULL) && (attr->mq_size == 0U)) {
 6878              		.loc 1 1563 0 discriminator 1
 6879 006c D368     		ldr	r3, [r2, #12]
 6880 006e 6BB9     		cbnz	r3, .L753
1564:Middlewares/Third_Party/FreeRTOS/Source/CMSIS_RTOS_V2/cmsis_os2.c ****           mem = 0;
 6881              		.loc 1 1564 0 discriminator 2
 6882 0070 1369     		ldr	r3, [r2, #16]
1563:Middlewares/Third_Party/FreeRTOS/Source/CMSIS_RTOS_V2/cmsis_os2.c ****             (attr->mq_mem == NULL) && (attr->mq_size == 0U)) {
 6883              		.loc 1 1563 0 discriminator 2
 6884 0072 13B1     		cbz	r3, .L763
1555:Middlewares/Third_Party/FreeRTOS/Source/CMSIS_RTOS_V2/cmsis_os2.c **** 
 6885              		.loc 1 1555 0
 6886 0074 4FF0FF33 		mov	r3, #-1
 6887 0078 E4E7     		b	.L740
 6888              	.L763:
1564:Middlewares/Third_Party/FreeRTOS/Source/CMSIS_RTOS_V2/cmsis_os2.c ****           mem = 0;
 6889              		.loc 1 1564 0
 6890 007a 5369     		ldr	r3, [r2, #20]
 6891 007c 4BB1     		cbz	r3, .L755
1555:Middlewares/Third_Party/FreeRTOS/Source/CMSIS_RTOS_V2/cmsis_os2.c **** 
 6892              		.loc 1 1555 0
 6893 007e 4FF0FF33 		mov	r3, #-1
 6894 0082 DFE7     		b	.L740
 6895              	.L750:
1570:Middlewares/Third_Party/FreeRTOS/Source/CMSIS_RTOS_V2/cmsis_os2.c ****     }
 6896              		.loc 1 1570 0
 6897 0084 0023     		movs	r3, #0
 6898 0086 DDE7     		b	.L740
 6899              	.L751:
1560:Middlewares/Third_Party/FreeRTOS/Source/CMSIS_RTOS_V2/cmsis_os2.c ****       }
 6900              		.loc 1 1560 0
 6901 0088 0123     		movs	r3, #1
 6902 008a DBE7     		b	.L740
 6903              	.L753:
1555:Middlewares/Third_Party/FreeRTOS/Source/CMSIS_RTOS_V2/cmsis_os2.c **** 
 6904              		.loc 1 1555 0
 6905 008c 4FF0FF33 		mov	r3, #-1
 6906 0090 D8E7     		b	.L740
 6907              	.L755:
1565:Middlewares/Third_Party/FreeRTOS/Source/CMSIS_RTOS_V2/cmsis_os2.c ****         }
 6908              		.loc 1 1565 0
 6909 0092 0023     		movs	r3, #0
 6910 0094 D6E7     		b	.L740
 6911              	.LVL635:
 6912              	.L761:
1574:Middlewares/Third_Party/FreeRTOS/Source/CMSIS_RTOS_V2/cmsis_os2.c ****     }
 6913              		.loc 1 1574 0
 6914 0096 0023     		movs	r3, #0
 6915              	.LVL636:
 6916 0098 0093     		str	r3, [sp]
ARM GAS  /tmp/cce47g5y.s 			page 173


 6917 009a 9368     		ldr	r3, [r2, #8]
 6918 009c 1269     		ldr	r2, [r2, #16]
 6919              	.LVL637:
 6920 009e FFF7FEFF 		bl	xQueueGenericCreateStatic
 6921              	.LVL638:
 6922 00a2 0546     		mov	r5, r0
 6923              	.LVL639:
 6924 00a4 D3E7     		b	.L743
 6925              	.LVL640:
 6926              	.L762:
1578:Middlewares/Third_Party/FreeRTOS/Source/CMSIS_RTOS_V2/cmsis_os2.c ****       }
 6927              		.loc 1 1578 0
 6928 00a6 0022     		movs	r2, #0
 6929              	.LVL641:
 6930 00a8 FFF7FEFF 		bl	xQueueGenericCreate
 6931              	.LVL642:
 6932 00ac 0546     		mov	r5, r0
 6933              	.LVL643:
 6934 00ae CEE7     		b	.L743
 6935              	.LVL644:
 6936              	.L757:
1587:Middlewares/Third_Party/FreeRTOS/Source/CMSIS_RTOS_V2/cmsis_os2.c ****       }
 6937              		.loc 1 1587 0
 6938 00b0 0021     		movs	r1, #0
 6939 00b2 CFE7     		b	.L744
 6940              	.LVL645:
 6941              	.L745:
1552:Middlewares/Third_Party/FreeRTOS/Source/CMSIS_RTOS_V2/cmsis_os2.c **** 
 6942              		.loc 1 1552 0
 6943 00b4 0025     		movs	r5, #0
 6944 00b6 D0E7     		b	.L737
 6945              	.L746:
 6946 00b8 0025     		movs	r5, #0
 6947 00ba CEE7     		b	.L737
 6948              	.L748:
 6949 00bc 0025     		movs	r5, #0
 6950 00be CCE7     		b	.L737
 6951              	.L749:
 6952 00c0 0025     		movs	r5, #0
1595:Middlewares/Third_Party/FreeRTOS/Source/CMSIS_RTOS_V2/cmsis_os2.c **** }
 6953              		.loc 1 1595 0
 6954 00c2 CAE7     		b	.L737
 6955              	.L765:
 6956              		.align	2
 6957              	.L764:
 6958 00c4 00000000 		.word	.LANCHOR0
 6959              		.cfi_endproc
 6960              	.LFE103:
 6962              		.section	.text.osMessageQueuePut,"ax",%progbits
 6963              		.align	1
 6964              		.global	osMessageQueuePut
 6965              		.syntax unified
 6966              		.thumb
 6967              		.thumb_func
 6968              		.fpu softvfp
 6970              	osMessageQueuePut:
 6971              	.LFB104:
ARM GAS  /tmp/cce47g5y.s 			page 174


1597:Middlewares/Third_Party/FreeRTOS/Source/CMSIS_RTOS_V2/cmsis_os2.c **** 
1598:Middlewares/Third_Party/FreeRTOS/Source/CMSIS_RTOS_V2/cmsis_os2.c **** osStatus_t osMessageQueuePut (osMessageQueueId_t mq_id, const void *msg_ptr, uint8_t msg_prio, uint
 6972              		.loc 1 1598 0
 6973              		.cfi_startproc
 6974              		@ args = 0, pretend = 0, frame = 8
 6975              		@ frame_needed = 0, uses_anonymous_args = 0
 6976              	.LVL646:
 6977 0000 10B5     		push	{r4, lr}
 6978              	.LCFI121:
 6979              		.cfi_def_cfa_offset 8
 6980              		.cfi_offset 4, -8
 6981              		.cfi_offset 14, -4
 6982 0002 82B0     		sub	sp, sp, #8
 6983              	.LCFI122:
 6984              		.cfi_def_cfa_offset 16
 6985 0004 1C46     		mov	r4, r3
 6986              	.LVL647:
 6987              	.LBB626:
 6988              	.LBB627:
 209:Drivers/CMSIS/Include/cmsis_gcc.h ****   return(result);
 6989              		.loc 2 209 0
 6990              		.syntax unified
 6991              	@ 209 "Drivers/CMSIS/Include/cmsis_gcc.h" 1
 6992 0006 EFF30583 		MRS r3, ipsr
 6993              	@ 0 "" 2
 6994              	.LVL648:
 6995              		.thumb
 6996              		.syntax unified
 6997              	.LBE627:
 6998              	.LBE626:
1599:Middlewares/Third_Party/FreeRTOS/Source/CMSIS_RTOS_V2/cmsis_os2.c ****   QueueHandle_t hQueue = (QueueHandle_t)mq_id;
1600:Middlewares/Third_Party/FreeRTOS/Source/CMSIS_RTOS_V2/cmsis_os2.c ****   osStatus_t stat;
1601:Middlewares/Third_Party/FreeRTOS/Source/CMSIS_RTOS_V2/cmsis_os2.c ****   BaseType_t yield;
1602:Middlewares/Third_Party/FreeRTOS/Source/CMSIS_RTOS_V2/cmsis_os2.c **** 
1603:Middlewares/Third_Party/FreeRTOS/Source/CMSIS_RTOS_V2/cmsis_os2.c ****   (void)msg_prio; /* Message priority is ignored */
1604:Middlewares/Third_Party/FreeRTOS/Source/CMSIS_RTOS_V2/cmsis_os2.c **** 
1605:Middlewares/Third_Party/FreeRTOS/Source/CMSIS_RTOS_V2/cmsis_os2.c ****   stat = osOK;
1606:Middlewares/Third_Party/FreeRTOS/Source/CMSIS_RTOS_V2/cmsis_os2.c **** 
1607:Middlewares/Third_Party/FreeRTOS/Source/CMSIS_RTOS_V2/cmsis_os2.c ****   if (IS_IRQ()) {
 6999              		.loc 1 1607 0
 7000 000a B3B9     		cbnz	r3, .L767
 7001              	.LBB628:
 7002              	.LBB629:
 386:Drivers/CMSIS/Include/cmsis_gcc.h ****   return(result);
 7003              		.loc 2 386 0
 7004              		.syntax unified
 7005              	@ 386 "Drivers/CMSIS/Include/cmsis_gcc.h" 1
 7006 000c EFF31083 		MRS r3, primask
 7007              	@ 0 "" 2
 7008              		.thumb
 7009              		.syntax unified
 7010              	.LBE629:
 7011              	.LBE628:
 7012              		.loc 1 1607 0
 7013 0010 9BB9     		cbnz	r3, .L767
 7014              		.loc 1 1607 0 is_stmt 0 discriminator 2
 7015 0012 224B     		ldr	r3, .L781
ARM GAS  /tmp/cce47g5y.s 			page 175


 7016 0014 1B68     		ldr	r3, [r3]
 7017 0016 022B     		cmp	r3, #2
 7018 0018 0BD0     		beq	.L780
 7019              	.L768:
1608:Middlewares/Third_Party/FreeRTOS/Source/CMSIS_RTOS_V2/cmsis_os2.c ****     if ((hQueue == NULL) || (msg_ptr == NULL) || (timeout != 0U)) {
1609:Middlewares/Third_Party/FreeRTOS/Source/CMSIS_RTOS_V2/cmsis_os2.c ****       stat = osErrorParameter;
1610:Middlewares/Third_Party/FreeRTOS/Source/CMSIS_RTOS_V2/cmsis_os2.c ****     }
1611:Middlewares/Third_Party/FreeRTOS/Source/CMSIS_RTOS_V2/cmsis_os2.c ****     else {
1612:Middlewares/Third_Party/FreeRTOS/Source/CMSIS_RTOS_V2/cmsis_os2.c ****       yield = pdFALSE;
1613:Middlewares/Third_Party/FreeRTOS/Source/CMSIS_RTOS_V2/cmsis_os2.c **** 
1614:Middlewares/Third_Party/FreeRTOS/Source/CMSIS_RTOS_V2/cmsis_os2.c ****       if (xQueueSendToBackFromISR (hQueue, msg_ptr, &yield) != pdTRUE) {
1615:Middlewares/Third_Party/FreeRTOS/Source/CMSIS_RTOS_V2/cmsis_os2.c ****         stat = osErrorResource;
1616:Middlewares/Third_Party/FreeRTOS/Source/CMSIS_RTOS_V2/cmsis_os2.c ****       } else {
1617:Middlewares/Third_Party/FreeRTOS/Source/CMSIS_RTOS_V2/cmsis_os2.c ****         portYIELD_FROM_ISR (yield);
1618:Middlewares/Third_Party/FreeRTOS/Source/CMSIS_RTOS_V2/cmsis_os2.c ****       }
1619:Middlewares/Third_Party/FreeRTOS/Source/CMSIS_RTOS_V2/cmsis_os2.c ****     }
1620:Middlewares/Third_Party/FreeRTOS/Source/CMSIS_RTOS_V2/cmsis_os2.c ****   }
1621:Middlewares/Third_Party/FreeRTOS/Source/CMSIS_RTOS_V2/cmsis_os2.c ****   else {
1622:Middlewares/Third_Party/FreeRTOS/Source/CMSIS_RTOS_V2/cmsis_os2.c ****     if ((hQueue == NULL) || (msg_ptr == NULL)) {
 7020              		.loc 1 1622 0 is_stmt 1
 7021 001a A0B3     		cbz	r0, .L775
 7022              		.loc 1 1622 0 is_stmt 0 discriminator 1
 7023 001c B1B3     		cbz	r1, .L776
1623:Middlewares/Third_Party/FreeRTOS/Source/CMSIS_RTOS_V2/cmsis_os2.c ****       stat = osErrorParameter;
1624:Middlewares/Third_Party/FreeRTOS/Source/CMSIS_RTOS_V2/cmsis_os2.c ****     }
1625:Middlewares/Third_Party/FreeRTOS/Source/CMSIS_RTOS_V2/cmsis_os2.c ****     else {
1626:Middlewares/Third_Party/FreeRTOS/Source/CMSIS_RTOS_V2/cmsis_os2.c ****       if (xQueueSendToBack (hQueue, msg_ptr, (TickType_t)timeout) != pdPASS) {
 7024              		.loc 1 1626 0 is_stmt 1
 7025 001e 0023     		movs	r3, #0
 7026 0020 2246     		mov	r2, r4
 7027              	.LVL649:
 7028 0022 FFF7FEFF 		bl	xQueueGenericSend
 7029              	.LVL650:
 7030 0026 0128     		cmp	r0, #1
 7031 0028 33D0     		beq	.L777
1627:Middlewares/Third_Party/FreeRTOS/Source/CMSIS_RTOS_V2/cmsis_os2.c ****         if (timeout != 0U) {
 7032              		.loc 1 1627 0
 7033 002a A4B3     		cbz	r4, .L778
1628:Middlewares/Third_Party/FreeRTOS/Source/CMSIS_RTOS_V2/cmsis_os2.c ****           stat = osErrorTimeout;
 7034              		.loc 1 1628 0
 7035 002c 6FF00100 		mvn	r0, #1
 7036 0030 19E0     		b	.L766
 7037              	.LVL651:
 7038              	.L780:
 7039              	.LBB630:
 7040              	.LBB631:
 7041              		.loc 2 465 0
 7042              		.syntax unified
 7043              	@ 465 "Drivers/CMSIS/Include/cmsis_gcc.h" 1
 7044 0032 EFF31183 		MRS r3, basepri
 7045              	@ 0 "" 2
 7046              		.thumb
 7047              		.syntax unified
 7048              	.LBE631:
 7049              	.LBE630:
1607:Middlewares/Third_Party/FreeRTOS/Source/CMSIS_RTOS_V2/cmsis_os2.c ****     if ((hQueue == NULL) || (msg_ptr == NULL) || (timeout != 0U)) {
 7050              		.loc 1 1607 0
ARM GAS  /tmp/cce47g5y.s 			page 176


 7051 0036 002B     		cmp	r3, #0
 7052 0038 EFD0     		beq	.L768
 7053              	.L767:
1608:Middlewares/Third_Party/FreeRTOS/Source/CMSIS_RTOS_V2/cmsis_os2.c ****       stat = osErrorParameter;
 7054              		.loc 1 1608 0
 7055 003a B0B1     		cbz	r0, .L770
1608:Middlewares/Third_Party/FreeRTOS/Source/CMSIS_RTOS_V2/cmsis_os2.c ****       stat = osErrorParameter;
 7056              		.loc 1 1608 0 is_stmt 0 discriminator 1
 7057 003c C1B1     		cbz	r1, .L771
1608:Middlewares/Third_Party/FreeRTOS/Source/CMSIS_RTOS_V2/cmsis_os2.c ****       stat = osErrorParameter;
 7058              		.loc 1 1608 0 discriminator 2
 7059 003e D4B9     		cbnz	r4, .L772
1612:Middlewares/Third_Party/FreeRTOS/Source/CMSIS_RTOS_V2/cmsis_os2.c **** 
 7060              		.loc 1 1612 0 is_stmt 1
 7061 0040 0023     		movs	r3, #0
 7062 0042 02AA     		add	r2, sp, #8
 7063              	.LVL652:
 7064 0044 42F8043D 		str	r3, [r2, #-4]!
1614:Middlewares/Third_Party/FreeRTOS/Source/CMSIS_RTOS_V2/cmsis_os2.c ****         stat = osErrorResource;
 7065              		.loc 1 1614 0
 7066 0048 FFF7FEFF 		bl	xQueueGenericSendFromISR
 7067              	.LVL653:
 7068 004c 0128     		cmp	r0, #1
 7069 004e 15D1     		bne	.L773
1617:Middlewares/Third_Party/FreeRTOS/Source/CMSIS_RTOS_V2/cmsis_os2.c ****       }
 7070              		.loc 1 1617 0
 7071 0050 019B     		ldr	r3, [sp, #4]
 7072 0052 B3B1     		cbz	r3, .L774
1617:Middlewares/Third_Party/FreeRTOS/Source/CMSIS_RTOS_V2/cmsis_os2.c ****       }
 7073              		.loc 1 1617 0 is_stmt 0 discriminator 1
 7074 0054 4FF08052 		mov	r2, #268435456
 7075 0058 114B     		ldr	r3, .L781+4
 7076 005a 1A60     		str	r2, [r3]
 7077              		.syntax unified
 7078              	@ 1617 "Middlewares/Third_Party/FreeRTOS/Source/CMSIS_RTOS_V2/cmsis_os2.c" 1
 7079 005c BFF34F8F 		dsb
 7080              	@ 0 "" 2
 7081              	@ 1617 "Middlewares/Third_Party/FreeRTOS/Source/CMSIS_RTOS_V2/cmsis_os2.c" 1
 7082 0060 BFF36F8F 		isb
 7083              	@ 0 "" 2
1605:Middlewares/Third_Party/FreeRTOS/Source/CMSIS_RTOS_V2/cmsis_os2.c **** 
 7084              		.loc 1 1605 0 is_stmt 1 discriminator 1
 7085              		.thumb
 7086              		.syntax unified
 7087 0064 0020     		movs	r0, #0
 7088              	.LVL654:
 7089              	.L766:
1629:Middlewares/Third_Party/FreeRTOS/Source/CMSIS_RTOS_V2/cmsis_os2.c ****         } else {
1630:Middlewares/Third_Party/FreeRTOS/Source/CMSIS_RTOS_V2/cmsis_os2.c ****           stat = osErrorResource;
1631:Middlewares/Third_Party/FreeRTOS/Source/CMSIS_RTOS_V2/cmsis_os2.c ****         }
1632:Middlewares/Third_Party/FreeRTOS/Source/CMSIS_RTOS_V2/cmsis_os2.c ****       }
1633:Middlewares/Third_Party/FreeRTOS/Source/CMSIS_RTOS_V2/cmsis_os2.c ****     }
1634:Middlewares/Third_Party/FreeRTOS/Source/CMSIS_RTOS_V2/cmsis_os2.c ****   }
1635:Middlewares/Third_Party/FreeRTOS/Source/CMSIS_RTOS_V2/cmsis_os2.c **** 
1636:Middlewares/Third_Party/FreeRTOS/Source/CMSIS_RTOS_V2/cmsis_os2.c ****   return (stat);
1637:Middlewares/Third_Party/FreeRTOS/Source/CMSIS_RTOS_V2/cmsis_os2.c **** }
 7090              		.loc 1 1637 0
ARM GAS  /tmp/cce47g5y.s 			page 177


 7091 0066 02B0     		add	sp, sp, #8
 7092              	.LCFI123:
 7093              		.cfi_remember_state
 7094              		.cfi_def_cfa_offset 8
 7095              		@ sp needed
 7096 0068 10BD     		pop	{r4, pc}
 7097              	.LVL655:
 7098              	.L770:
 7099              	.LCFI124:
 7100              		.cfi_restore_state
1609:Middlewares/Third_Party/FreeRTOS/Source/CMSIS_RTOS_V2/cmsis_os2.c ****     }
 7101              		.loc 1 1609 0
 7102 006a 6FF00300 		mvn	r0, #3
 7103              	.LVL656:
 7104 006e FAE7     		b	.L766
 7105              	.LVL657:
 7106              	.L771:
 7107 0070 6FF00300 		mvn	r0, #3
 7108              	.LVL658:
 7109 0074 F7E7     		b	.L766
 7110              	.LVL659:
 7111              	.L772:
 7112 0076 6FF00300 		mvn	r0, #3
 7113              	.LVL660:
 7114 007a F4E7     		b	.L766
 7115              	.LVL661:
 7116              	.L773:
1615:Middlewares/Third_Party/FreeRTOS/Source/CMSIS_RTOS_V2/cmsis_os2.c ****       } else {
 7117              		.loc 1 1615 0
 7118 007c 6FF00200 		mvn	r0, #2
 7119 0080 F1E7     		b	.L766
 7120              	.L774:
1605:Middlewares/Third_Party/FreeRTOS/Source/CMSIS_RTOS_V2/cmsis_os2.c **** 
 7121              		.loc 1 1605 0
 7122 0082 0020     		movs	r0, #0
 7123 0084 EFE7     		b	.L766
 7124              	.LVL662:
 7125              	.L775:
1623:Middlewares/Third_Party/FreeRTOS/Source/CMSIS_RTOS_V2/cmsis_os2.c ****     }
 7126              		.loc 1 1623 0
 7127 0086 6FF00300 		mvn	r0, #3
 7128              	.LVL663:
 7129 008a ECE7     		b	.L766
 7130              	.LVL664:
 7131              	.L776:
 7132 008c 6FF00300 		mvn	r0, #3
 7133              	.LVL665:
 7134 0090 E9E7     		b	.L766
 7135              	.LVL666:
 7136              	.L777:
1605:Middlewares/Third_Party/FreeRTOS/Source/CMSIS_RTOS_V2/cmsis_os2.c **** 
 7137              		.loc 1 1605 0
 7138 0092 0020     		movs	r0, #0
 7139 0094 E7E7     		b	.L766
 7140              	.L778:
1630:Middlewares/Third_Party/FreeRTOS/Source/CMSIS_RTOS_V2/cmsis_os2.c ****         }
 7141              		.loc 1 1630 0
ARM GAS  /tmp/cce47g5y.s 			page 178


 7142 0096 6FF00200 		mvn	r0, #2
 7143              	.LVL667:
1636:Middlewares/Third_Party/FreeRTOS/Source/CMSIS_RTOS_V2/cmsis_os2.c **** }
 7144              		.loc 1 1636 0
 7145 009a E4E7     		b	.L766
 7146              	.L782:
 7147              		.align	2
 7148              	.L781:
 7149 009c 00000000 		.word	.LANCHOR0
 7150 00a0 04ED00E0 		.word	-536810236
 7151              		.cfi_endproc
 7152              	.LFE104:
 7154              		.section	.text.osMessageQueueGet,"ax",%progbits
 7155              		.align	1
 7156              		.global	osMessageQueueGet
 7157              		.syntax unified
 7158              		.thumb
 7159              		.thumb_func
 7160              		.fpu softvfp
 7162              	osMessageQueueGet:
 7163              	.LFB105:
1638:Middlewares/Third_Party/FreeRTOS/Source/CMSIS_RTOS_V2/cmsis_os2.c **** 
1639:Middlewares/Third_Party/FreeRTOS/Source/CMSIS_RTOS_V2/cmsis_os2.c **** osStatus_t osMessageQueueGet (osMessageQueueId_t mq_id, void *msg_ptr, uint8_t *msg_prio, uint32_t 
 7164              		.loc 1 1639 0
 7165              		.cfi_startproc
 7166              		@ args = 0, pretend = 0, frame = 8
 7167              		@ frame_needed = 0, uses_anonymous_args = 0
 7168              	.LVL668:
 7169 0000 10B5     		push	{r4, lr}
 7170              	.LCFI125:
 7171              		.cfi_def_cfa_offset 8
 7172              		.cfi_offset 4, -8
 7173              		.cfi_offset 14, -4
 7174 0002 82B0     		sub	sp, sp, #8
 7175              	.LCFI126:
 7176              		.cfi_def_cfa_offset 16
 7177 0004 1C46     		mov	r4, r3
 7178              	.LVL669:
 7179              	.LBB632:
 7180              	.LBB633:
 209:Drivers/CMSIS/Include/cmsis_gcc.h ****   return(result);
 7181              		.loc 2 209 0
 7182              		.syntax unified
 7183              	@ 209 "Drivers/CMSIS/Include/cmsis_gcc.h" 1
 7184 0006 EFF30583 		MRS r3, ipsr
 7185              	@ 0 "" 2
 7186              	.LVL670:
 7187              		.thumb
 7188              		.syntax unified
 7189              	.LBE633:
 7190              	.LBE632:
1640:Middlewares/Third_Party/FreeRTOS/Source/CMSIS_RTOS_V2/cmsis_os2.c ****   QueueHandle_t hQueue = (QueueHandle_t)mq_id;
1641:Middlewares/Third_Party/FreeRTOS/Source/CMSIS_RTOS_V2/cmsis_os2.c ****   osStatus_t stat;
1642:Middlewares/Third_Party/FreeRTOS/Source/CMSIS_RTOS_V2/cmsis_os2.c ****   BaseType_t yield;
1643:Middlewares/Third_Party/FreeRTOS/Source/CMSIS_RTOS_V2/cmsis_os2.c **** 
1644:Middlewares/Third_Party/FreeRTOS/Source/CMSIS_RTOS_V2/cmsis_os2.c ****   (void)msg_prio; /* Message priority is ignored */
1645:Middlewares/Third_Party/FreeRTOS/Source/CMSIS_RTOS_V2/cmsis_os2.c **** 
ARM GAS  /tmp/cce47g5y.s 			page 179


1646:Middlewares/Third_Party/FreeRTOS/Source/CMSIS_RTOS_V2/cmsis_os2.c ****   stat = osOK;
1647:Middlewares/Third_Party/FreeRTOS/Source/CMSIS_RTOS_V2/cmsis_os2.c **** 
1648:Middlewares/Third_Party/FreeRTOS/Source/CMSIS_RTOS_V2/cmsis_os2.c ****   if (IS_IRQ()) {
 7191              		.loc 1 1648 0
 7192 000a ABB9     		cbnz	r3, .L784
 7193              	.LBB634:
 7194              	.LBB635:
 386:Drivers/CMSIS/Include/cmsis_gcc.h ****   return(result);
 7195              		.loc 2 386 0
 7196              		.syntax unified
 7197              	@ 386 "Drivers/CMSIS/Include/cmsis_gcc.h" 1
 7198 000c EFF31083 		MRS r3, primask
 7199              	@ 0 "" 2
 7200              		.thumb
 7201              		.syntax unified
 7202              	.LBE635:
 7203              	.LBE634:
 7204              		.loc 1 1648 0
 7205 0010 93B9     		cbnz	r3, .L784
 7206              		.loc 1 1648 0 is_stmt 0 discriminator 2
 7207 0012 224B     		ldr	r3, .L798
 7208 0014 1B68     		ldr	r3, [r3]
 7209 0016 022B     		cmp	r3, #2
 7210 0018 0AD0     		beq	.L797
 7211              	.L785:
1649:Middlewares/Third_Party/FreeRTOS/Source/CMSIS_RTOS_V2/cmsis_os2.c ****     if ((hQueue == NULL) || (msg_ptr == NULL) || (timeout != 0U)) {
1650:Middlewares/Third_Party/FreeRTOS/Source/CMSIS_RTOS_V2/cmsis_os2.c ****       stat = osErrorParameter;
1651:Middlewares/Third_Party/FreeRTOS/Source/CMSIS_RTOS_V2/cmsis_os2.c ****     }
1652:Middlewares/Third_Party/FreeRTOS/Source/CMSIS_RTOS_V2/cmsis_os2.c ****     else {
1653:Middlewares/Third_Party/FreeRTOS/Source/CMSIS_RTOS_V2/cmsis_os2.c ****       yield = pdFALSE;
1654:Middlewares/Third_Party/FreeRTOS/Source/CMSIS_RTOS_V2/cmsis_os2.c **** 
1655:Middlewares/Third_Party/FreeRTOS/Source/CMSIS_RTOS_V2/cmsis_os2.c ****       if (xQueueReceiveFromISR (hQueue, msg_ptr, &yield) != pdPASS) {
1656:Middlewares/Third_Party/FreeRTOS/Source/CMSIS_RTOS_V2/cmsis_os2.c ****         stat = osErrorResource;
1657:Middlewares/Third_Party/FreeRTOS/Source/CMSIS_RTOS_V2/cmsis_os2.c ****       } else {
1658:Middlewares/Third_Party/FreeRTOS/Source/CMSIS_RTOS_V2/cmsis_os2.c ****         portYIELD_FROM_ISR (yield);
1659:Middlewares/Third_Party/FreeRTOS/Source/CMSIS_RTOS_V2/cmsis_os2.c ****       }
1660:Middlewares/Third_Party/FreeRTOS/Source/CMSIS_RTOS_V2/cmsis_os2.c ****     }
1661:Middlewares/Third_Party/FreeRTOS/Source/CMSIS_RTOS_V2/cmsis_os2.c ****   }
1662:Middlewares/Third_Party/FreeRTOS/Source/CMSIS_RTOS_V2/cmsis_os2.c ****   else {
1663:Middlewares/Third_Party/FreeRTOS/Source/CMSIS_RTOS_V2/cmsis_os2.c ****     if ((hQueue == NULL) || (msg_ptr == NULL)) {
 7212              		.loc 1 1663 0 is_stmt 1
 7213 001a 98B3     		cbz	r0, .L792
 7214              		.loc 1 1663 0 is_stmt 0 discriminator 1
 7215 001c A9B3     		cbz	r1, .L793
1664:Middlewares/Third_Party/FreeRTOS/Source/CMSIS_RTOS_V2/cmsis_os2.c ****       stat = osErrorParameter;
1665:Middlewares/Third_Party/FreeRTOS/Source/CMSIS_RTOS_V2/cmsis_os2.c ****     }
1666:Middlewares/Third_Party/FreeRTOS/Source/CMSIS_RTOS_V2/cmsis_os2.c ****     else {
1667:Middlewares/Third_Party/FreeRTOS/Source/CMSIS_RTOS_V2/cmsis_os2.c ****       if (xQueueReceive (hQueue, msg_ptr, (TickType_t)timeout) != pdPASS) {
 7216              		.loc 1 1667 0 is_stmt 1
 7217 001e 2246     		mov	r2, r4
 7218              	.LVL671:
 7219 0020 FFF7FEFF 		bl	xQueueReceive
 7220              	.LVL672:
 7221 0024 0128     		cmp	r0, #1
 7222 0026 33D0     		beq	.L794
1668:Middlewares/Third_Party/FreeRTOS/Source/CMSIS_RTOS_V2/cmsis_os2.c ****         if (timeout != 0U) {
 7223              		.loc 1 1668 0
ARM GAS  /tmp/cce47g5y.s 			page 180


 7224 0028 A4B3     		cbz	r4, .L795
1669:Middlewares/Third_Party/FreeRTOS/Source/CMSIS_RTOS_V2/cmsis_os2.c ****           stat = osErrorTimeout;
 7225              		.loc 1 1669 0
 7226 002a 6FF00100 		mvn	r0, #1
 7227 002e 19E0     		b	.L783
 7228              	.LVL673:
 7229              	.L797:
 7230              	.LBB636:
 7231              	.LBB637:
 7232              		.loc 2 465 0
 7233              		.syntax unified
 7234              	@ 465 "Drivers/CMSIS/Include/cmsis_gcc.h" 1
 7235 0030 EFF31183 		MRS r3, basepri
 7236              	@ 0 "" 2
 7237              		.thumb
 7238              		.syntax unified
 7239              	.LBE637:
 7240              	.LBE636:
1648:Middlewares/Third_Party/FreeRTOS/Source/CMSIS_RTOS_V2/cmsis_os2.c ****     if ((hQueue == NULL) || (msg_ptr == NULL) || (timeout != 0U)) {
 7241              		.loc 1 1648 0
 7242 0034 002B     		cmp	r3, #0
 7243 0036 F0D0     		beq	.L785
 7244              	.L784:
1649:Middlewares/Third_Party/FreeRTOS/Source/CMSIS_RTOS_V2/cmsis_os2.c ****       stat = osErrorParameter;
 7245              		.loc 1 1649 0
 7246 0038 B0B1     		cbz	r0, .L787
1649:Middlewares/Third_Party/FreeRTOS/Source/CMSIS_RTOS_V2/cmsis_os2.c ****       stat = osErrorParameter;
 7247              		.loc 1 1649 0 is_stmt 0 discriminator 1
 7248 003a C1B1     		cbz	r1, .L788
1649:Middlewares/Third_Party/FreeRTOS/Source/CMSIS_RTOS_V2/cmsis_os2.c ****       stat = osErrorParameter;
 7249              		.loc 1 1649 0 discriminator 2
 7250 003c D4B9     		cbnz	r4, .L789
1653:Middlewares/Third_Party/FreeRTOS/Source/CMSIS_RTOS_V2/cmsis_os2.c **** 
 7251              		.loc 1 1653 0 is_stmt 1
 7252 003e 02AA     		add	r2, sp, #8
 7253              	.LVL674:
 7254 0040 0023     		movs	r3, #0
 7255 0042 42F8043D 		str	r3, [r2, #-4]!
1655:Middlewares/Third_Party/FreeRTOS/Source/CMSIS_RTOS_V2/cmsis_os2.c ****         stat = osErrorResource;
 7256              		.loc 1 1655 0
 7257 0046 FFF7FEFF 		bl	xQueueReceiveFromISR
 7258              	.LVL675:
 7259 004a 0128     		cmp	r0, #1
 7260 004c 15D1     		bne	.L790
1658:Middlewares/Third_Party/FreeRTOS/Source/CMSIS_RTOS_V2/cmsis_os2.c ****       }
 7261              		.loc 1 1658 0
 7262 004e 019B     		ldr	r3, [sp, #4]
 7263 0050 B3B1     		cbz	r3, .L791
1658:Middlewares/Third_Party/FreeRTOS/Source/CMSIS_RTOS_V2/cmsis_os2.c ****       }
 7264              		.loc 1 1658 0 is_stmt 0 discriminator 1
 7265 0052 4FF08052 		mov	r2, #268435456
 7266 0056 124B     		ldr	r3, .L798+4
 7267 0058 1A60     		str	r2, [r3]
 7268              		.syntax unified
 7269              	@ 1658 "Middlewares/Third_Party/FreeRTOS/Source/CMSIS_RTOS_V2/cmsis_os2.c" 1
 7270 005a BFF34F8F 		dsb
 7271              	@ 0 "" 2
ARM GAS  /tmp/cce47g5y.s 			page 181


 7272              	@ 1658 "Middlewares/Third_Party/FreeRTOS/Source/CMSIS_RTOS_V2/cmsis_os2.c" 1
 7273 005e BFF36F8F 		isb
 7274              	@ 0 "" 2
1646:Middlewares/Third_Party/FreeRTOS/Source/CMSIS_RTOS_V2/cmsis_os2.c **** 
 7275              		.loc 1 1646 0 is_stmt 1 discriminator 1
 7276              		.thumb
 7277              		.syntax unified
 7278 0062 0020     		movs	r0, #0
 7279              	.LVL676:
 7280              	.L783:
1670:Middlewares/Third_Party/FreeRTOS/Source/CMSIS_RTOS_V2/cmsis_os2.c ****         } else {
1671:Middlewares/Third_Party/FreeRTOS/Source/CMSIS_RTOS_V2/cmsis_os2.c ****           stat = osErrorResource;
1672:Middlewares/Third_Party/FreeRTOS/Source/CMSIS_RTOS_V2/cmsis_os2.c ****         }
1673:Middlewares/Third_Party/FreeRTOS/Source/CMSIS_RTOS_V2/cmsis_os2.c ****       }
1674:Middlewares/Third_Party/FreeRTOS/Source/CMSIS_RTOS_V2/cmsis_os2.c ****     }
1675:Middlewares/Third_Party/FreeRTOS/Source/CMSIS_RTOS_V2/cmsis_os2.c ****   }
1676:Middlewares/Third_Party/FreeRTOS/Source/CMSIS_RTOS_V2/cmsis_os2.c **** 
1677:Middlewares/Third_Party/FreeRTOS/Source/CMSIS_RTOS_V2/cmsis_os2.c ****   return (stat);
1678:Middlewares/Third_Party/FreeRTOS/Source/CMSIS_RTOS_V2/cmsis_os2.c **** }
 7281              		.loc 1 1678 0
 7282 0064 02B0     		add	sp, sp, #8
 7283              	.LCFI127:
 7284              		.cfi_remember_state
 7285              		.cfi_def_cfa_offset 8
 7286              		@ sp needed
 7287 0066 10BD     		pop	{r4, pc}
 7288              	.LVL677:
 7289              	.L787:
 7290              	.LCFI128:
 7291              		.cfi_restore_state
1650:Middlewares/Third_Party/FreeRTOS/Source/CMSIS_RTOS_V2/cmsis_os2.c ****     }
 7292              		.loc 1 1650 0
 7293 0068 6FF00300 		mvn	r0, #3
 7294              	.LVL678:
 7295 006c FAE7     		b	.L783
 7296              	.LVL679:
 7297              	.L788:
 7298 006e 6FF00300 		mvn	r0, #3
 7299              	.LVL680:
 7300 0072 F7E7     		b	.L783
 7301              	.LVL681:
 7302              	.L789:
 7303 0074 6FF00300 		mvn	r0, #3
 7304              	.LVL682:
 7305 0078 F4E7     		b	.L783
 7306              	.LVL683:
 7307              	.L790:
1656:Middlewares/Third_Party/FreeRTOS/Source/CMSIS_RTOS_V2/cmsis_os2.c ****       } else {
 7308              		.loc 1 1656 0
 7309 007a 6FF00200 		mvn	r0, #2
 7310 007e F1E7     		b	.L783
 7311              	.L791:
1646:Middlewares/Third_Party/FreeRTOS/Source/CMSIS_RTOS_V2/cmsis_os2.c **** 
 7312              		.loc 1 1646 0
 7313 0080 0020     		movs	r0, #0
 7314 0082 EFE7     		b	.L783
 7315              	.LVL684:
ARM GAS  /tmp/cce47g5y.s 			page 182


 7316              	.L792:
1664:Middlewares/Third_Party/FreeRTOS/Source/CMSIS_RTOS_V2/cmsis_os2.c ****     }
 7317              		.loc 1 1664 0
 7318 0084 6FF00300 		mvn	r0, #3
 7319              	.LVL685:
 7320 0088 ECE7     		b	.L783
 7321              	.LVL686:
 7322              	.L793:
 7323 008a 6FF00300 		mvn	r0, #3
 7324              	.LVL687:
 7325 008e E9E7     		b	.L783
 7326              	.LVL688:
 7327              	.L794:
1646:Middlewares/Third_Party/FreeRTOS/Source/CMSIS_RTOS_V2/cmsis_os2.c **** 
 7328              		.loc 1 1646 0
 7329 0090 0020     		movs	r0, #0
 7330 0092 E7E7     		b	.L783
 7331              	.L795:
1671:Middlewares/Third_Party/FreeRTOS/Source/CMSIS_RTOS_V2/cmsis_os2.c ****         }
 7332              		.loc 1 1671 0
 7333 0094 6FF00200 		mvn	r0, #2
 7334              	.LVL689:
1677:Middlewares/Third_Party/FreeRTOS/Source/CMSIS_RTOS_V2/cmsis_os2.c **** }
 7335              		.loc 1 1677 0
 7336 0098 E4E7     		b	.L783
 7337              	.L799:
 7338 009a 00BF     		.align	2
 7339              	.L798:
 7340 009c 00000000 		.word	.LANCHOR0
 7341 00a0 04ED00E0 		.word	-536810236
 7342              		.cfi_endproc
 7343              	.LFE105:
 7345              		.section	.text.osMessageQueueGetCapacity,"ax",%progbits
 7346              		.align	1
 7347              		.global	osMessageQueueGetCapacity
 7348              		.syntax unified
 7349              		.thumb
 7350              		.thumb_func
 7351              		.fpu softvfp
 7353              	osMessageQueueGetCapacity:
 7354              	.LFB106:
1679:Middlewares/Third_Party/FreeRTOS/Source/CMSIS_RTOS_V2/cmsis_os2.c **** 
1680:Middlewares/Third_Party/FreeRTOS/Source/CMSIS_RTOS_V2/cmsis_os2.c **** uint32_t osMessageQueueGetCapacity (osMessageQueueId_t mq_id) {
 7355              		.loc 1 1680 0
 7356              		.cfi_startproc
 7357              		@ args = 0, pretend = 0, frame = 0
 7358              		@ frame_needed = 0, uses_anonymous_args = 0
 7359              		@ link register save eliminated.
 7360              	.LVL690:
1681:Middlewares/Third_Party/FreeRTOS/Source/CMSIS_RTOS_V2/cmsis_os2.c ****   StaticQueue_t *mq = (StaticQueue_t *)mq_id;
1682:Middlewares/Third_Party/FreeRTOS/Source/CMSIS_RTOS_V2/cmsis_os2.c ****   uint32_t capacity;
1683:Middlewares/Third_Party/FreeRTOS/Source/CMSIS_RTOS_V2/cmsis_os2.c **** 
1684:Middlewares/Third_Party/FreeRTOS/Source/CMSIS_RTOS_V2/cmsis_os2.c ****   if (mq == NULL) {
 7361              		.loc 1 1684 0
 7362 0000 08B1     		cbz	r0, .L802
1685:Middlewares/Third_Party/FreeRTOS/Source/CMSIS_RTOS_V2/cmsis_os2.c ****     capacity = 0U;
1686:Middlewares/Third_Party/FreeRTOS/Source/CMSIS_RTOS_V2/cmsis_os2.c ****   } else {
ARM GAS  /tmp/cce47g5y.s 			page 183


1687:Middlewares/Third_Party/FreeRTOS/Source/CMSIS_RTOS_V2/cmsis_os2.c ****     /* capacity = pxQueue->uxLength */
1688:Middlewares/Third_Party/FreeRTOS/Source/CMSIS_RTOS_V2/cmsis_os2.c ****     capacity = mq->uxDummy4[1];
 7363              		.loc 1 1688 0
 7364 0002 C06B     		ldr	r0, [r0, #60]
 7365              	.LVL691:
 7366 0004 7047     		bx	lr
 7367              	.LVL692:
 7368              	.L802:
1685:Middlewares/Third_Party/FreeRTOS/Source/CMSIS_RTOS_V2/cmsis_os2.c ****     capacity = 0U;
 7369              		.loc 1 1685 0
 7370 0006 0020     		movs	r0, #0
 7371              	.LVL693:
1689:Middlewares/Third_Party/FreeRTOS/Source/CMSIS_RTOS_V2/cmsis_os2.c ****   }
1690:Middlewares/Third_Party/FreeRTOS/Source/CMSIS_RTOS_V2/cmsis_os2.c **** 
1691:Middlewares/Third_Party/FreeRTOS/Source/CMSIS_RTOS_V2/cmsis_os2.c ****   return (capacity);
1692:Middlewares/Third_Party/FreeRTOS/Source/CMSIS_RTOS_V2/cmsis_os2.c **** }
 7372              		.loc 1 1692 0
 7373 0008 7047     		bx	lr
 7374              		.cfi_endproc
 7375              	.LFE106:
 7377              		.section	.text.osMessageQueueGetMsgSize,"ax",%progbits
 7378              		.align	1
 7379              		.global	osMessageQueueGetMsgSize
 7380              		.syntax unified
 7381              		.thumb
 7382              		.thumb_func
 7383              		.fpu softvfp
 7385              	osMessageQueueGetMsgSize:
 7386              	.LFB107:
1693:Middlewares/Third_Party/FreeRTOS/Source/CMSIS_RTOS_V2/cmsis_os2.c **** 
1694:Middlewares/Third_Party/FreeRTOS/Source/CMSIS_RTOS_V2/cmsis_os2.c **** uint32_t osMessageQueueGetMsgSize (osMessageQueueId_t mq_id) {
 7387              		.loc 1 1694 0
 7388              		.cfi_startproc
 7389              		@ args = 0, pretend = 0, frame = 0
 7390              		@ frame_needed = 0, uses_anonymous_args = 0
 7391              		@ link register save eliminated.
 7392              	.LVL694:
1695:Middlewares/Third_Party/FreeRTOS/Source/CMSIS_RTOS_V2/cmsis_os2.c ****   StaticQueue_t *mq = (StaticQueue_t *)mq_id;
1696:Middlewares/Third_Party/FreeRTOS/Source/CMSIS_RTOS_V2/cmsis_os2.c ****   uint32_t size;
1697:Middlewares/Third_Party/FreeRTOS/Source/CMSIS_RTOS_V2/cmsis_os2.c **** 
1698:Middlewares/Third_Party/FreeRTOS/Source/CMSIS_RTOS_V2/cmsis_os2.c ****   if (mq == NULL) {
 7393              		.loc 1 1698 0
 7394 0000 08B1     		cbz	r0, .L805
1699:Middlewares/Third_Party/FreeRTOS/Source/CMSIS_RTOS_V2/cmsis_os2.c ****     size = 0U;
1700:Middlewares/Third_Party/FreeRTOS/Source/CMSIS_RTOS_V2/cmsis_os2.c ****   } else {
1701:Middlewares/Third_Party/FreeRTOS/Source/CMSIS_RTOS_V2/cmsis_os2.c ****     /* size = pxQueue->uxItemSize */
1702:Middlewares/Third_Party/FreeRTOS/Source/CMSIS_RTOS_V2/cmsis_os2.c ****     size = mq->uxDummy4[2];
 7395              		.loc 1 1702 0
 7396 0002 006C     		ldr	r0, [r0, #64]
 7397              	.LVL695:
 7398 0004 7047     		bx	lr
 7399              	.LVL696:
 7400              	.L805:
1699:Middlewares/Third_Party/FreeRTOS/Source/CMSIS_RTOS_V2/cmsis_os2.c ****     size = 0U;
 7401              		.loc 1 1699 0
 7402 0006 0020     		movs	r0, #0
 7403              	.LVL697:
ARM GAS  /tmp/cce47g5y.s 			page 184


1703:Middlewares/Third_Party/FreeRTOS/Source/CMSIS_RTOS_V2/cmsis_os2.c ****   }
1704:Middlewares/Third_Party/FreeRTOS/Source/CMSIS_RTOS_V2/cmsis_os2.c **** 
1705:Middlewares/Third_Party/FreeRTOS/Source/CMSIS_RTOS_V2/cmsis_os2.c ****   return (size);
1706:Middlewares/Third_Party/FreeRTOS/Source/CMSIS_RTOS_V2/cmsis_os2.c **** }
 7404              		.loc 1 1706 0
 7405 0008 7047     		bx	lr
 7406              		.cfi_endproc
 7407              	.LFE107:
 7409              		.section	.text.osMessageQueueGetCount,"ax",%progbits
 7410              		.align	1
 7411              		.global	osMessageQueueGetCount
 7412              		.syntax unified
 7413              		.thumb
 7414              		.thumb_func
 7415              		.fpu softvfp
 7417              	osMessageQueueGetCount:
 7418              	.LFB108:
1707:Middlewares/Third_Party/FreeRTOS/Source/CMSIS_RTOS_V2/cmsis_os2.c **** 
1708:Middlewares/Third_Party/FreeRTOS/Source/CMSIS_RTOS_V2/cmsis_os2.c **** uint32_t osMessageQueueGetCount (osMessageQueueId_t mq_id) {
 7419              		.loc 1 1708 0
 7420              		.cfi_startproc
 7421              		@ args = 0, pretend = 0, frame = 0
 7422              		@ frame_needed = 0, uses_anonymous_args = 0
 7423              	.LVL698:
1709:Middlewares/Third_Party/FreeRTOS/Source/CMSIS_RTOS_V2/cmsis_os2.c ****   QueueHandle_t hQueue = (QueueHandle_t)mq_id;
1710:Middlewares/Third_Party/FreeRTOS/Source/CMSIS_RTOS_V2/cmsis_os2.c ****   UBaseType_t count;
1711:Middlewares/Third_Party/FreeRTOS/Source/CMSIS_RTOS_V2/cmsis_os2.c **** 
1712:Middlewares/Third_Party/FreeRTOS/Source/CMSIS_RTOS_V2/cmsis_os2.c ****   if (hQueue == NULL) {
 7424              		.loc 1 1712 0
 7425 0000 A0B1     		cbz	r0, .L810
1708:Middlewares/Third_Party/FreeRTOS/Source/CMSIS_RTOS_V2/cmsis_os2.c ****   QueueHandle_t hQueue = (QueueHandle_t)mq_id;
 7426              		.loc 1 1708 0
 7427 0002 08B5     		push	{r3, lr}
 7428              	.LCFI129:
 7429              		.cfi_def_cfa_offset 8
 7430              		.cfi_offset 3, -8
 7431              		.cfi_offset 14, -4
 7432              	.LBB638:
 7433              	.LBB639:
 209:Drivers/CMSIS/Include/cmsis_gcc.h ****   return(result);
 7434              		.loc 2 209 0
 7435              		.syntax unified
 7436              	@ 209 "Drivers/CMSIS/Include/cmsis_gcc.h" 1
 7437 0004 EFF30583 		MRS r3, ipsr
 7438              	@ 0 "" 2
 7439              		.thumb
 7440              		.syntax unified
 7441              	.LBE639:
 7442              	.LBE638:
1713:Middlewares/Third_Party/FreeRTOS/Source/CMSIS_RTOS_V2/cmsis_os2.c ****     count = 0U;
1714:Middlewares/Third_Party/FreeRTOS/Source/CMSIS_RTOS_V2/cmsis_os2.c ****   }
1715:Middlewares/Third_Party/FreeRTOS/Source/CMSIS_RTOS_V2/cmsis_os2.c ****   else if (IS_IRQ()) {
 7443              		.loc 1 1715 0
 7444 0008 6BB9     		cbnz	r3, .L808
 7445              	.LBB640:
 7446              	.LBB641:
 386:Drivers/CMSIS/Include/cmsis_gcc.h ****   return(result);
ARM GAS  /tmp/cce47g5y.s 			page 185


 7447              		.loc 2 386 0
 7448              		.syntax unified
 7449              	@ 386 "Drivers/CMSIS/Include/cmsis_gcc.h" 1
 7450 000a EFF31083 		MRS r3, primask
 7451              	@ 0 "" 2
 7452              		.thumb
 7453              		.syntax unified
 7454              	.LBE641:
 7455              	.LBE640:
 7456              		.loc 1 1715 0
 7457 000e 53B9     		cbnz	r3, .L808
 7458              		.loc 1 1715 0 is_stmt 0 discriminator 2
 7459 0010 074B     		ldr	r3, .L816
 7460 0012 1B68     		ldr	r3, [r3]
 7461 0014 022B     		cmp	r3, #2
 7462 0016 02D0     		beq	.L815
 7463              	.L809:
1716:Middlewares/Third_Party/FreeRTOS/Source/CMSIS_RTOS_V2/cmsis_os2.c ****     count = uxQueueMessagesWaitingFromISR (hQueue);
1717:Middlewares/Third_Party/FreeRTOS/Source/CMSIS_RTOS_V2/cmsis_os2.c ****   }
1718:Middlewares/Third_Party/FreeRTOS/Source/CMSIS_RTOS_V2/cmsis_os2.c ****   else {
1719:Middlewares/Third_Party/FreeRTOS/Source/CMSIS_RTOS_V2/cmsis_os2.c ****     count = uxQueueMessagesWaiting (hQueue);
 7464              		.loc 1 1719 0 is_stmt 1
 7465 0018 FFF7FEFF 		bl	uxQueueMessagesWaiting
 7466              	.LVL699:
 7467 001c 08BD     		pop	{r3, pc}
 7468              	.LVL700:
 7469              	.L815:
 7470              	.LBB642:
 7471              	.LBB643:
 7472              		.loc 2 465 0
 7473              		.syntax unified
 7474              	@ 465 "Drivers/CMSIS/Include/cmsis_gcc.h" 1
 7475 001e EFF31183 		MRS r3, basepri
 7476              	@ 0 "" 2
 7477              		.thumb
 7478              		.syntax unified
 7479              	.LBE643:
 7480              	.LBE642:
1715:Middlewares/Third_Party/FreeRTOS/Source/CMSIS_RTOS_V2/cmsis_os2.c ****     count = uxQueueMessagesWaitingFromISR (hQueue);
 7481              		.loc 1 1715 0
 7482 0022 002B     		cmp	r3, #0
 7483 0024 F8D0     		beq	.L809
 7484              	.L808:
1716:Middlewares/Third_Party/FreeRTOS/Source/CMSIS_RTOS_V2/cmsis_os2.c ****     count = uxQueueMessagesWaitingFromISR (hQueue);
 7485              		.loc 1 1716 0
 7486 0026 FFF7FEFF 		bl	uxQueueMessagesWaitingFromISR
 7487              	.LVL701:
 7488 002a 08BD     		pop	{r3, pc}
 7489              	.LVL702:
 7490              	.L810:
 7491              	.LCFI130:
 7492              		.cfi_def_cfa_offset 0
 7493              		.cfi_restore 3
 7494              		.cfi_restore 14
1713:Middlewares/Third_Party/FreeRTOS/Source/CMSIS_RTOS_V2/cmsis_os2.c ****   }
 7495              		.loc 1 1713 0
 7496 002c 0020     		movs	r0, #0
ARM GAS  /tmp/cce47g5y.s 			page 186


 7497              	.LVL703:
1720:Middlewares/Third_Party/FreeRTOS/Source/CMSIS_RTOS_V2/cmsis_os2.c ****   }
1721:Middlewares/Third_Party/FreeRTOS/Source/CMSIS_RTOS_V2/cmsis_os2.c **** 
1722:Middlewares/Third_Party/FreeRTOS/Source/CMSIS_RTOS_V2/cmsis_os2.c ****   return ((uint32_t)count);
 7498              		.loc 1 1722 0
 7499 002e 7047     		bx	lr
 7500              	.L817:
 7501              		.align	2
 7502              	.L816:
 7503 0030 00000000 		.word	.LANCHOR0
 7504              		.cfi_endproc
 7505              	.LFE108:
 7507              		.section	.text.osMessageQueueGetSpace,"ax",%progbits
 7508              		.align	1
 7509              		.global	osMessageQueueGetSpace
 7510              		.syntax unified
 7511              		.thumb
 7512              		.thumb_func
 7513              		.fpu softvfp
 7515              	osMessageQueueGetSpace:
 7516              	.LFB109:
1723:Middlewares/Third_Party/FreeRTOS/Source/CMSIS_RTOS_V2/cmsis_os2.c **** }
1724:Middlewares/Third_Party/FreeRTOS/Source/CMSIS_RTOS_V2/cmsis_os2.c **** 
1725:Middlewares/Third_Party/FreeRTOS/Source/CMSIS_RTOS_V2/cmsis_os2.c **** uint32_t osMessageQueueGetSpace (osMessageQueueId_t mq_id) {
 7517              		.loc 1 1725 0
 7518              		.cfi_startproc
 7519              		@ args = 0, pretend = 0, frame = 0
 7520              		@ frame_needed = 0, uses_anonymous_args = 0
 7521              	.LVL704:
1726:Middlewares/Third_Party/FreeRTOS/Source/CMSIS_RTOS_V2/cmsis_os2.c ****   StaticQueue_t *mq = (StaticQueue_t *)mq_id;
1727:Middlewares/Third_Party/FreeRTOS/Source/CMSIS_RTOS_V2/cmsis_os2.c ****   uint32_t space;
1728:Middlewares/Third_Party/FreeRTOS/Source/CMSIS_RTOS_V2/cmsis_os2.c ****   uint32_t isrm;
1729:Middlewares/Third_Party/FreeRTOS/Source/CMSIS_RTOS_V2/cmsis_os2.c **** 
1730:Middlewares/Third_Party/FreeRTOS/Source/CMSIS_RTOS_V2/cmsis_os2.c ****   if (mq == NULL) {
 7522              		.loc 1 1730 0
 7523 0000 18B3     		cbz	r0, .L822
1725:Middlewares/Third_Party/FreeRTOS/Source/CMSIS_RTOS_V2/cmsis_os2.c ****   StaticQueue_t *mq = (StaticQueue_t *)mq_id;
 7524              		.loc 1 1725 0
 7525 0002 08B5     		push	{r3, lr}
 7526              	.LCFI131:
 7527              		.cfi_def_cfa_offset 8
 7528              		.cfi_offset 3, -8
 7529              		.cfi_offset 14, -4
 7530 0004 0346     		mov	r3, r0
 7531              	.LBB644:
 7532              	.LBB645:
 209:Drivers/CMSIS/Include/cmsis_gcc.h ****   return(result);
 7533              		.loc 2 209 0
 7534              		.syntax unified
 7535              	@ 209 "Drivers/CMSIS/Include/cmsis_gcc.h" 1
 7536 0006 EFF30582 		MRS r2, ipsr
 7537              	@ 0 "" 2
 7538              		.thumb
 7539              		.syntax unified
 7540              	.LBE645:
 7541              	.LBE644:
1731:Middlewares/Third_Party/FreeRTOS/Source/CMSIS_RTOS_V2/cmsis_os2.c ****     space = 0U;
ARM GAS  /tmp/cce47g5y.s 			page 187


1732:Middlewares/Third_Party/FreeRTOS/Source/CMSIS_RTOS_V2/cmsis_os2.c ****   }
1733:Middlewares/Third_Party/FreeRTOS/Source/CMSIS_RTOS_V2/cmsis_os2.c ****   else if (IS_IRQ()) {
 7542              		.loc 1 1733 0
 7543 000a 72B9     		cbnz	r2, .L820
 7544              	.LBB646:
 7545              	.LBB647:
 386:Drivers/CMSIS/Include/cmsis_gcc.h ****   return(result);
 7546              		.loc 2 386 0
 7547              		.syntax unified
 7548              	@ 386 "Drivers/CMSIS/Include/cmsis_gcc.h" 1
 7549 000c EFF31082 		MRS r2, primask
 7550              	@ 0 "" 2
 7551              		.thumb
 7552              		.syntax unified
 7553              	.LBE647:
 7554              	.LBE646:
 7555              		.loc 1 1733 0
 7556 0010 5AB9     		cbnz	r2, .L820
 7557              		.loc 1 1733 0 is_stmt 0 discriminator 2
 7558 0012 0F4A     		ldr	r2, .L828
 7559 0014 1268     		ldr	r2, [r2]
 7560 0016 022A     		cmp	r2, #2
 7561 0018 03D0     		beq	.L827
 7562              	.L821:
 7563 001a 1846     		mov	r0, r3
 7564              	.LVL705:
1734:Middlewares/Third_Party/FreeRTOS/Source/CMSIS_RTOS_V2/cmsis_os2.c ****     isrm = taskENTER_CRITICAL_FROM_ISR();
1735:Middlewares/Third_Party/FreeRTOS/Source/CMSIS_RTOS_V2/cmsis_os2.c **** 
1736:Middlewares/Third_Party/FreeRTOS/Source/CMSIS_RTOS_V2/cmsis_os2.c ****     /* space = pxQueue->uxLength - pxQueue->uxMessagesWaiting; */
1737:Middlewares/Third_Party/FreeRTOS/Source/CMSIS_RTOS_V2/cmsis_os2.c ****     space = mq->uxDummy4[1] - mq->uxDummy4[0];
1738:Middlewares/Third_Party/FreeRTOS/Source/CMSIS_RTOS_V2/cmsis_os2.c **** 
1739:Middlewares/Third_Party/FreeRTOS/Source/CMSIS_RTOS_V2/cmsis_os2.c ****     taskEXIT_CRITICAL_FROM_ISR(isrm);
1740:Middlewares/Third_Party/FreeRTOS/Source/CMSIS_RTOS_V2/cmsis_os2.c ****   }
1741:Middlewares/Third_Party/FreeRTOS/Source/CMSIS_RTOS_V2/cmsis_os2.c ****   else {
1742:Middlewares/Third_Party/FreeRTOS/Source/CMSIS_RTOS_V2/cmsis_os2.c ****     space = (uint32_t)uxQueueSpacesAvailable ((QueueHandle_t)mq);
 7565              		.loc 1 1742 0 is_stmt 1
 7566 001c FFF7FEFF 		bl	uxQueueSpacesAvailable
 7567              	.LVL706:
 7568 0020 08BD     		pop	{r3, pc}
 7569              	.LVL707:
 7570              	.L827:
 7571              	.LBB648:
 7572              	.LBB649:
 7573              		.loc 2 465 0
 7574              		.syntax unified
 7575              	@ 465 "Drivers/CMSIS/Include/cmsis_gcc.h" 1
 7576 0022 EFF31182 		MRS r2, basepri
 7577              	@ 0 "" 2
 7578              		.thumb
 7579              		.syntax unified
 7580              	.LBE649:
 7581              	.LBE648:
1733:Middlewares/Third_Party/FreeRTOS/Source/CMSIS_RTOS_V2/cmsis_os2.c ****     isrm = taskENTER_CRITICAL_FROM_ISR();
 7582              		.loc 1 1733 0
 7583 0026 002A     		cmp	r2, #0
 7584 0028 F7D0     		beq	.L821
 7585              	.L820:
ARM GAS  /tmp/cce47g5y.s 			page 188


 7586              	.LBB650:
 7587              	.LBB651:
 211:Middlewares/Third_Party/FreeRTOS/Source/portable/GCC/ARM_CM3/portmacro.h **** 	(
 7588              		.loc 3 211 0
 7589              		.syntax unified
 7590              	@ 211 "Middlewares/Third_Party/FreeRTOS/Source/portable/GCC/ARM_CM3/portmacro.h" 1
 7591 002a EFF31182 			mrs r2, basepri											
 7592 002e 4FF05001 		mov r1, #80												
 7593 0032 81F31188 		msr basepri, r1											
 7594 0036 BFF36F8F 		isb														
 7595 003a BFF34F8F 		dsb														
 7596              	
 7597              	@ 0 "" 2
 7598              		.thumb
 7599              		.syntax unified
 7600              	.LBE651:
 7601              	.LBE650:
1737:Middlewares/Third_Party/FreeRTOS/Source/CMSIS_RTOS_V2/cmsis_os2.c **** 
 7602              		.loc 1 1737 0
 7603 003e D86B     		ldr	r0, [r3, #60]
 7604              	.LVL708:
 7605 0040 9B6B     		ldr	r3, [r3, #56]
 7606              	.LVL709:
 7607 0042 C01A     		subs	r0, r0, r3
 7608              	.LVL710:
 7609              	.LBB652:
 7610              	.LBB653:
 7611              		.loc 3 229 0
 7612              		.syntax unified
 7613              	@ 229 "Middlewares/Third_Party/FreeRTOS/Source/portable/GCC/ARM_CM3/portmacro.h" 1
 7614 0044 82F31188 			msr basepri, r2	
 7615              	@ 0 "" 2
 7616              		.thumb
 7617              		.syntax unified
 7618 0048 08BD     		pop	{r3, pc}
 7619              	.LVL711:
 7620              	.L822:
 7621              	.LCFI132:
 7622              		.cfi_def_cfa_offset 0
 7623              		.cfi_restore 3
 7624              		.cfi_restore 14
 7625              	.LBE653:
 7626              	.LBE652:
1731:Middlewares/Third_Party/FreeRTOS/Source/CMSIS_RTOS_V2/cmsis_os2.c ****   }
 7627              		.loc 1 1731 0
 7628 004a 0020     		movs	r0, #0
 7629              	.LVL712:
1743:Middlewares/Third_Party/FreeRTOS/Source/CMSIS_RTOS_V2/cmsis_os2.c ****   }
1744:Middlewares/Third_Party/FreeRTOS/Source/CMSIS_RTOS_V2/cmsis_os2.c **** 
1745:Middlewares/Third_Party/FreeRTOS/Source/CMSIS_RTOS_V2/cmsis_os2.c ****   return (space);
 7630              		.loc 1 1745 0
 7631 004c 7047     		bx	lr
 7632              	.L829:
 7633 004e 00BF     		.align	2
 7634              	.L828:
 7635 0050 00000000 		.word	.LANCHOR0
 7636              		.cfi_endproc
ARM GAS  /tmp/cce47g5y.s 			page 189


 7637              	.LFE109:
 7639              		.section	.text.osMessageQueueReset,"ax",%progbits
 7640              		.align	1
 7641              		.global	osMessageQueueReset
 7642              		.syntax unified
 7643              		.thumb
 7644              		.thumb_func
 7645              		.fpu softvfp
 7647              	osMessageQueueReset:
 7648              	.LFB110:
1746:Middlewares/Third_Party/FreeRTOS/Source/CMSIS_RTOS_V2/cmsis_os2.c **** }
1747:Middlewares/Third_Party/FreeRTOS/Source/CMSIS_RTOS_V2/cmsis_os2.c **** 
1748:Middlewares/Third_Party/FreeRTOS/Source/CMSIS_RTOS_V2/cmsis_os2.c **** osStatus_t osMessageQueueReset (osMessageQueueId_t mq_id) {
 7649              		.loc 1 1748 0
 7650              		.cfi_startproc
 7651              		@ args = 0, pretend = 0, frame = 0
 7652              		@ frame_needed = 0, uses_anonymous_args = 0
 7653              	.LVL713:
 7654 0000 08B5     		push	{r3, lr}
 7655              	.LCFI133:
 7656              		.cfi_def_cfa_offset 8
 7657              		.cfi_offset 3, -8
 7658              		.cfi_offset 14, -4
 7659              	.LVL714:
 7660              	.LBB654:
 7661              	.LBB655:
 209:Drivers/CMSIS/Include/cmsis_gcc.h ****   return(result);
 7662              		.loc 2 209 0
 7663              		.syntax unified
 7664              	@ 209 "Drivers/CMSIS/Include/cmsis_gcc.h" 1
 7665 0002 EFF30583 		MRS r3, ipsr
 7666              	@ 0 "" 2
 7667              		.thumb
 7668              		.syntax unified
 7669              	.LBE655:
 7670              	.LBE654:
1749:Middlewares/Third_Party/FreeRTOS/Source/CMSIS_RTOS_V2/cmsis_os2.c ****   QueueHandle_t hQueue = (QueueHandle_t)mq_id;
1750:Middlewares/Third_Party/FreeRTOS/Source/CMSIS_RTOS_V2/cmsis_os2.c ****   osStatus_t stat;
1751:Middlewares/Third_Party/FreeRTOS/Source/CMSIS_RTOS_V2/cmsis_os2.c **** 
1752:Middlewares/Third_Party/FreeRTOS/Source/CMSIS_RTOS_V2/cmsis_os2.c ****   if (IS_IRQ()) {
 7671              		.loc 1 1752 0
 7672 0006 9BB9     		cbnz	r3, .L833
 7673              	.LBB656:
 7674              	.LBB657:
 386:Drivers/CMSIS/Include/cmsis_gcc.h ****   return(result);
 7675              		.loc 2 386 0
 7676              		.syntax unified
 7677              	@ 386 "Drivers/CMSIS/Include/cmsis_gcc.h" 1
 7678 0008 EFF31083 		MRS r3, primask
 7679              	@ 0 "" 2
 7680              		.thumb
 7681              		.syntax unified
 7682              	.LBE657:
 7683              	.LBE656:
 7684              		.loc 1 1752 0
 7685 000c 9BB9     		cbnz	r3, .L834
 7686              		.loc 1 1752 0 is_stmt 0 discriminator 2
ARM GAS  /tmp/cce47g5y.s 			page 190


 7687 000e 0D4B     		ldr	r3, .L839
 7688 0010 1B68     		ldr	r3, [r3]
 7689 0012 022B     		cmp	r3, #2
 7690 0014 05D0     		beq	.L838
 7691              	.L832:
1753:Middlewares/Third_Party/FreeRTOS/Source/CMSIS_RTOS_V2/cmsis_os2.c ****     stat = osErrorISR;
1754:Middlewares/Third_Party/FreeRTOS/Source/CMSIS_RTOS_V2/cmsis_os2.c ****   }
1755:Middlewares/Third_Party/FreeRTOS/Source/CMSIS_RTOS_V2/cmsis_os2.c ****   else if (hQueue == NULL) {
 7692              		.loc 1 1755 0 is_stmt 1
 7693 0016 88B1     		cbz	r0, .L836
 7694              	.LVL715:
1756:Middlewares/Third_Party/FreeRTOS/Source/CMSIS_RTOS_V2/cmsis_os2.c ****     stat = osErrorParameter;
1757:Middlewares/Third_Party/FreeRTOS/Source/CMSIS_RTOS_V2/cmsis_os2.c ****   }
1758:Middlewares/Third_Party/FreeRTOS/Source/CMSIS_RTOS_V2/cmsis_os2.c ****   else {
1759:Middlewares/Third_Party/FreeRTOS/Source/CMSIS_RTOS_V2/cmsis_os2.c ****     stat = osOK;
1760:Middlewares/Third_Party/FreeRTOS/Source/CMSIS_RTOS_V2/cmsis_os2.c ****     (void)xQueueReset (hQueue);
 7695              		.loc 1 1760 0
 7696 0018 0021     		movs	r1, #0
 7697 001a FFF7FEFF 		bl	xQueueGenericReset
 7698              	.LVL716:
1759:Middlewares/Third_Party/FreeRTOS/Source/CMSIS_RTOS_V2/cmsis_os2.c ****     (void)xQueueReset (hQueue);
 7699              		.loc 1 1759 0
 7700 001e 0020     		movs	r0, #0
 7701 0020 08BD     		pop	{r3, pc}
 7702              	.LVL717:
 7703              	.L838:
 7704              	.LBB658:
 7705              	.LBB659:
 7706              		.loc 2 465 0
 7707              		.syntax unified
 7708              	@ 465 "Drivers/CMSIS/Include/cmsis_gcc.h" 1
 7709 0022 EFF31183 		MRS r3, basepri
 7710              	@ 0 "" 2
 7711              		.thumb
 7712              		.syntax unified
 7713              	.LBE659:
 7714              	.LBE658:
1752:Middlewares/Third_Party/FreeRTOS/Source/CMSIS_RTOS_V2/cmsis_os2.c ****     stat = osErrorISR;
 7715              		.loc 1 1752 0
 7716 0026 002B     		cmp	r3, #0
 7717 0028 F5D0     		beq	.L832
1753:Middlewares/Third_Party/FreeRTOS/Source/CMSIS_RTOS_V2/cmsis_os2.c ****   }
 7718              		.loc 1 1753 0
 7719 002a 6FF00500 		mvn	r0, #5
 7720              	.LVL718:
 7721 002e 08BD     		pop	{r3, pc}
 7722              	.LVL719:
 7723              	.L833:
 7724 0030 6FF00500 		mvn	r0, #5
 7725              	.LVL720:
 7726 0034 08BD     		pop	{r3, pc}
 7727              	.LVL721:
 7728              	.L834:
 7729 0036 6FF00500 		mvn	r0, #5
 7730              	.LVL722:
 7731 003a 08BD     		pop	{r3, pc}
 7732              	.LVL723:
ARM GAS  /tmp/cce47g5y.s 			page 191


 7733              	.L836:
1756:Middlewares/Third_Party/FreeRTOS/Source/CMSIS_RTOS_V2/cmsis_os2.c ****   }
 7734              		.loc 1 1756 0
 7735 003c 6FF00300 		mvn	r0, #3
 7736              	.LVL724:
1761:Middlewares/Third_Party/FreeRTOS/Source/CMSIS_RTOS_V2/cmsis_os2.c ****   }
1762:Middlewares/Third_Party/FreeRTOS/Source/CMSIS_RTOS_V2/cmsis_os2.c **** 
1763:Middlewares/Third_Party/FreeRTOS/Source/CMSIS_RTOS_V2/cmsis_os2.c ****   return (stat);
1764:Middlewares/Third_Party/FreeRTOS/Source/CMSIS_RTOS_V2/cmsis_os2.c **** }
 7737              		.loc 1 1764 0
 7738 0040 08BD     		pop	{r3, pc}
 7739              	.L840:
 7740 0042 00BF     		.align	2
 7741              	.L839:
 7742 0044 00000000 		.word	.LANCHOR0
 7743              		.cfi_endproc
 7744              	.LFE110:
 7746              		.section	.text.osMessageQueueDelete,"ax",%progbits
 7747              		.align	1
 7748              		.global	osMessageQueueDelete
 7749              		.syntax unified
 7750              		.thumb
 7751              		.thumb_func
 7752              		.fpu softvfp
 7754              	osMessageQueueDelete:
 7755              	.LFB111:
1765:Middlewares/Third_Party/FreeRTOS/Source/CMSIS_RTOS_V2/cmsis_os2.c **** 
1766:Middlewares/Third_Party/FreeRTOS/Source/CMSIS_RTOS_V2/cmsis_os2.c **** osStatus_t osMessageQueueDelete (osMessageQueueId_t mq_id) {
 7756              		.loc 1 1766 0
 7757              		.cfi_startproc
 7758              		@ args = 0, pretend = 0, frame = 0
 7759              		@ frame_needed = 0, uses_anonymous_args = 0
 7760              	.LVL725:
 7761              	.LBB660:
 7762              	.LBB661:
 209:Drivers/CMSIS/Include/cmsis_gcc.h ****   return(result);
 7763              		.loc 2 209 0
 7764              		.syntax unified
 7765              	@ 209 "Drivers/CMSIS/Include/cmsis_gcc.h" 1
 7766 0000 EFF30583 		MRS r3, ipsr
 7767              	@ 0 "" 2
 7768              		.thumb
 7769              		.syntax unified
 7770              	.LBE661:
 7771              	.LBE660:
1767:Middlewares/Third_Party/FreeRTOS/Source/CMSIS_RTOS_V2/cmsis_os2.c ****   QueueHandle_t hQueue = (QueueHandle_t)mq_id;
1768:Middlewares/Third_Party/FreeRTOS/Source/CMSIS_RTOS_V2/cmsis_os2.c ****   osStatus_t stat;
1769:Middlewares/Third_Party/FreeRTOS/Source/CMSIS_RTOS_V2/cmsis_os2.c **** 
1770:Middlewares/Third_Party/FreeRTOS/Source/CMSIS_RTOS_V2/cmsis_os2.c **** #ifndef USE_FreeRTOS_HEAP_1
1771:Middlewares/Third_Party/FreeRTOS/Source/CMSIS_RTOS_V2/cmsis_os2.c ****   if (IS_IRQ()) {
 7772              		.loc 1 1771 0
 7773 0004 BBB9     		cbnz	r3, .L844
 7774              	.LBB662:
 7775              	.LBB663:
 386:Drivers/CMSIS/Include/cmsis_gcc.h ****   return(result);
 7776              		.loc 2 386 0
 7777              		.syntax unified
ARM GAS  /tmp/cce47g5y.s 			page 192


 7778              	@ 386 "Drivers/CMSIS/Include/cmsis_gcc.h" 1
 7779 0006 EFF31083 		MRS r3, primask
 7780              	@ 0 "" 2
 7781              		.thumb
 7782              		.syntax unified
 7783              	.LBE663:
 7784              	.LBE662:
 7785              		.loc 1 1771 0
 7786 000a BBB9     		cbnz	r3, .L845
 7787              		.loc 1 1771 0 is_stmt 0 discriminator 2
 7788 000c 0E4B     		ldr	r3, .L853
 7789 000e 1B68     		ldr	r3, [r3]
 7790 0010 022B     		cmp	r3, #2
 7791 0012 09D0     		beq	.L852
 7792              	.L843:
1772:Middlewares/Third_Party/FreeRTOS/Source/CMSIS_RTOS_V2/cmsis_os2.c ****     stat = osErrorISR;
1773:Middlewares/Third_Party/FreeRTOS/Source/CMSIS_RTOS_V2/cmsis_os2.c ****   }
1774:Middlewares/Third_Party/FreeRTOS/Source/CMSIS_RTOS_V2/cmsis_os2.c ****   else if (hQueue == NULL) {
 7793              		.loc 1 1774 0 is_stmt 1
 7794 0014 A8B1     		cbz	r0, .L847
1766:Middlewares/Third_Party/FreeRTOS/Source/CMSIS_RTOS_V2/cmsis_os2.c ****   QueueHandle_t hQueue = (QueueHandle_t)mq_id;
 7795              		.loc 1 1766 0
 7796 0016 10B5     		push	{r4, lr}
 7797              	.LCFI134:
 7798              		.cfi_def_cfa_offset 8
 7799              		.cfi_offset 4, -8
 7800              		.cfi_offset 14, -4
 7801 0018 0446     		mov	r4, r0
1775:Middlewares/Third_Party/FreeRTOS/Source/CMSIS_RTOS_V2/cmsis_os2.c ****     stat = osErrorParameter;
1776:Middlewares/Third_Party/FreeRTOS/Source/CMSIS_RTOS_V2/cmsis_os2.c ****   }
1777:Middlewares/Third_Party/FreeRTOS/Source/CMSIS_RTOS_V2/cmsis_os2.c ****   else {
1778:Middlewares/Third_Party/FreeRTOS/Source/CMSIS_RTOS_V2/cmsis_os2.c ****     #if (configQUEUE_REGISTRY_SIZE > 0)
1779:Middlewares/Third_Party/FreeRTOS/Source/CMSIS_RTOS_V2/cmsis_os2.c ****     vQueueUnregisterQueue (hQueue);
 7802              		.loc 1 1779 0
 7803 001a FFF7FEFF 		bl	vQueueUnregisterQueue
 7804              	.LVL726:
1780:Middlewares/Third_Party/FreeRTOS/Source/CMSIS_RTOS_V2/cmsis_os2.c ****     #endif
1781:Middlewares/Third_Party/FreeRTOS/Source/CMSIS_RTOS_V2/cmsis_os2.c **** 
1782:Middlewares/Third_Party/FreeRTOS/Source/CMSIS_RTOS_V2/cmsis_os2.c ****     stat = osOK;
1783:Middlewares/Third_Party/FreeRTOS/Source/CMSIS_RTOS_V2/cmsis_os2.c ****     vQueueDelete (hQueue);
 7805              		.loc 1 1783 0
 7806 001e 2046     		mov	r0, r4
 7807 0020 FFF7FEFF 		bl	vQueueDelete
 7808              	.LVL727:
1782:Middlewares/Third_Party/FreeRTOS/Source/CMSIS_RTOS_V2/cmsis_os2.c ****     vQueueDelete (hQueue);
 7809              		.loc 1 1782 0
 7810 0024 0020     		movs	r0, #0
 7811 0026 10BD     		pop	{r4, pc}
 7812              	.LVL728:
 7813              	.L852:
 7814              	.LCFI135:
 7815              		.cfi_def_cfa_offset 0
 7816              		.cfi_restore 4
 7817              		.cfi_restore 14
 7818              	.LBB664:
 7819              	.LBB665:
 7820              		.loc 2 465 0
ARM GAS  /tmp/cce47g5y.s 			page 193


 7821              		.syntax unified
 7822              	@ 465 "Drivers/CMSIS/Include/cmsis_gcc.h" 1
 7823 0028 EFF31183 		MRS r3, basepri
 7824              	@ 0 "" 2
 7825              		.thumb
 7826              		.syntax unified
 7827              	.LBE665:
 7828              	.LBE664:
1771:Middlewares/Third_Party/FreeRTOS/Source/CMSIS_RTOS_V2/cmsis_os2.c ****     stat = osErrorISR;
 7829              		.loc 1 1771 0
 7830 002c 002B     		cmp	r3, #0
 7831 002e F1D0     		beq	.L843
1772:Middlewares/Third_Party/FreeRTOS/Source/CMSIS_RTOS_V2/cmsis_os2.c ****   }
 7832              		.loc 1 1772 0
 7833 0030 6FF00500 		mvn	r0, #5
 7834              	.LVL729:
 7835 0034 7047     		bx	lr
 7836              	.LVL730:
 7837              	.L844:
 7838 0036 6FF00500 		mvn	r0, #5
 7839              	.LVL731:
 7840 003a 7047     		bx	lr
 7841              	.LVL732:
 7842              	.L845:
 7843 003c 6FF00500 		mvn	r0, #5
 7844              	.LVL733:
 7845 0040 7047     		bx	lr
 7846              	.LVL734:
 7847              	.L847:
1775:Middlewares/Third_Party/FreeRTOS/Source/CMSIS_RTOS_V2/cmsis_os2.c ****   }
 7848              		.loc 1 1775 0
 7849 0042 6FF00300 		mvn	r0, #3
 7850              	.LVL735:
1784:Middlewares/Third_Party/FreeRTOS/Source/CMSIS_RTOS_V2/cmsis_os2.c ****   }
1785:Middlewares/Third_Party/FreeRTOS/Source/CMSIS_RTOS_V2/cmsis_os2.c **** #else
1786:Middlewares/Third_Party/FreeRTOS/Source/CMSIS_RTOS_V2/cmsis_os2.c ****   stat = osError;
1787:Middlewares/Third_Party/FreeRTOS/Source/CMSIS_RTOS_V2/cmsis_os2.c **** #endif
1788:Middlewares/Third_Party/FreeRTOS/Source/CMSIS_RTOS_V2/cmsis_os2.c **** 
1789:Middlewares/Third_Party/FreeRTOS/Source/CMSIS_RTOS_V2/cmsis_os2.c ****   return (stat);
 7851              		.loc 1 1789 0
 7852 0046 7047     		bx	lr
 7853              	.L854:
 7854              		.align	2
 7855              	.L853:
 7856 0048 00000000 		.word	.LANCHOR0
 7857              		.cfi_endproc
 7858              	.LFE111:
 7860              		.section	.text.vApplicationStackOverflowHook,"ax",%progbits
 7861              		.align	1
 7862              		.weak	vApplicationStackOverflowHook
 7863              		.syntax unified
 7864              		.thumb
 7865              		.thumb_func
 7866              		.fpu softvfp
 7868              	vApplicationStackOverflowHook:
 7869              	.LFB112:
1790:Middlewares/Third_Party/FreeRTOS/Source/CMSIS_RTOS_V2/cmsis_os2.c **** }
ARM GAS  /tmp/cce47g5y.s 			page 194


1791:Middlewares/Third_Party/FreeRTOS/Source/CMSIS_RTOS_V2/cmsis_os2.c **** 
1792:Middlewares/Third_Party/FreeRTOS/Source/CMSIS_RTOS_V2/cmsis_os2.c **** /*---------------------------------------------------------------------------*/
1793:Middlewares/Third_Party/FreeRTOS/Source/CMSIS_RTOS_V2/cmsis_os2.c **** 
1794:Middlewares/Third_Party/FreeRTOS/Source/CMSIS_RTOS_V2/cmsis_os2.c **** /* Callback function prototypes */
1795:Middlewares/Third_Party/FreeRTOS/Source/CMSIS_RTOS_V2/cmsis_os2.c **** extern void vApplicationIdleHook (void);
1796:Middlewares/Third_Party/FreeRTOS/Source/CMSIS_RTOS_V2/cmsis_os2.c **** extern void vApplicationTickHook (void);
1797:Middlewares/Third_Party/FreeRTOS/Source/CMSIS_RTOS_V2/cmsis_os2.c **** extern void vApplicationMallocFailedHook (void);
1798:Middlewares/Third_Party/FreeRTOS/Source/CMSIS_RTOS_V2/cmsis_os2.c **** extern void vApplicationDaemonTaskStartupHook (void);
1799:Middlewares/Third_Party/FreeRTOS/Source/CMSIS_RTOS_V2/cmsis_os2.c **** extern void vApplicationStackOverflowHook (TaskHandle_t xTask, signed char *pcTaskName);
1800:Middlewares/Third_Party/FreeRTOS/Source/CMSIS_RTOS_V2/cmsis_os2.c **** 
1801:Middlewares/Third_Party/FreeRTOS/Source/CMSIS_RTOS_V2/cmsis_os2.c **** /**
1802:Middlewares/Third_Party/FreeRTOS/Source/CMSIS_RTOS_V2/cmsis_os2.c ****   Dummy implementation of the callback function vApplicationIdleHook().
1803:Middlewares/Third_Party/FreeRTOS/Source/CMSIS_RTOS_V2/cmsis_os2.c **** */
1804:Middlewares/Third_Party/FreeRTOS/Source/CMSIS_RTOS_V2/cmsis_os2.c **** #if (configUSE_IDLE_HOOK == 1)
1805:Middlewares/Third_Party/FreeRTOS/Source/CMSIS_RTOS_V2/cmsis_os2.c **** __WEAK void vApplicationIdleHook (void){}
1806:Middlewares/Third_Party/FreeRTOS/Source/CMSIS_RTOS_V2/cmsis_os2.c **** #endif
1807:Middlewares/Third_Party/FreeRTOS/Source/CMSIS_RTOS_V2/cmsis_os2.c **** 
1808:Middlewares/Third_Party/FreeRTOS/Source/CMSIS_RTOS_V2/cmsis_os2.c **** /**
1809:Middlewares/Third_Party/FreeRTOS/Source/CMSIS_RTOS_V2/cmsis_os2.c ****   Dummy implementation of the callback function vApplicationTickHook().
1810:Middlewares/Third_Party/FreeRTOS/Source/CMSIS_RTOS_V2/cmsis_os2.c **** */
1811:Middlewares/Third_Party/FreeRTOS/Source/CMSIS_RTOS_V2/cmsis_os2.c **** #if (configUSE_TICK_HOOK == 1)
1812:Middlewares/Third_Party/FreeRTOS/Source/CMSIS_RTOS_V2/cmsis_os2.c ****  __WEAK void vApplicationTickHook (void){}
1813:Middlewares/Third_Party/FreeRTOS/Source/CMSIS_RTOS_V2/cmsis_os2.c **** #endif
1814:Middlewares/Third_Party/FreeRTOS/Source/CMSIS_RTOS_V2/cmsis_os2.c **** 
1815:Middlewares/Third_Party/FreeRTOS/Source/CMSIS_RTOS_V2/cmsis_os2.c **** /**
1816:Middlewares/Third_Party/FreeRTOS/Source/CMSIS_RTOS_V2/cmsis_os2.c ****   Dummy implementation of the callback function vApplicationMallocFailedHook().
1817:Middlewares/Third_Party/FreeRTOS/Source/CMSIS_RTOS_V2/cmsis_os2.c **** */
1818:Middlewares/Third_Party/FreeRTOS/Source/CMSIS_RTOS_V2/cmsis_os2.c **** #if (configUSE_MALLOC_FAILED_HOOK == 1)
1819:Middlewares/Third_Party/FreeRTOS/Source/CMSIS_RTOS_V2/cmsis_os2.c **** __WEAK void vApplicationMallocFailedHook (void){}
1820:Middlewares/Third_Party/FreeRTOS/Source/CMSIS_RTOS_V2/cmsis_os2.c **** #endif
1821:Middlewares/Third_Party/FreeRTOS/Source/CMSIS_RTOS_V2/cmsis_os2.c **** 
1822:Middlewares/Third_Party/FreeRTOS/Source/CMSIS_RTOS_V2/cmsis_os2.c **** /**
1823:Middlewares/Third_Party/FreeRTOS/Source/CMSIS_RTOS_V2/cmsis_os2.c ****   Dummy implementation of the callback function vApplicationDaemonTaskStartupHook().
1824:Middlewares/Third_Party/FreeRTOS/Source/CMSIS_RTOS_V2/cmsis_os2.c **** */
1825:Middlewares/Third_Party/FreeRTOS/Source/CMSIS_RTOS_V2/cmsis_os2.c **** #if (configUSE_DAEMON_TASK_STARTUP_HOOK == 1)
1826:Middlewares/Third_Party/FreeRTOS/Source/CMSIS_RTOS_V2/cmsis_os2.c **** __WEAK void vApplicationDaemonTaskStartupHook (void){}
1827:Middlewares/Third_Party/FreeRTOS/Source/CMSIS_RTOS_V2/cmsis_os2.c **** #endif
1828:Middlewares/Third_Party/FreeRTOS/Source/CMSIS_RTOS_V2/cmsis_os2.c **** 
1829:Middlewares/Third_Party/FreeRTOS/Source/CMSIS_RTOS_V2/cmsis_os2.c **** /**
1830:Middlewares/Third_Party/FreeRTOS/Source/CMSIS_RTOS_V2/cmsis_os2.c ****   Dummy implementation of the callback function vApplicationStackOverflowHook().
1831:Middlewares/Third_Party/FreeRTOS/Source/CMSIS_RTOS_V2/cmsis_os2.c **** */
1832:Middlewares/Third_Party/FreeRTOS/Source/CMSIS_RTOS_V2/cmsis_os2.c **** #if (configCHECK_FOR_STACK_OVERFLOW > 0)
1833:Middlewares/Third_Party/FreeRTOS/Source/CMSIS_RTOS_V2/cmsis_os2.c **** __WEAK void vApplicationStackOverflowHook (TaskHandle_t xTask, signed char *pcTaskName) {
 7870              		.loc 1 1833 0
 7871              		.cfi_startproc
 7872              		@ args = 0, pretend = 0, frame = 0
 7873              		@ frame_needed = 0, uses_anonymous_args = 0
 7874              		@ link register save eliminated.
 7875              	.LVL736:
 7876 0000 7047     		bx	lr
 7877              		.cfi_endproc
 7878              	.LFE112:
 7880              		.section	.text.vApplicationGetIdleTaskMemory,"ax",%progbits
 7881              		.align	1
 7882              		.global	vApplicationGetIdleTaskMemory
 7883              		.syntax unified
 7884              		.thumb
ARM GAS  /tmp/cce47g5y.s 			page 195


 7885              		.thumb_func
 7886              		.fpu softvfp
 7888              	vApplicationGetIdleTaskMemory:
 7889              	.LFB113:
1834:Middlewares/Third_Party/FreeRTOS/Source/CMSIS_RTOS_V2/cmsis_os2.c ****   (void)xTask;
1835:Middlewares/Third_Party/FreeRTOS/Source/CMSIS_RTOS_V2/cmsis_os2.c ****   (void)pcTaskName;
1836:Middlewares/Third_Party/FreeRTOS/Source/CMSIS_RTOS_V2/cmsis_os2.c **** }
1837:Middlewares/Third_Party/FreeRTOS/Source/CMSIS_RTOS_V2/cmsis_os2.c **** #endif
1838:Middlewares/Third_Party/FreeRTOS/Source/CMSIS_RTOS_V2/cmsis_os2.c **** 
1839:Middlewares/Third_Party/FreeRTOS/Source/CMSIS_RTOS_V2/cmsis_os2.c **** /*---------------------------------------------------------------------------*/
1840:Middlewares/Third_Party/FreeRTOS/Source/CMSIS_RTOS_V2/cmsis_os2.c **** 
1841:Middlewares/Third_Party/FreeRTOS/Source/CMSIS_RTOS_V2/cmsis_os2.c **** /* External Idle and Timer task static memory allocation functions */
1842:Middlewares/Third_Party/FreeRTOS/Source/CMSIS_RTOS_V2/cmsis_os2.c **** extern void vApplicationGetIdleTaskMemory  (StaticTask_t **ppxIdleTaskTCBBuffer,  StackType_t **ppx
1843:Middlewares/Third_Party/FreeRTOS/Source/CMSIS_RTOS_V2/cmsis_os2.c **** extern void vApplicationGetTimerTaskMemory (StaticTask_t **ppxTimerTaskTCBBuffer, StackType_t **ppx
1844:Middlewares/Third_Party/FreeRTOS/Source/CMSIS_RTOS_V2/cmsis_os2.c **** 
1845:Middlewares/Third_Party/FreeRTOS/Source/CMSIS_RTOS_V2/cmsis_os2.c **** /* Idle task control block and stack */
1846:Middlewares/Third_Party/FreeRTOS/Source/CMSIS_RTOS_V2/cmsis_os2.c **** static StaticTask_t Idle_TCB;
1847:Middlewares/Third_Party/FreeRTOS/Source/CMSIS_RTOS_V2/cmsis_os2.c **** static StackType_t  Idle_Stack[configMINIMAL_STACK_SIZE];
1848:Middlewares/Third_Party/FreeRTOS/Source/CMSIS_RTOS_V2/cmsis_os2.c **** 
1849:Middlewares/Third_Party/FreeRTOS/Source/CMSIS_RTOS_V2/cmsis_os2.c **** /* Timer task control block and stack */
1850:Middlewares/Third_Party/FreeRTOS/Source/CMSIS_RTOS_V2/cmsis_os2.c **** static StaticTask_t Timer_TCB;
1851:Middlewares/Third_Party/FreeRTOS/Source/CMSIS_RTOS_V2/cmsis_os2.c **** static StackType_t  Timer_Stack[configTIMER_TASK_STACK_DEPTH];
1852:Middlewares/Third_Party/FreeRTOS/Source/CMSIS_RTOS_V2/cmsis_os2.c **** 
1853:Middlewares/Third_Party/FreeRTOS/Source/CMSIS_RTOS_V2/cmsis_os2.c **** /*
1854:Middlewares/Third_Party/FreeRTOS/Source/CMSIS_RTOS_V2/cmsis_os2.c ****   vApplicationGetIdleTaskMemory gets called when configSUPPORT_STATIC_ALLOCATION
1855:Middlewares/Third_Party/FreeRTOS/Source/CMSIS_RTOS_V2/cmsis_os2.c ****   equals to 1 and is required for static memory allocation support.
1856:Middlewares/Third_Party/FreeRTOS/Source/CMSIS_RTOS_V2/cmsis_os2.c **** */
1857:Middlewares/Third_Party/FreeRTOS/Source/CMSIS_RTOS_V2/cmsis_os2.c **** void vApplicationGetIdleTaskMemory (StaticTask_t **ppxIdleTaskTCBBuffer, StackType_t **ppxIdleTaskS
 7890              		.loc 1 1857 0
 7891              		.cfi_startproc
 7892              		@ args = 0, pretend = 0, frame = 0
 7893              		@ frame_needed = 0, uses_anonymous_args = 0
 7894              		@ link register save eliminated.
 7895              	.LVL737:
1858:Middlewares/Third_Party/FreeRTOS/Source/CMSIS_RTOS_V2/cmsis_os2.c ****   *ppxIdleTaskTCBBuffer   = &Idle_TCB;
 7896              		.loc 1 1858 0
 7897 0000 034B     		ldr	r3, .L857
 7898 0002 0360     		str	r3, [r0]
1859:Middlewares/Third_Party/FreeRTOS/Source/CMSIS_RTOS_V2/cmsis_os2.c ****   *ppxIdleTaskStackBuffer = &Idle_Stack[0];
 7899              		.loc 1 1859 0
 7900 0004 034B     		ldr	r3, .L857+4
 7901 0006 0B60     		str	r3, [r1]
1860:Middlewares/Third_Party/FreeRTOS/Source/CMSIS_RTOS_V2/cmsis_os2.c ****   *pulIdleTaskStackSize   = (uint32_t)configMINIMAL_STACK_SIZE;
 7902              		.loc 1 1860 0
 7903 0008 8023     		movs	r3, #128
 7904 000a 1360     		str	r3, [r2]
 7905 000c 7047     		bx	lr
 7906              	.L858:
 7907 000e 00BF     		.align	2
 7908              	.L857:
 7909 0010 00000000 		.word	.LANCHOR1
 7910 0014 00000000 		.word	.LANCHOR2
 7911              		.cfi_endproc
 7912              	.LFE113:
 7914              		.section	.text.vApplicationGetTimerTaskMemory,"ax",%progbits
 7915              		.align	1
 7916              		.global	vApplicationGetTimerTaskMemory
ARM GAS  /tmp/cce47g5y.s 			page 196


 7917              		.syntax unified
 7918              		.thumb
 7919              		.thumb_func
 7920              		.fpu softvfp
 7922              	vApplicationGetTimerTaskMemory:
 7923              	.LFB114:
1861:Middlewares/Third_Party/FreeRTOS/Source/CMSIS_RTOS_V2/cmsis_os2.c **** }
1862:Middlewares/Third_Party/FreeRTOS/Source/CMSIS_RTOS_V2/cmsis_os2.c **** 
1863:Middlewares/Third_Party/FreeRTOS/Source/CMSIS_RTOS_V2/cmsis_os2.c **** /*
1864:Middlewares/Third_Party/FreeRTOS/Source/CMSIS_RTOS_V2/cmsis_os2.c ****   vApplicationGetTimerTaskMemory gets called when configSUPPORT_STATIC_ALLOCATION
1865:Middlewares/Third_Party/FreeRTOS/Source/CMSIS_RTOS_V2/cmsis_os2.c ****   equals to 1 and is required for static memory allocation support.
1866:Middlewares/Third_Party/FreeRTOS/Source/CMSIS_RTOS_V2/cmsis_os2.c **** */
1867:Middlewares/Third_Party/FreeRTOS/Source/CMSIS_RTOS_V2/cmsis_os2.c **** void vApplicationGetTimerTaskMemory (StaticTask_t **ppxTimerTaskTCBBuffer, StackType_t **ppxTimerTa
 7924              		.loc 1 1867 0
 7925              		.cfi_startproc
 7926              		@ args = 0, pretend = 0, frame = 0
 7927              		@ frame_needed = 0, uses_anonymous_args = 0
 7928              		@ link register save eliminated.
 7929              	.LVL738:
1868:Middlewares/Third_Party/FreeRTOS/Source/CMSIS_RTOS_V2/cmsis_os2.c ****   *ppxTimerTaskTCBBuffer   = &Timer_TCB;
 7930              		.loc 1 1868 0
 7931 0000 034B     		ldr	r3, .L860
 7932 0002 0360     		str	r3, [r0]
1869:Middlewares/Third_Party/FreeRTOS/Source/CMSIS_RTOS_V2/cmsis_os2.c ****   *ppxTimerTaskStackBuffer = &Timer_Stack[0];
 7933              		.loc 1 1869 0
 7934 0004 034B     		ldr	r3, .L860+4
 7935 0006 0B60     		str	r3, [r1]
1870:Middlewares/Third_Party/FreeRTOS/Source/CMSIS_RTOS_V2/cmsis_os2.c ****   *pulTimerTaskStackSize   = (uint32_t)configTIMER_TASK_STACK_DEPTH;
 7936              		.loc 1 1870 0
 7937 0008 4FF48073 		mov	r3, #256
 7938 000c 1360     		str	r3, [r2]
 7939 000e 7047     		bx	lr
 7940              	.L861:
 7941              		.align	2
 7942              	.L860:
 7943 0010 00000000 		.word	.LANCHOR3
 7944 0014 00000000 		.word	.LANCHOR4
 7945              		.cfi_endproc
 7946              	.LFE114:
 7948              		.section	.bss.Idle_Stack,"aw",%nobits
 7949              		.align	2
 7950              		.set	.LANCHOR2,. + 0
 7953              	Idle_Stack:
 7954 0000 00000000 		.space	512
 7954      00000000 
 7954      00000000 
 7954      00000000 
 7954      00000000 
 7955              		.section	.bss.Idle_TCB,"aw",%nobits
 7956              		.align	2
 7957              		.set	.LANCHOR1,. + 0
 7960              	Idle_TCB:
 7961 0000 00000000 		.space	92
 7961      00000000 
 7961      00000000 
 7961      00000000 
 7961      00000000 
ARM GAS  /tmp/cce47g5y.s 			page 197


 7962              		.section	.bss.KernelState,"aw",%nobits
 7963              		.align	2
 7964              		.set	.LANCHOR0,. + 0
 7967              	KernelState:
 7968 0000 00000000 		.space	4
 7969              		.section	.bss.Timer_Stack,"aw",%nobits
 7970              		.align	2
 7971              		.set	.LANCHOR4,. + 0
 7974              	Timer_Stack:
 7975 0000 00000000 		.space	1024
 7975      00000000 
 7975      00000000 
 7975      00000000 
 7975      00000000 
 7976              		.section	.bss.Timer_TCB,"aw",%nobits
 7977              		.align	2
 7978              		.set	.LANCHOR3,. + 0
 7981              	Timer_TCB:
 7982 0000 00000000 		.space	92
 7982      00000000 
 7982      00000000 
 7982      00000000 
 7982      00000000 
 7983              		.section	.rodata.osKernelGetInfo.str1.4,"aMS",%progbits,1
 7984              		.align	2
 7985              	.LC0:
 7986 0000 46726565 		.ascii	"FreeRTOS V10.0.1\000"
 7986      52544F53 
 7986      20563130 
 7986      2E302E31 
 7986      00
 7987              		.text
 7988              	.Letext0:
 7989              		.file 4 "/usr/include/newlib/machine/_default_types.h"
 7990              		.file 5 "/usr/include/newlib/sys/lock.h"
 7991              		.file 6 "/usr/include/newlib/sys/_types.h"
 7992              		.file 7 "/usr/lib/gcc/arm-none-eabi/6.3.1/include/stddef.h"
 7993              		.file 8 "/usr/include/newlib/sys/reent.h"
 7994              		.file 9 "/usr/include/newlib/sys/_stdint.h"
 7995              		.file 10 "Middlewares/Third_Party/FreeRTOS/Source/CMSIS_RTOS_V2/cmsis_os2.h"
 7996              		.file 11 "Inc/FreeRTOSConfig.h"
 7997              		.file 12 "Middlewares/Third_Party/FreeRTOS/Source/include/projdefs.h"
 7998              		.file 13 "Middlewares/Third_Party/FreeRTOS/Source/include/FreeRTOS.h"
 7999              		.file 14 "Middlewares/Third_Party/FreeRTOS/Source/include/task.h"
 8000              		.file 15 "Middlewares/Third_Party/FreeRTOS/Source/include/timers.h"
 8001              		.file 16 "Middlewares/Third_Party/FreeRTOS/Source/include/event_groups.h"
 8002              		.file 17 "Middlewares/Third_Party/FreeRTOS/Source/include/queue.h"
 8003              		.file 18 "Middlewares/Third_Party/FreeRTOS/Source/include/semphr.h"
 8004              		.file 19 "Middlewares/Third_Party/FreeRTOS/Source/include/portable.h"
ARM GAS  /tmp/cce47g5y.s 			page 198


DEFINED SYMBOLS
                            *ABS*:0000000000000000 cmsis_os2.c
     /tmp/cce47g5y.s:16     .text.TimerCallback:0000000000000000 $t
     /tmp/cce47g5y.s:22     .text.TimerCallback:0000000000000000 TimerCallback
     /tmp/cce47g5y.s:52     .text.osKernelInitialize:0000000000000000 $t
     /tmp/cce47g5y.s:59     .text.osKernelInitialize:0000000000000000 osKernelInitialize
     /tmp/cce47g5y.s:143    .text.osKernelInitialize:0000000000000040 $d
     /tmp/cce47g5y.s:148    .text.osKernelGetInfo:0000000000000000 $t
     /tmp/cce47g5y.s:155    .text.osKernelGetInfo:0000000000000000 osKernelGetInfo
     /tmp/cce47g5y.s:202    .text.osKernelGetInfo:0000000000000024 $d
     /tmp/cce47g5y.s:208    .text.osKernelGetState:0000000000000000 $t
     /tmp/cce47g5y.s:215    .text.osKernelGetState:0000000000000000 osKernelGetState
     /tmp/cce47g5y.s:256    .text.osKernelGetState:0000000000000024 $d
     /tmp/cce47g5y.s:261    .text.osKernelStart:0000000000000000 $t
     /tmp/cce47g5y.s:268    .text.osKernelStart:0000000000000000 osKernelStart
     /tmp/cce47g5y.s:358    .text.osKernelStart:0000000000000048 $d
     /tmp/cce47g5y.s:363    .text.osKernelLock:0000000000000000 $t
     /tmp/cce47g5y.s:370    .text.osKernelLock:0000000000000000 osKernelLock
     /tmp/cce47g5y.s:466    .text.osKernelLock:000000000000004c $d
     /tmp/cce47g5y.s:471    .text.osKernelUnlock:0000000000000000 $t
     /tmp/cce47g5y.s:478    .text.osKernelUnlock:0000000000000000 osKernelUnlock
     /tmp/cce47g5y.s:588    .text.osKernelUnlock:0000000000000060 $d
     /tmp/cce47g5y.s:593    .text.osKernelRestoreLock:0000000000000000 $t
     /tmp/cce47g5y.s:600    .text.osKernelRestoreLock:0000000000000000 osKernelRestoreLock
     /tmp/cce47g5y.s:726    .text.osKernelRestoreLock:0000000000000070 $d
     /tmp/cce47g5y.s:731    .text.osKernelGetTickCount:0000000000000000 $t
     /tmp/cce47g5y.s:738    .text.osKernelGetTickCount:0000000000000000 osKernelGetTickCount
     /tmp/cce47g5y.s:810    .text.osKernelGetTickCount:000000000000002c $d
     /tmp/cce47g5y.s:815    .text.osKernelGetTickFreq:0000000000000000 $t
     /tmp/cce47g5y.s:822    .text.osKernelGetTickFreq:0000000000000000 osKernelGetTickFreq
     /tmp/cce47g5y.s:836    .text.osKernelGetSysTimerCount:0000000000000000 $t
     /tmp/cce47g5y.s:843    .text.osKernelGetSysTimerCount:0000000000000000 osKernelGetSysTimerCount
     /tmp/cce47g5y.s:899    .text.osKernelGetSysTimerCount:0000000000000030 $d
     /tmp/cce47g5y.s:905    .text.osKernelGetSysTimerFreq:0000000000000000 $t
     /tmp/cce47g5y.s:912    .text.osKernelGetSysTimerFreq:0000000000000000 osKernelGetSysTimerFreq
     /tmp/cce47g5y.s:926    .text.osKernelGetSysTimerFreq:0000000000000008 $d
     /tmp/cce47g5y.s:931    .text.osThreadNew:0000000000000000 $t
     /tmp/cce47g5y.s:938    .text.osThreadNew:0000000000000000 osThreadNew
     /tmp/cce47g5y.s:1182   .text.osThreadNew:00000000000000e8 $d
     /tmp/cce47g5y.s:1187   .text.osThreadGetName:0000000000000000 $t
     /tmp/cce47g5y.s:1194   .text.osThreadGetName:0000000000000000 osThreadGetName
     /tmp/cce47g5y.s:1284   .text.osThreadGetName:0000000000000038 $d
     /tmp/cce47g5y.s:1289   .text.osThreadGetId:0000000000000000 $t
     /tmp/cce47g5y.s:1296   .text.osThreadGetId:0000000000000000 osThreadGetId
     /tmp/cce47g5y.s:1375   .text.osThreadGetId:0000000000000030 $d
     /tmp/cce47g5y.s:1380   .text.osThreadGetState:0000000000000000 $t
     /tmp/cce47g5y.s:1387   .text.osThreadGetState:0000000000000000 osThreadGetState
     /tmp/cce47g5y.s:1441   .text.osThreadGetState:0000000000000024 $d
     /tmp/cce47g5y.s:1511   .text.osThreadGetState:0000000000000060 $d
     /tmp/cce47g5y.s:1516   .text.osThreadGetStackSpace:0000000000000000 $t
     /tmp/cce47g5y.s:1523   .text.osThreadGetStackSpace:0000000000000000 osThreadGetStackSpace
     /tmp/cce47g5y.s:1611   .text.osThreadGetStackSpace:0000000000000038 $d
     /tmp/cce47g5y.s:1616   .text.osThreadGetStackSize:0000000000000000 $t
     /tmp/cce47g5y.s:1623   .text.osThreadGetStackSize:0000000000000000 osThreadGetStackSize
     /tmp/cce47g5y.s:1639   .text.osThreadSetPriority:0000000000000000 $t
     /tmp/cce47g5y.s:1646   .text.osThreadSetPriority:0000000000000000 osThreadSetPriority
     /tmp/cce47g5y.s:1756   .text.osThreadSetPriority:0000000000000054 $d
ARM GAS  /tmp/cce47g5y.s 			page 199


     /tmp/cce47g5y.s:1761   .text.osThreadGetPriority:0000000000000000 $t
     /tmp/cce47g5y.s:1768   .text.osThreadGetPriority:0000000000000000 osThreadGetPriority
     /tmp/cce47g5y.s:1858   .text.osThreadGetPriority:0000000000000040 $d
     /tmp/cce47g5y.s:1863   .text.osThreadYield:0000000000000000 $t
     /tmp/cce47g5y.s:1870   .text.osThreadYield:0000000000000000 osThreadYield
     /tmp/cce47g5y.s:1958   .text.osThreadYield:0000000000000044 $d
     /tmp/cce47g5y.s:1964   .text.osThreadSuspend:0000000000000000 $t
     /tmp/cce47g5y.s:1971   .text.osThreadSuspend:0000000000000000 osThreadSuspend
     /tmp/cce47g5y.s:2065   .text.osThreadSuspend:0000000000000040 $d
     /tmp/cce47g5y.s:2070   .text.osThreadResume:0000000000000000 $t
     /tmp/cce47g5y.s:2077   .text.osThreadResume:0000000000000000 osThreadResume
     /tmp/cce47g5y.s:2171   .text.osThreadResume:0000000000000040 $d
     /tmp/cce47g5y.s:2176   .text.osThreadExit:0000000000000000 $t
     /tmp/cce47g5y.s:2183   .text.osThreadExit:0000000000000000 osThreadExit
     /tmp/cce47g5y.s:2205   .text.osThreadTerminate:0000000000000000 $t
     /tmp/cce47g5y.s:2212   .text.osThreadTerminate:0000000000000000 osThreadTerminate
     /tmp/cce47g5y.s:2330   .text.osThreadTerminate:0000000000000054 $d
     /tmp/cce47g5y.s:2335   .text.osThreadGetCount:0000000000000000 $t
     /tmp/cce47g5y.s:2342   .text.osThreadGetCount:0000000000000000 osThreadGetCount
     /tmp/cce47g5y.s:2423   .text.osThreadGetCount:000000000000002c $d
     /tmp/cce47g5y.s:2428   .text.osThreadEnumerate:0000000000000000 $t
     /tmp/cce47g5y.s:2435   .text.osThreadEnumerate:0000000000000000 osThreadEnumerate
     /tmp/cce47g5y.s:2583   .text.osThreadEnumerate:0000000000000084 $d
     /tmp/cce47g5y.s:2588   .text.osThreadFlagsSet:0000000000000000 $t
     /tmp/cce47g5y.s:2595   .text.osThreadFlagsSet:0000000000000000 osThreadFlagsSet
     /tmp/cce47g5y.s:2743   .text.osThreadFlagsSet:000000000000008c $d
     /tmp/cce47g5y.s:2749   .text.osThreadFlagsClear:0000000000000000 $t
     /tmp/cce47g5y.s:2756   .text.osThreadFlagsClear:0000000000000000 osThreadFlagsClear
     /tmp/cce47g5y.s:2890   .text.osThreadFlagsClear:0000000000000078 $d
     /tmp/cce47g5y.s:2895   .text.osThreadFlagsGet:0000000000000000 $t
     /tmp/cce47g5y.s:2902   .text.osThreadFlagsGet:0000000000000000 osThreadFlagsGet
     /tmp/cce47g5y.s:2992   .text.osThreadFlagsGet:0000000000000048 $d
     /tmp/cce47g5y.s:2997   .text.osThreadFlagsWait:0000000000000000 $t
     /tmp/cce47g5y.s:3004   .text.osThreadFlagsWait:0000000000000000 osThreadFlagsWait
     /tmp/cce47g5y.s:3216   .text.osThreadFlagsWait:00000000000000c8 $d
     /tmp/cce47g5y.s:3221   .text.osDelay:0000000000000000 $t
     /tmp/cce47g5y.s:3228   .text.osDelay:0000000000000000 osDelay
     /tmp/cce47g5y.s:3322   .text.osDelay:0000000000000040 $d
     /tmp/cce47g5y.s:3327   .text.osDelayUntil:0000000000000000 $t
     /tmp/cce47g5y.s:3334   .text.osDelayUntil:0000000000000000 osDelayUntil
     /tmp/cce47g5y.s:3441   .text.osDelayUntil:000000000000004c $d
     /tmp/cce47g5y.s:3446   .text.osTimerNew:0000000000000000 $t
     /tmp/cce47g5y.s:3453   .text.osTimerNew:0000000000000000 osTimerNew
     /tmp/cce47g5y.s:3668   .text.osTimerNew:00000000000000b0 $d
     /tmp/cce47g5y.s:3674   .text.osTimerGetName:0000000000000000 $t
     /tmp/cce47g5y.s:3681   .text.osTimerGetName:0000000000000000 osTimerGetName
     /tmp/cce47g5y.s:3771   .text.osTimerGetName:0000000000000038 $d
     /tmp/cce47g5y.s:3776   .text.osTimerStart:0000000000000000 $t
     /tmp/cce47g5y.s:3783   .text.osTimerStart:0000000000000000 osTimerStart
     /tmp/cce47g5y.s:3903   .text.osTimerStart:0000000000000058 $d
     /tmp/cce47g5y.s:3908   .text.osTimerStop:0000000000000000 $t
     /tmp/cce47g5y.s:3915   .text.osTimerStop:0000000000000000 osTimerStop
     /tmp/cce47g5y.s:4047   .text.osTimerStop:0000000000000068 $d
     /tmp/cce47g5y.s:4052   .text.osTimerIsRunning:0000000000000000 $t
     /tmp/cce47g5y.s:4059   .text.osTimerIsRunning:0000000000000000 osTimerIsRunning
     /tmp/cce47g5y.s:4147   .text.osTimerIsRunning:0000000000000038 $d
     /tmp/cce47g5y.s:4152   .text.osTimerDelete:0000000000000000 $t
ARM GAS  /tmp/cce47g5y.s 			page 200


     /tmp/cce47g5y.s:4159   .text.osTimerDelete:0000000000000000 osTimerDelete
     /tmp/cce47g5y.s:4297   .text.osTimerDelete:0000000000000068 $d
     /tmp/cce47g5y.s:4302   .text.osEventFlagsNew:0000000000000000 $t
     /tmp/cce47g5y.s:4309   .text.osEventFlagsNew:0000000000000000 osEventFlagsNew
     /tmp/cce47g5y.s:4449   .text.osEventFlagsNew:000000000000006c $d
     /tmp/cce47g5y.s:4454   .text.osEventFlagsSet:0000000000000000 $t
     /tmp/cce47g5y.s:4461   .text.osEventFlagsSet:0000000000000000 osEventFlagsSet
     /tmp/cce47g5y.s:4611   .text.osEventFlagsSet:0000000000000074 $d
     /tmp/cce47g5y.s:4617   .text.osEventFlagsClear:0000000000000000 $t
     /tmp/cce47g5y.s:4624   .text.osEventFlagsClear:0000000000000000 osEventFlagsClear
     /tmp/cce47g5y.s:4742   .text.osEventFlagsClear:0000000000000060 $d
     /tmp/cce47g5y.s:4747   .text.osEventFlagsGet:0000000000000000 $t
     /tmp/cce47g5y.s:4754   .text.osEventFlagsGet:0000000000000000 osEventFlagsGet
     /tmp/cce47g5y.s:4841   .text.osEventFlagsGet:0000000000000034 $d
     /tmp/cce47g5y.s:4846   .text.osEventFlagsWait:0000000000000000 $t
     /tmp/cce47g5y.s:4853   .text.osEventFlagsWait:0000000000000000 osEventFlagsWait
     /tmp/cce47g5y.s:5046   .text.osEventFlagsWait:0000000000000098 $d
     /tmp/cce47g5y.s:5051   .text.osEventFlagsDelete:0000000000000000 $t
     /tmp/cce47g5y.s:5058   .text.osEventFlagsDelete:0000000000000000 osEventFlagsDelete
     /tmp/cce47g5y.s:5152   .text.osEventFlagsDelete:0000000000000040 $d
     /tmp/cce47g5y.s:5157   .text.osMutexNew:0000000000000000 $t
     /tmp/cce47g5y.s:5164   .text.osMutexNew:0000000000000000 osMutexNew
     /tmp/cce47g5y.s:5390   .text.osMutexNew:00000000000000c4 $d
     /tmp/cce47g5y.s:5395   .text.osMutexAcquire:0000000000000000 $t
     /tmp/cce47g5y.s:5402   .text.osMutexAcquire:0000000000000000 osMutexAcquire
     /tmp/cce47g5y.s:5555   .text.osMutexAcquire:000000000000007c $d
     /tmp/cce47g5y.s:5560   .text.osMutexRelease:0000000000000000 $t
     /tmp/cce47g5y.s:5567   .text.osMutexRelease:0000000000000000 osMutexRelease
     /tmp/cce47g5y.s:5706   .text.osMutexRelease:0000000000000070 $d
     /tmp/cce47g5y.s:5711   .text.osMutexGetOwner:0000000000000000 $t
     /tmp/cce47g5y.s:5718   .text.osMutexGetOwner:0000000000000000 osMutexGetOwner
     /tmp/cce47g5y.s:5810   .text.osMutexGetOwner:000000000000003c $d
     /tmp/cce47g5y.s:5815   .text.osMutexDelete:0000000000000000 $t
     /tmp/cce47g5y.s:5822   .text.osMutexDelete:0000000000000000 osMutexDelete
     /tmp/cce47g5y.s:5932   .text.osMutexDelete:000000000000004c $d
     /tmp/cce47g5y.s:5937   .text.osSemaphoreNew:0000000000000000 $t
     /tmp/cce47g5y.s:5944   .text.osSemaphoreNew:0000000000000000 osSemaphoreNew
     /tmp/cce47g5y.s:6191   .text.osSemaphoreNew:00000000000000ec $d
     /tmp/cce47g5y.s:6196   .text.osSemaphoreAcquire:0000000000000000 $t
     /tmp/cce47g5y.s:6203   .text.osSemaphoreAcquire:0000000000000000 osSemaphoreAcquire
     /tmp/cce47g5y.s:6362   .text.osSemaphoreAcquire:0000000000000084 $d
     /tmp/cce47g5y.s:6368   .text.osSemaphoreRelease:0000000000000000 $t
     /tmp/cce47g5y.s:6375   .text.osSemaphoreRelease:0000000000000000 osSemaphoreRelease
     /tmp/cce47g5y.s:6516   .text.osSemaphoreRelease:0000000000000078 $d
     /tmp/cce47g5y.s:6522   .text.osSemaphoreGetCount:0000000000000000 $t
     /tmp/cce47g5y.s:6529   .text.osSemaphoreGetCount:0000000000000000 osSemaphoreGetCount
     /tmp/cce47g5y.s:6615   .text.osSemaphoreGetCount:0000000000000030 $d
     /tmp/cce47g5y.s:6620   .text.osSemaphoreDelete:0000000000000000 $t
     /tmp/cce47g5y.s:6627   .text.osSemaphoreDelete:0000000000000000 osSemaphoreDelete
     /tmp/cce47g5y.s:6729   .text.osSemaphoreDelete:0000000000000048 $d
     /tmp/cce47g5y.s:6734   .text.osMessageQueueNew:0000000000000000 $t
     /tmp/cce47g5y.s:6741   .text.osMessageQueueNew:0000000000000000 osMessageQueueNew
     /tmp/cce47g5y.s:6958   .text.osMessageQueueNew:00000000000000c4 $d
     /tmp/cce47g5y.s:6963   .text.osMessageQueuePut:0000000000000000 $t
     /tmp/cce47g5y.s:6970   .text.osMessageQueuePut:0000000000000000 osMessageQueuePut
     /tmp/cce47g5y.s:7149   .text.osMessageQueuePut:000000000000009c $d
     /tmp/cce47g5y.s:7155   .text.osMessageQueueGet:0000000000000000 $t
ARM GAS  /tmp/cce47g5y.s 			page 201


     /tmp/cce47g5y.s:7162   .text.osMessageQueueGet:0000000000000000 osMessageQueueGet
     /tmp/cce47g5y.s:7340   .text.osMessageQueueGet:000000000000009c $d
     /tmp/cce47g5y.s:7346   .text.osMessageQueueGetCapacity:0000000000000000 $t
     /tmp/cce47g5y.s:7353   .text.osMessageQueueGetCapacity:0000000000000000 osMessageQueueGetCapacity
     /tmp/cce47g5y.s:7378   .text.osMessageQueueGetMsgSize:0000000000000000 $t
     /tmp/cce47g5y.s:7385   .text.osMessageQueueGetMsgSize:0000000000000000 osMessageQueueGetMsgSize
     /tmp/cce47g5y.s:7410   .text.osMessageQueueGetCount:0000000000000000 $t
     /tmp/cce47g5y.s:7417   .text.osMessageQueueGetCount:0000000000000000 osMessageQueueGetCount
     /tmp/cce47g5y.s:7503   .text.osMessageQueueGetCount:0000000000000030 $d
     /tmp/cce47g5y.s:7508   .text.osMessageQueueGetSpace:0000000000000000 $t
     /tmp/cce47g5y.s:7515   .text.osMessageQueueGetSpace:0000000000000000 osMessageQueueGetSpace
     /tmp/cce47g5y.s:7635   .text.osMessageQueueGetSpace:0000000000000050 $d
     /tmp/cce47g5y.s:7640   .text.osMessageQueueReset:0000000000000000 $t
     /tmp/cce47g5y.s:7647   .text.osMessageQueueReset:0000000000000000 osMessageQueueReset
     /tmp/cce47g5y.s:7742   .text.osMessageQueueReset:0000000000000044 $d
     /tmp/cce47g5y.s:7747   .text.osMessageQueueDelete:0000000000000000 $t
     /tmp/cce47g5y.s:7754   .text.osMessageQueueDelete:0000000000000000 osMessageQueueDelete
     /tmp/cce47g5y.s:7856   .text.osMessageQueueDelete:0000000000000048 $d
     /tmp/cce47g5y.s:7861   .text.vApplicationStackOverflowHook:0000000000000000 $t
     /tmp/cce47g5y.s:7868   .text.vApplicationStackOverflowHook:0000000000000000 vApplicationStackOverflowHook
     /tmp/cce47g5y.s:7881   .text.vApplicationGetIdleTaskMemory:0000000000000000 $t
     /tmp/cce47g5y.s:7888   .text.vApplicationGetIdleTaskMemory:0000000000000000 vApplicationGetIdleTaskMemory
     /tmp/cce47g5y.s:7909   .text.vApplicationGetIdleTaskMemory:0000000000000010 $d
     /tmp/cce47g5y.s:7915   .text.vApplicationGetTimerTaskMemory:0000000000000000 $t
     /tmp/cce47g5y.s:7922   .text.vApplicationGetTimerTaskMemory:0000000000000000 vApplicationGetTimerTaskMemory
     /tmp/cce47g5y.s:7943   .text.vApplicationGetTimerTaskMemory:0000000000000010 $d
     /tmp/cce47g5y.s:7949   .bss.Idle_Stack:0000000000000000 $d
     /tmp/cce47g5y.s:7953   .bss.Idle_Stack:0000000000000000 Idle_Stack
     /tmp/cce47g5y.s:7956   .bss.Idle_TCB:0000000000000000 $d
     /tmp/cce47g5y.s:7960   .bss.Idle_TCB:0000000000000000 Idle_TCB
     /tmp/cce47g5y.s:7963   .bss.KernelState:0000000000000000 $d
     /tmp/cce47g5y.s:7967   .bss.KernelState:0000000000000000 KernelState
     /tmp/cce47g5y.s:7970   .bss.Timer_Stack:0000000000000000 $d
     /tmp/cce47g5y.s:7974   .bss.Timer_Stack:0000000000000000 Timer_Stack
     /tmp/cce47g5y.s:7977   .bss.Timer_TCB:0000000000000000 $d
     /tmp/cce47g5y.s:7981   .bss.Timer_TCB:0000000000000000 Timer_TCB
     /tmp/cce47g5y.s:7984   .rodata.osKernelGetInfo.str1.4:0000000000000000 $d
                     .debug_frame:0000000000000010 $d
     /tmp/cce47g5y.s:1447   .text.osThreadGetState:0000000000000029 $d
     /tmp/cce47g5y.s:1447   .text.osThreadGetState:000000000000002a $t

UNDEFINED SYMBOLS
pvTimerGetTimerID
memcpy
xTaskGetSchedulerState
vTaskStartScheduler
vTaskSuspendAll
xTaskResumeAll
xTaskGetTickCount
xTaskGetTickCountFromISR
SystemCoreClock
xTaskCreateStatic
xTaskCreate
pcTaskGetName
xTaskGetCurrentTaskHandle
eTaskGetState
uxTaskGetStackHighWaterMark
ARM GAS  /tmp/cce47g5y.s 			page 202


vTaskPrioritySet
uxTaskPriorityGet
vTaskSuspend
vTaskResume
vTaskDelete
uxTaskGetNumberOfTasks
pvPortMalloc
uxTaskGetSystemState
vPortFree
xTaskGenericNotify
xTaskGenericNotifyFromISR
xTaskNotifyWait
vTaskDelay
vTaskDelayUntil
xTimerCreate
xTimerCreateStatic
pcTimerGetName
xTimerGenericCommand
xTimerIsTimerActive
xEventGroupCreate
xEventGroupCreateStatic
xEventGroupSetBits
xEventGroupSetBitsFromISR
xEventGroupClearBits
xEventGroupGetBitsFromISR
xEventGroupClearBitsFromISR
xEventGroupWaitBits
vEventGroupDelete
xQueueCreateMutex
xQueueCreateMutexStatic
vQueueAddToRegistry
xQueueTakeMutexRecursive
xQueueSemaphoreTake
xQueueGiveMutexRecursive
xQueueGenericSend
xQueueGetMutexHolder
vQueueUnregisterQueue
vQueueDelete
xQueueCreateCountingSemaphore
xQueueGenericCreate
xQueueGenericCreateStatic
xQueueCreateCountingSemaphoreStatic
xQueueReceiveFromISR
xQueueGiveFromISR
uxQueueMessagesWaiting
uxQueueMessagesWaitingFromISR
xQueueGenericSendFromISR
xQueueReceive
uxQueueSpacesAvailable
xQueueGenericReset
