ARM GAS  /tmp/ccN2LLS3.s 			page 1


   1              		.cpu cortex-m3
   2              		.eabi_attribute 20, 1
   3              		.eabi_attribute 21, 1
   4              		.eabi_attribute 23, 3
   5              		.eabi_attribute 24, 1
   6              		.eabi_attribute 25, 1
   7              		.eabi_attribute 26, 1
   8              		.eabi_attribute 30, 1
   9              		.eabi_attribute 34, 1
  10              		.eabi_attribute 18, 4
  11              		.file	"spi_io.c"
  12              		.text
  13              	.Ltext0:
  14              		.cfi_sections	.debug_frame
  15              		.section	.text.SPI_Init,"ax",%progbits
  16              		.align	1
  17              		.global	SPI_Init
  18              		.syntax unified
  19              		.thumb
  20              		.thumb_func
  21              		.fpu softvfp
  23              	SPI_Init:
  24              	.LFB66:
  25              		.file 1 "Middlewares/Third_Party/ulibSD/spi_io.c"
   1:Middlewares/Third_Party/ulibSD/spi_io.c **** /*
   2:Middlewares/Third_Party/ulibSD/spi_io.c ****  *  File: spi_io.c.example
   3:Middlewares/Third_Party/ulibSD/spi_io.c ****  *  Author: Nelson Lombardo
   4:Middlewares/Third_Party/ulibSD/spi_io.c ****  *  Year: 2015
   5:Middlewares/Third_Party/ulibSD/spi_io.c ****  *  e-mail: nelson.lombardo@gmail.com
   6:Middlewares/Third_Party/ulibSD/spi_io.c ****  *  License at the end of file.
   7:Middlewares/Third_Party/ulibSD/spi_io.c ****  */
   8:Middlewares/Third_Party/ulibSD/spi_io.c **** 
   9:Middlewares/Third_Party/ulibSD/spi_io.c **** #include <stdio.h>
  10:Middlewares/Third_Party/ulibSD/spi_io.c **** #include "spi_io.h"
  11:Middlewares/Third_Party/ulibSD/spi_io.c **** #include "main.h"
  12:Middlewares/Third_Party/ulibSD/spi_io.c **** 
  13:Middlewares/Third_Party/ulibSD/spi_io.c **** extern SPI_HandleTypeDef hspi1;
  14:Middlewares/Third_Party/ulibSD/spi_io.c **** /*
  15:Middlewares/Third_Party/ulibSD/spi_io.c **** extern TIM_HandleTypeDef htim1;
  16:Middlewares/Third_Party/ulibSD/spi_io.c **** uint32_t * GPIOA_BSRR = (uint32_t *)0x40010810;
  17:Middlewares/Third_Party/ulibSD/spi_io.c **** uint32_t * GPIOA_BRR = (uint32_t *)0x40010814;
  18:Middlewares/Third_Party/ulibSD/spi_io.c **** uint16_t SPI_NSS_Pin_Pos = 4u;
  19:Middlewares/Third_Party/ulibSD/spi_io.c **** uint32_t SPI_NSS_Pin_Mask = (0x1 << 4);
  20:Middlewares/Third_Party/ulibSD/spi_io.c **** uint32_t * RCC_CFGR = (uint32_t *)0x40021004;
  21:Middlewares/Third_Party/ulibSD/spi_io.c **** uint16_t PPRE2_Pos = 11u;
  22:Middlewares/Third_Party/ulibSD/spi_io.c **** uint32_t PPRE2_Mask = (0x111 << 11);
  23:Middlewares/Third_Party/ulibSD/spi_io.c **** uint32_t * SPI_CR1 = (uint32_t *)0x40013000;
  24:Middlewares/Third_Party/ulibSD/spi_io.c **** uint16_t SPI_BR_Pos = 3u;
  25:Middlewares/Third_Party/ulibSD/spi_io.c **** uint32_t SPI_BR_Mask = (0x111 << 3);
  26:Middlewares/Third_Party/ulibSD/spi_io.c **** */
  27:Middlewares/Third_Party/ulibSD/spi_io.c **** 
  28:Middlewares/Third_Party/ulibSD/spi_io.c **** uint32_t spiTimerTickStart;
  29:Middlewares/Third_Party/ulibSD/spi_io.c **** uint32_t spiTimerTickDelay;
  30:Middlewares/Third_Party/ulibSD/spi_io.c **** 
  31:Middlewares/Third_Party/ulibSD/spi_io.c **** 
  32:Middlewares/Third_Party/ulibSD/spi_io.c **** /******************************************************************************
  33:Middlewares/Third_Party/ulibSD/spi_io.c ****  Module Public Functions - Low level SPI control functions
ARM GAS  /tmp/ccN2LLS3.s 			page 2


  34:Middlewares/Third_Party/ulibSD/spi_io.c **** ******************************************************************************/
  35:Middlewares/Third_Party/ulibSD/spi_io.c **** 
  36:Middlewares/Third_Party/ulibSD/spi_io.c **** void SPI_Init (void) {
  26              		.loc 1 36 0
  27              		.cfi_startproc
  28              		@ args = 0, pretend = 0, frame = 0
  29              		@ frame_needed = 0, uses_anonymous_args = 0
  30              		@ link register save eliminated.
  31 0000 7047     		bx	lr
  32              		.cfi_endproc
  33              	.LFE66:
  35              		.section	.text.SPI_RW,"ax",%progbits
  36              		.align	1
  37              		.global	SPI_RW
  38              		.syntax unified
  39              		.thumb
  40              		.thumb_func
  41              		.fpu softvfp
  43              	SPI_RW:
  44              	.LFB67:
  37:Middlewares/Third_Party/ulibSD/spi_io.c **** }
  38:Middlewares/Third_Party/ulibSD/spi_io.c **** 
  39:Middlewares/Third_Party/ulibSD/spi_io.c **** BYTE SPI_RW (BYTE d) {
  45              		.loc 1 39 0
  46              		.cfi_startproc
  47              		@ args = 0, pretend = 0, frame = 8
  48              		@ frame_needed = 0, uses_anonymous_args = 0
  49              	.LVL0:
  50              		.loc 1 39 0
  51 0000 00B5     		push	{lr}
  52              	.LCFI0:
  53              		.cfi_def_cfa_offset 4
  54              		.cfi_offset 14, -4
  55 0002 85B0     		sub	sp, sp, #20
  56              	.LCFI1:
  57              		.cfi_def_cfa_offset 24
  40:Middlewares/Third_Party/ulibSD/spi_io.c ****     uint8_t rx_data = 0, tx_data = (uint8_t)d;
  58              		.loc 1 40 0
  59 0004 0023     		movs	r3, #0
  60 0006 8DF80F30 		strb	r3, [sp, #15]
  61 000a 8DF80E00 		strb	r0, [sp, #14]
  62              	.L3:
  41:Middlewares/Third_Party/ulibSD/spi_io.c ****     while ( hspi1.State != HAL_SPI_STATE_READY );
  63              		.loc 1 41 0 discriminator 1
  64 000e 0A4B     		ldr	r3, .L5
  65 0010 93F85130 		ldrb	r3, [r3, #81]	@ zero_extendqisi2
  66 0014 DBB2     		uxtb	r3, r3
  67 0016 012B     		cmp	r3, #1
  68 0018 F9D1     		bne	.L3
  42:Middlewares/Third_Party/ulibSD/spi_io.c ****     HAL_SPI_TransmitReceive(&hspi1, &tx_data, &rx_data, 1, 0);
  69              		.loc 1 42 0
  70 001a 0023     		movs	r3, #0
  71 001c 0093     		str	r3, [sp]
  72 001e 0123     		movs	r3, #1
  73 0020 0DF10F02 		add	r2, sp, #15
  74 0024 0DF10E01 		add	r1, sp, #14
  75 0028 0348     		ldr	r0, .L5
ARM GAS  /tmp/ccN2LLS3.s 			page 3


  76              	.LVL1:
  77 002a FFF7FEFF 		bl	HAL_SPI_TransmitReceive
  78              	.LVL2:
  43:Middlewares/Third_Party/ulibSD/spi_io.c ****     return (rx_data);
  44:Middlewares/Third_Party/ulibSD/spi_io.c **** }
  79              		.loc 1 44 0
  80 002e 9DF80F00 		ldrb	r0, [sp, #15]	@ zero_extendqisi2
  81 0032 05B0     		add	sp, sp, #20
  82              	.LCFI2:
  83              		.cfi_def_cfa_offset 4
  84              		@ sp needed
  85 0034 5DF804FB 		ldr	pc, [sp], #4
  86              	.L6:
  87              		.align	2
  88              	.L5:
  89 0038 00000000 		.word	hspi1
  90              		.cfi_endproc
  91              	.LFE67:
  93              		.section	.text.SPI_Release,"ax",%progbits
  94              		.align	1
  95              		.global	SPI_Release
  96              		.syntax unified
  97              		.thumb
  98              		.thumb_func
  99              		.fpu softvfp
 101              	SPI_Release:
 102              	.LFB68:
  45:Middlewares/Third_Party/ulibSD/spi_io.c **** 
  46:Middlewares/Third_Party/ulibSD/spi_io.c **** void SPI_Release (void) {
 103              		.loc 1 46 0
 104              		.cfi_startproc
 105              		@ args = 0, pretend = 0, frame = 0
 106              		@ frame_needed = 0, uses_anonymous_args = 0
 107 0000 10B5     		push	{r4, lr}
 108              	.LCFI3:
 109              		.cfi_def_cfa_offset 8
 110              		.cfi_offset 4, -8
 111              		.cfi_offset 14, -4
 112              	.LVL3:
  47:Middlewares/Third_Party/ulibSD/spi_io.c ****     WORD idx;
  48:Middlewares/Third_Party/ulibSD/spi_io.c ****     for (idx=512; idx && (SPI_RW(0xFF)!=0xFF); idx--);
 113              		.loc 1 48 0
 114 0002 4FF40074 		mov	r4, #512
 115 0006 01E0     		b	.L8
 116              	.LVL4:
 117              	.L10:
 118              		.loc 1 48 0 is_stmt 0 discriminator 4
 119 0008 013C     		subs	r4, r4, #1
 120              	.LVL5:
 121 000a A4B2     		uxth	r4, r4
 122              	.LVL6:
 123              	.L8:
 124              		.loc 1 48 0 discriminator 1
 125 000c 24B1     		cbz	r4, .L7
 126              		.loc 1 48 0 discriminator 3
 127 000e FF20     		movs	r0, #255
 128 0010 FFF7FEFF 		bl	SPI_RW
ARM GAS  /tmp/ccN2LLS3.s 			page 4


 129              	.LVL7:
 130 0014 FF28     		cmp	r0, #255
 131 0016 F7D1     		bne	.L10
 132              	.L7:
 133 0018 10BD     		pop	{r4, pc}
 134              		.cfi_endproc
 135              	.LFE68:
 137              		.section	.text.SPI_CS_Low,"ax",%progbits
 138              		.align	1
 139              		.global	SPI_CS_Low
 140              		.syntax unified
 141              		.thumb
 142              		.thumb_func
 143              		.fpu softvfp
 145              	SPI_CS_Low:
 146              	.LFB69:
  49:Middlewares/Third_Party/ulibSD/spi_io.c **** }
  50:Middlewares/Third_Party/ulibSD/spi_io.c **** 
  51:Middlewares/Third_Party/ulibSD/spi_io.c **** inline void SPI_CS_Low (void) {
 147              		.loc 1 51 0 is_stmt 1
 148              		.cfi_startproc
 149              		@ args = 0, pretend = 0, frame = 0
 150              		@ frame_needed = 0, uses_anonymous_args = 0
 151 0000 08B5     		push	{r3, lr}
 152              	.LCFI4:
 153              		.cfi_def_cfa_offset 8
 154              		.cfi_offset 3, -8
 155              		.cfi_offset 14, -4
  52:Middlewares/Third_Party/ulibSD/spi_io.c ****     HAL_GPIO_WritePin(SD_NSS_GPIO_Port, SD_NSS_Pin, GPIO_PIN_RESET);
 156              		.loc 1 52 0
 157 0002 0022     		movs	r2, #0
 158 0004 1021     		movs	r1, #16
 159 0006 0248     		ldr	r0, .L14
 160 0008 FFF7FEFF 		bl	HAL_GPIO_WritePin
 161              	.LVL8:
 162 000c 08BD     		pop	{r3, pc}
 163              	.L15:
 164 000e 00BF     		.align	2
 165              	.L14:
 166 0010 00080140 		.word	1073809408
 167              		.cfi_endproc
 168              	.LFE69:
 170              		.section	.text.SPI_CS_High,"ax",%progbits
 171              		.align	1
 172              		.global	SPI_CS_High
 173              		.syntax unified
 174              		.thumb
 175              		.thumb_func
 176              		.fpu softvfp
 178              	SPI_CS_High:
 179              	.LFB70:
  53:Middlewares/Third_Party/ulibSD/spi_io.c **** }
  54:Middlewares/Third_Party/ulibSD/spi_io.c **** 
  55:Middlewares/Third_Party/ulibSD/spi_io.c **** inline void SPI_CS_High (void){
 180              		.loc 1 55 0
 181              		.cfi_startproc
 182              		@ args = 0, pretend = 0, frame = 0
ARM GAS  /tmp/ccN2LLS3.s 			page 5


 183              		@ frame_needed = 0, uses_anonymous_args = 0
 184 0000 08B5     		push	{r3, lr}
 185              	.LCFI5:
 186              		.cfi_def_cfa_offset 8
 187              		.cfi_offset 3, -8
 188              		.cfi_offset 14, -4
  56:Middlewares/Third_Party/ulibSD/spi_io.c ****     HAL_GPIO_WritePin(SD_NSS_GPIO_Port, SD_NSS_Pin, GPIO_PIN_SET);
 189              		.loc 1 56 0
 190 0002 0122     		movs	r2, #1
 191 0004 1021     		movs	r1, #16
 192 0006 0248     		ldr	r0, .L18
 193 0008 FFF7FEFF 		bl	HAL_GPIO_WritePin
 194              	.LVL9:
 195 000c 08BD     		pop	{r3, pc}
 196              	.L19:
 197 000e 00BF     		.align	2
 198              	.L18:
 199 0010 00080140 		.word	1073809408
 200              		.cfi_endproc
 201              	.LFE70:
 203              		.section	.text.SPI_Freq_High,"ax",%progbits
 204              		.align	1
 205              		.global	SPI_Freq_High
 206              		.syntax unified
 207              		.thumb
 208              		.thumb_func
 209              		.fpu softvfp
 211              	SPI_Freq_High:
 212              	.LFB71:
  57:Middlewares/Third_Party/ulibSD/spi_io.c **** }
  58:Middlewares/Third_Party/ulibSD/spi_io.c **** 
  59:Middlewares/Third_Party/ulibSD/spi_io.c **** inline void SPI_Freq_High (void) {
 213              		.loc 1 59 0
 214              		.cfi_startproc
 215              		@ args = 0, pretend = 0, frame = 0
 216              		@ frame_needed = 0, uses_anonymous_args = 0
 217 0000 10B5     		push	{r4, lr}
 218              	.LCFI6:
 219              		.cfi_def_cfa_offset 8
 220              		.cfi_offset 4, -8
 221              		.cfi_offset 14, -4
  60:Middlewares/Third_Party/ulibSD/spi_io.c ****     //De-initialize SPI
  61:Middlewares/Third_Party/ulibSD/spi_io.c ****     HAL_SPI_DeInit(&hspi1);
 222              		.loc 1 61 0
 223 0002 074C     		ldr	r4, .L24
 224 0004 2046     		mov	r0, r4
 225 0006 FFF7FEFF 		bl	HAL_SPI_DeInit
 226              	.LVL10:
  62:Middlewares/Third_Party/ulibSD/spi_io.c ****     //Set init struct baudrate prescaler to 2
  63:Middlewares/Third_Party/ulibSD/spi_io.c ****     hspi1.Init.BaudRatePrescaler = SPI_BAUDRATEPRESCALER_2;
 227              		.loc 1 63 0
 228 000a 0023     		movs	r3, #0
 229 000c E361     		str	r3, [r4, #28]
  64:Middlewares/Third_Party/ulibSD/spi_io.c ****     //Re-initialize SPI
  65:Middlewares/Third_Party/ulibSD/spi_io.c ****     if (HAL_SPI_Init(&hspi1) != HAL_OK)
 230              		.loc 1 65 0
 231 000e 2046     		mov	r0, r4
ARM GAS  /tmp/ccN2LLS3.s 			page 6


 232 0010 FFF7FEFF 		bl	HAL_SPI_Init
 233              	.LVL11:
 234 0014 00B9     		cbnz	r0, .L23
 235              	.L20:
 236 0016 10BD     		pop	{r4, pc}
 237              	.L23:
  66:Middlewares/Third_Party/ulibSD/spi_io.c ****     {
  67:Middlewares/Third_Party/ulibSD/spi_io.c ****         Error_Handler();
 238              		.loc 1 67 0
 239 0018 FFF7FEFF 		bl	Error_Handler
 240              	.LVL12:
  68:Middlewares/Third_Party/ulibSD/spi_io.c ****     }
  69:Middlewares/Third_Party/ulibSD/spi_io.c **** }
 241              		.loc 1 69 0
 242 001c FBE7     		b	.L20
 243              	.L25:
 244 001e 00BF     		.align	2
 245              	.L24:
 246 0020 00000000 		.word	hspi1
 247              		.cfi_endproc
 248              	.LFE71:
 250              		.section	.text.SPI_Freq_Low,"ax",%progbits
 251              		.align	1
 252              		.global	SPI_Freq_Low
 253              		.syntax unified
 254              		.thumb
 255              		.thumb_func
 256              		.fpu softvfp
 258              	SPI_Freq_Low:
 259              	.LFB72:
  70:Middlewares/Third_Party/ulibSD/spi_io.c **** 
  71:Middlewares/Third_Party/ulibSD/spi_io.c **** inline void SPI_Freq_Low (void) {
 260              		.loc 1 71 0
 261              		.cfi_startproc
 262              		@ args = 0, pretend = 0, frame = 0
 263              		@ frame_needed = 0, uses_anonymous_args = 0
 264 0000 10B5     		push	{r4, lr}
 265              	.LCFI7:
 266              		.cfi_def_cfa_offset 8
 267              		.cfi_offset 4, -8
 268              		.cfi_offset 14, -4
  72:Middlewares/Third_Party/ulibSD/spi_io.c ****     //De-initialize SPI
  73:Middlewares/Third_Party/ulibSD/spi_io.c ****     HAL_SPI_DeInit(&hspi1);
 269              		.loc 1 73 0
 270 0002 074C     		ldr	r4, .L30
 271 0004 2046     		mov	r0, r4
 272 0006 FFF7FEFF 		bl	HAL_SPI_DeInit
 273              	.LVL13:
  74:Middlewares/Third_Party/ulibSD/spi_io.c ****     //Set init struct baudrate prescaler to 256
  75:Middlewares/Third_Party/ulibSD/spi_io.c ****     hspi1.Init.BaudRatePrescaler = SPI_BAUDRATEPRESCALER_32;
 274              		.loc 1 75 0
 275 000a 2023     		movs	r3, #32
 276 000c E361     		str	r3, [r4, #28]
  76:Middlewares/Third_Party/ulibSD/spi_io.c ****     //Re-initialize SPI
  77:Middlewares/Third_Party/ulibSD/spi_io.c ****     if (HAL_SPI_Init(&hspi1) != HAL_OK)
 277              		.loc 1 77 0
 278 000e 2046     		mov	r0, r4
ARM GAS  /tmp/ccN2LLS3.s 			page 7


 279 0010 FFF7FEFF 		bl	HAL_SPI_Init
 280              	.LVL14:
 281 0014 00B9     		cbnz	r0, .L29
 282              	.L26:
 283 0016 10BD     		pop	{r4, pc}
 284              	.L29:
  78:Middlewares/Third_Party/ulibSD/spi_io.c ****     {
  79:Middlewares/Third_Party/ulibSD/spi_io.c ****         Error_Handler();
 285              		.loc 1 79 0
 286 0018 FFF7FEFF 		bl	Error_Handler
 287              	.LVL15:
  80:Middlewares/Third_Party/ulibSD/spi_io.c ****     }
  81:Middlewares/Third_Party/ulibSD/spi_io.c ****     
  82:Middlewares/Third_Party/ulibSD/spi_io.c ****     /*
  83:Middlewares/Third_Party/ulibSD/spi_io.c ****     if ( *RCC_CFGR & PPRE2_Mask )
  84:Middlewares/Third_Party/ulibSD/spi_io.c ****     {
  85:Middlewares/Third_Party/ulibSD/spi_io.c ****         //APB2 prescaler is >1 and APB2 timer clock is 2x APB2 clock
  86:Middlewares/Third_Party/ulibSD/spi_io.c ****         if ( ( HAL_RCC_GetPCLK2Freq() * 2 / 256 ) > 400000 )
  87:Middlewares/Third_Party/ulibSD/spi_io.c ****         {
  88:Middlewares/Third_Party/ulibSD/spi_io.c ****             Error_Handler();
  89:Middlewares/Third_Party/ulibSD/spi_io.c ****         }
  90:Middlewares/Third_Party/ulibSD/spi_io.c ****     }
  91:Middlewares/Third_Party/ulibSD/spi_io.c ****     else
  92:Middlewares/Third_Party/ulibSD/spi_io.c ****     {
  93:Middlewares/Third_Party/ulibSD/spi_io.c ****         //APB2 prescaler is x1 and APB2 timer clock = APB2 clock
  94:Middlewares/Third_Party/ulibSD/spi_io.c ****         if ( ( HAL_RCC_GetPCLK2Freq() / 256 ) > 400000 )
  95:Middlewares/Third_Party/ulibSD/spi_io.c ****         {
  96:Middlewares/Third_Party/ulibSD/spi_io.c ****             Error_Handler();
  97:Middlewares/Third_Party/ulibSD/spi_io.c ****         }
  98:Middlewares/Third_Party/ulibSD/spi_io.c ****     }
  99:Middlewares/Third_Party/ulibSD/spi_io.c ****     *SPI_CR1 |= SPI_BR_Mask;
 100:Middlewares/Third_Party/ulibSD/spi_io.c ****     */
 101:Middlewares/Third_Party/ulibSD/spi_io.c **** }
 288              		.loc 1 101 0
 289 001c FBE7     		b	.L26
 290              	.L31:
 291 001e 00BF     		.align	2
 292              	.L30:
 293 0020 00000000 		.word	hspi1
 294              		.cfi_endproc
 295              	.LFE72:
 297              		.section	.text.SPI_Timer_On,"ax",%progbits
 298              		.align	1
 299              		.global	SPI_Timer_On
 300              		.syntax unified
 301              		.thumb
 302              		.thumb_func
 303              		.fpu softvfp
 305              	SPI_Timer_On:
 306              	.LFB73:
 102:Middlewares/Third_Party/ulibSD/spi_io.c **** 
 103:Middlewares/Third_Party/ulibSD/spi_io.c **** void SPI_Timer_On (WORD ms) {
 307              		.loc 1 103 0
 308              		.cfi_startproc
 309              		@ args = 0, pretend = 0, frame = 0
 310              		@ frame_needed = 0, uses_anonymous_args = 0
 311              	.LVL16:
ARM GAS  /tmp/ccN2LLS3.s 			page 8


 312 0000 10B5     		push	{r4, lr}
 313              	.LCFI8:
 314              		.cfi_def_cfa_offset 8
 315              		.cfi_offset 4, -8
 316              		.cfi_offset 14, -4
 317 0002 0446     		mov	r4, r0
 104:Middlewares/Third_Party/ulibSD/spi_io.c ****     spiTimerTickStart = HAL_GetTick();
 318              		.loc 1 104 0
 319 0004 FFF7FEFF 		bl	HAL_GetTick
 320              	.LVL17:
 321 0008 024B     		ldr	r3, .L34
 322 000a 1860     		str	r0, [r3]
 105:Middlewares/Third_Party/ulibSD/spi_io.c ****     spiTimerTickDelay = ms;
 323              		.loc 1 105 0
 324 000c 024B     		ldr	r3, .L34+4
 325 000e 1C60     		str	r4, [r3]
 326 0010 10BD     		pop	{r4, pc}
 327              	.L35:
 328 0012 00BF     		.align	2
 329              	.L34:
 330 0014 00000000 		.word	spiTimerTickStart
 331 0018 00000000 		.word	spiTimerTickDelay
 332              		.cfi_endproc
 333              	.LFE73:
 335              		.section	.text.SPI_Timer_Status,"ax",%progbits
 336              		.align	1
 337              		.global	SPI_Timer_Status
 338              		.syntax unified
 339              		.thumb
 340              		.thumb_func
 341              		.fpu softvfp
 343              	SPI_Timer_Status:
 344              	.LFB74:
 106:Middlewares/Third_Party/ulibSD/spi_io.c **** }
 107:Middlewares/Third_Party/ulibSD/spi_io.c **** 
 108:Middlewares/Third_Party/ulibSD/spi_io.c **** inline BOOL SPI_Timer_Status (void) {
 345              		.loc 1 108 0
 346              		.cfi_startproc
 347              		@ args = 0, pretend = 0, frame = 0
 348              		@ frame_needed = 0, uses_anonymous_args = 0
 349 0000 08B5     		push	{r3, lr}
 350              	.LCFI9:
 351              		.cfi_def_cfa_offset 8
 352              		.cfi_offset 3, -8
 353              		.cfi_offset 14, -4
 109:Middlewares/Third_Party/ulibSD/spi_io.c ****     return ((HAL_GetTick() - spiTimerTickStart) < spiTimerTickDelay);
 354              		.loc 1 109 0
 355 0002 FFF7FEFF 		bl	HAL_GetTick
 356              	.LVL18:
 357 0006 054B     		ldr	r3, .L38
 358 0008 1B68     		ldr	r3, [r3]
 359 000a C01A     		subs	r0, r0, r3
 360 000c 044B     		ldr	r3, .L38+4
 361 000e 1B68     		ldr	r3, [r3]
 110:Middlewares/Third_Party/ulibSD/spi_io.c **** }
 362              		.loc 1 110 0
 363 0010 9842     		cmp	r0, r3
ARM GAS  /tmp/ccN2LLS3.s 			page 9


 364 0012 2CBF     		ite	cs
 365 0014 0020     		movcs	r0, #0
 366 0016 0120     		movcc	r0, #1
 367 0018 08BD     		pop	{r3, pc}
 368              	.L39:
 369 001a 00BF     		.align	2
 370              	.L38:
 371 001c 00000000 		.word	spiTimerTickStart
 372 0020 00000000 		.word	spiTimerTickDelay
 373              		.cfi_endproc
 374              	.LFE74:
 376              		.section	.text.SPI_Timer_Off,"ax",%progbits
 377              		.align	1
 378              		.global	SPI_Timer_Off
 379              		.syntax unified
 380              		.thumb
 381              		.thumb_func
 382              		.fpu softvfp
 384              	SPI_Timer_Off:
 385              	.LFB75:
 111:Middlewares/Third_Party/ulibSD/spi_io.c **** 
 112:Middlewares/Third_Party/ulibSD/spi_io.c **** inline void SPI_Timer_Off (void) {
 386              		.loc 1 112 0
 387              		.cfi_startproc
 388              		@ args = 0, pretend = 0, frame = 0
 389              		@ frame_needed = 0, uses_anonymous_args = 0
 390              		@ link register save eliminated.
 391 0000 7047     		bx	lr
 392              		.cfi_endproc
 393              	.LFE75:
 395              		.comm	spiTimerTickDelay,4,4
 396              		.comm	spiTimerTickStart,4,4
 397              		.text
 398              	.Letext0:
 399              		.file 2 "/usr/include/newlib/machine/_default_types.h"
 400              		.file 3 "/usr/include/newlib/sys/lock.h"
 401              		.file 4 "/usr/include/newlib/sys/_types.h"
 402              		.file 5 "/usr/lib/gcc/arm-none-eabi/6.3.1/include/stddef.h"
 403              		.file 6 "/usr/include/newlib/sys/reent.h"
 404              		.file 7 "/usr/include/newlib/sys/_stdint.h"
 405              		.file 8 "Middlewares/Third_Party/FatFs/src/integer.h"
 406              		.file 9 "Middlewares/Third_Party/ulibSD/integer_ulibsd.h"
 407              		.file 10 "Drivers/CMSIS/Include/core_cm3.h"
 408              		.file 11 "Drivers/CMSIS/Device/ST/STM32F1xx/Include/system_stm32f1xx.h"
 409              		.file 12 "Drivers/CMSIS/Device/ST/STM32F1xx/Include/stm32f103xb.h"
 410              		.file 13 "Drivers/STM32F1xx_HAL_Driver/Inc/stm32f1xx_hal_def.h"
 411              		.file 14 "Drivers/STM32F1xx_HAL_Driver/Inc/stm32f1xx_hal_gpio.h"
 412              		.file 15 "Drivers/STM32F1xx_HAL_Driver/Inc/stm32f1xx_hal_dma.h"
 413              		.file 16 "Drivers/STM32F1xx_HAL_Driver/Inc/stm32f1xx_hal_spi.h"
 414              		.file 17 "Drivers/STM32F1xx_HAL_Driver/Inc/stm32f1xx_hal.h"
 415              		.file 18 "Inc/main.h"
ARM GAS  /tmp/ccN2LLS3.s 			page 10

