ARM GAS  /tmp/ccvFwc0s.s 			page 1


   1              		.cpu cortex-m3
   2              		.eabi_attribute 20, 1
   3              		.eabi_attribute 21, 1
   4              		.eabi_attribute 23, 3
   5              		.eabi_attribute 24, 1
   6              		.eabi_attribute 25, 1
   7              		.eabi_attribute 26, 1
   8              		.eabi_attribute 30, 1
   9              		.eabi_attribute 34, 1
  10              		.eabi_attribute 18, 4
  11              		.file	"stream_buffer.c"
  12              		.text
  13              	.Ltext0:
  14              		.cfi_sections	.debug_frame
  15              		.section	.text.prvBytesInBuffer,"ax",%progbits
  16              		.align	1
  17              		.syntax unified
  18              		.thumb
  19              		.thumb_func
  20              		.fpu softvfp
  22              	prvBytesInBuffer:
  23              	.LFB23:
  24              		.file 1 "Middlewares/Third_Party/FreeRTOS/Source/stream_buffer.c"
   1:Middlewares/Third_Party/FreeRTOS/Source/stream_buffer.c **** /*
   2:Middlewares/Third_Party/FreeRTOS/Source/stream_buffer.c ****  * FreeRTOS Kernel V10.0.1
   3:Middlewares/Third_Party/FreeRTOS/Source/stream_buffer.c ****  * Copyright (C) 2017 Amazon.com, Inc. or its affiliates.  All Rights Reserved.
   4:Middlewares/Third_Party/FreeRTOS/Source/stream_buffer.c ****  *
   5:Middlewares/Third_Party/FreeRTOS/Source/stream_buffer.c ****  * Permission is hereby granted, free of charge, to any person obtaining a copy of
   6:Middlewares/Third_Party/FreeRTOS/Source/stream_buffer.c ****  * this software and associated documentation files (the "Software"), to deal in
   7:Middlewares/Third_Party/FreeRTOS/Source/stream_buffer.c ****  * the Software without restriction, including without limitation the rights to
   8:Middlewares/Third_Party/FreeRTOS/Source/stream_buffer.c ****  * use, copy, modify, merge, publish, distribute, sublicense, and/or sell copies of
   9:Middlewares/Third_Party/FreeRTOS/Source/stream_buffer.c ****  * the Software, and to permit persons to whom the Software is furnished to do so,
  10:Middlewares/Third_Party/FreeRTOS/Source/stream_buffer.c ****  * subject to the following conditions:
  11:Middlewares/Third_Party/FreeRTOS/Source/stream_buffer.c ****  *
  12:Middlewares/Third_Party/FreeRTOS/Source/stream_buffer.c ****  * The above copyright notice and this permission notice shall be included in all
  13:Middlewares/Third_Party/FreeRTOS/Source/stream_buffer.c ****  * copies or substantial portions of the Software.
  14:Middlewares/Third_Party/FreeRTOS/Source/stream_buffer.c ****  *
  15:Middlewares/Third_Party/FreeRTOS/Source/stream_buffer.c ****  * THE SOFTWARE IS PROVIDED "AS IS", WITHOUT WARRANTY OF ANY KIND, EXPRESS OR
  16:Middlewares/Third_Party/FreeRTOS/Source/stream_buffer.c ****  * IMPLIED, INCLUDING BUT NOT LIMITED TO THE WARRANTIES OF MERCHANTABILITY, FITNESS
  17:Middlewares/Third_Party/FreeRTOS/Source/stream_buffer.c ****  * FOR A PARTICULAR PURPOSE AND NONINFRINGEMENT. IN NO EVENT SHALL THE AUTHORS OR
  18:Middlewares/Third_Party/FreeRTOS/Source/stream_buffer.c ****  * COPYRIGHT HOLDERS BE LIABLE FOR ANY CLAIM, DAMAGES OR OTHER LIABILITY, WHETHER
  19:Middlewares/Third_Party/FreeRTOS/Source/stream_buffer.c ****  * IN AN ACTION OF CONTRACT, TORT OR OTHERWISE, ARISING FROM, OUT OF OR IN
  20:Middlewares/Third_Party/FreeRTOS/Source/stream_buffer.c ****  * CONNECTION WITH THE SOFTWARE OR THE USE OR OTHER DEALINGS IN THE SOFTWARE.
  21:Middlewares/Third_Party/FreeRTOS/Source/stream_buffer.c ****  *
  22:Middlewares/Third_Party/FreeRTOS/Source/stream_buffer.c ****  * http://www.FreeRTOS.org
  23:Middlewares/Third_Party/FreeRTOS/Source/stream_buffer.c ****  * http://aws.amazon.com/freertos
  24:Middlewares/Third_Party/FreeRTOS/Source/stream_buffer.c ****  *
  25:Middlewares/Third_Party/FreeRTOS/Source/stream_buffer.c ****  * 1 tab == 4 spaces!
  26:Middlewares/Third_Party/FreeRTOS/Source/stream_buffer.c ****  */
  27:Middlewares/Third_Party/FreeRTOS/Source/stream_buffer.c **** 
  28:Middlewares/Third_Party/FreeRTOS/Source/stream_buffer.c **** /* Standard includes. */
  29:Middlewares/Third_Party/FreeRTOS/Source/stream_buffer.c **** #include <stdint.h>
  30:Middlewares/Third_Party/FreeRTOS/Source/stream_buffer.c **** #include <string.h>
  31:Middlewares/Third_Party/FreeRTOS/Source/stream_buffer.c **** 
  32:Middlewares/Third_Party/FreeRTOS/Source/stream_buffer.c **** /* Defining MPU_WRAPPERS_INCLUDED_FROM_API_FILE prevents task.h from redefining
  33:Middlewares/Third_Party/FreeRTOS/Source/stream_buffer.c **** all the API functions to use the MPU wrappers.  That should only be done when
  34:Middlewares/Third_Party/FreeRTOS/Source/stream_buffer.c **** task.h is included from an application file. */
ARM GAS  /tmp/ccvFwc0s.s 			page 2


  35:Middlewares/Third_Party/FreeRTOS/Source/stream_buffer.c **** #define MPU_WRAPPERS_INCLUDED_FROM_API_FILE
  36:Middlewares/Third_Party/FreeRTOS/Source/stream_buffer.c **** 
  37:Middlewares/Third_Party/FreeRTOS/Source/stream_buffer.c **** /* FreeRTOS includes. */
  38:Middlewares/Third_Party/FreeRTOS/Source/stream_buffer.c **** #include "FreeRTOS.h"
  39:Middlewares/Third_Party/FreeRTOS/Source/stream_buffer.c **** #include "task.h"
  40:Middlewares/Third_Party/FreeRTOS/Source/stream_buffer.c **** #include "stream_buffer.h"
  41:Middlewares/Third_Party/FreeRTOS/Source/stream_buffer.c **** 
  42:Middlewares/Third_Party/FreeRTOS/Source/stream_buffer.c **** #if( configUSE_TASK_NOTIFICATIONS != 1 )
  43:Middlewares/Third_Party/FreeRTOS/Source/stream_buffer.c **** 	#error configUSE_TASK_NOTIFICATIONS must be set to 1 to build stream_buffer.c
  44:Middlewares/Third_Party/FreeRTOS/Source/stream_buffer.c **** #endif
  45:Middlewares/Third_Party/FreeRTOS/Source/stream_buffer.c **** 
  46:Middlewares/Third_Party/FreeRTOS/Source/stream_buffer.c **** /* Lint e961 and e750 are suppressed as a MISRA exception justified because the
  47:Middlewares/Third_Party/FreeRTOS/Source/stream_buffer.c **** MPU ports require MPU_WRAPPERS_INCLUDED_FROM_API_FILE to be defined for the
  48:Middlewares/Third_Party/FreeRTOS/Source/stream_buffer.c **** header files above, but not in this file, in order to generate the correct
  49:Middlewares/Third_Party/FreeRTOS/Source/stream_buffer.c **** privileged Vs unprivileged linkage and placement. */
  50:Middlewares/Third_Party/FreeRTOS/Source/stream_buffer.c **** #undef MPU_WRAPPERS_INCLUDED_FROM_API_FILE /*lint !e961 !e750. */
  51:Middlewares/Third_Party/FreeRTOS/Source/stream_buffer.c **** 
  52:Middlewares/Third_Party/FreeRTOS/Source/stream_buffer.c **** /* If the user has not provided application specific Rx notification macros,
  53:Middlewares/Third_Party/FreeRTOS/Source/stream_buffer.c **** or #defined the notification macros away, them provide default implementations
  54:Middlewares/Third_Party/FreeRTOS/Source/stream_buffer.c **** that uses task notifications. */
  55:Middlewares/Third_Party/FreeRTOS/Source/stream_buffer.c **** /*lint -save -e9026 Function like macros allowed and needed here so they can be overidden. */
  56:Middlewares/Third_Party/FreeRTOS/Source/stream_buffer.c **** #ifndef sbRECEIVE_COMPLETED
  57:Middlewares/Third_Party/FreeRTOS/Source/stream_buffer.c **** 	#define sbRECEIVE_COMPLETED( pxStreamBuffer )										\
  58:Middlewares/Third_Party/FreeRTOS/Source/stream_buffer.c **** 		vTaskSuspendAll();																\
  59:Middlewares/Third_Party/FreeRTOS/Source/stream_buffer.c **** 		{																				\
  60:Middlewares/Third_Party/FreeRTOS/Source/stream_buffer.c **** 			if( ( pxStreamBuffer )->xTaskWaitingToSend != NULL )						\
  61:Middlewares/Third_Party/FreeRTOS/Source/stream_buffer.c **** 			{																			\
  62:Middlewares/Third_Party/FreeRTOS/Source/stream_buffer.c **** 				( void ) xTaskNotify( ( pxStreamBuffer )->xTaskWaitingToSend,			\
  63:Middlewares/Third_Party/FreeRTOS/Source/stream_buffer.c **** 									  ( uint32_t ) 0,									\
  64:Middlewares/Third_Party/FreeRTOS/Source/stream_buffer.c **** 									  eNoAction );										\
  65:Middlewares/Third_Party/FreeRTOS/Source/stream_buffer.c **** 				( pxStreamBuffer )->xTaskWaitingToSend = NULL;							\
  66:Middlewares/Third_Party/FreeRTOS/Source/stream_buffer.c **** 			}																			\
  67:Middlewares/Third_Party/FreeRTOS/Source/stream_buffer.c **** 		}																				\
  68:Middlewares/Third_Party/FreeRTOS/Source/stream_buffer.c **** 		( void ) xTaskResumeAll();
  69:Middlewares/Third_Party/FreeRTOS/Source/stream_buffer.c **** #endif /* sbRECEIVE_COMPLETED */
  70:Middlewares/Third_Party/FreeRTOS/Source/stream_buffer.c **** 
  71:Middlewares/Third_Party/FreeRTOS/Source/stream_buffer.c **** #ifndef sbRECEIVE_COMPLETED_FROM_ISR
  72:Middlewares/Third_Party/FreeRTOS/Source/stream_buffer.c **** 	#define sbRECEIVE_COMPLETED_FROM_ISR( pxStreamBuffer,								\
  73:Middlewares/Third_Party/FreeRTOS/Source/stream_buffer.c **** 										  pxHigherPriorityTaskWoken )					\
  74:Middlewares/Third_Party/FreeRTOS/Source/stream_buffer.c **** 	{																					\
  75:Middlewares/Third_Party/FreeRTOS/Source/stream_buffer.c **** 	UBaseType_t uxSavedInterruptStatus;													\
  76:Middlewares/Third_Party/FreeRTOS/Source/stream_buffer.c **** 																						\
  77:Middlewares/Third_Party/FreeRTOS/Source/stream_buffer.c **** 		uxSavedInterruptStatus = ( UBaseType_t ) portSET_INTERRUPT_MASK_FROM_ISR();		\
  78:Middlewares/Third_Party/FreeRTOS/Source/stream_buffer.c **** 		{																				\
  79:Middlewares/Third_Party/FreeRTOS/Source/stream_buffer.c **** 			if( ( pxStreamBuffer )->xTaskWaitingToSend != NULL )						\
  80:Middlewares/Third_Party/FreeRTOS/Source/stream_buffer.c **** 			{																			\
  81:Middlewares/Third_Party/FreeRTOS/Source/stream_buffer.c **** 				( void ) xTaskNotifyFromISR( ( pxStreamBuffer )->xTaskWaitingToSend,	\
  82:Middlewares/Third_Party/FreeRTOS/Source/stream_buffer.c **** 											 ( uint32_t ) 0,							\
  83:Middlewares/Third_Party/FreeRTOS/Source/stream_buffer.c **** 											 eNoAction,									\
  84:Middlewares/Third_Party/FreeRTOS/Source/stream_buffer.c **** 											 pxHigherPriorityTaskWoken );				\
  85:Middlewares/Third_Party/FreeRTOS/Source/stream_buffer.c **** 				( pxStreamBuffer )->xTaskWaitingToSend = NULL;							\
  86:Middlewares/Third_Party/FreeRTOS/Source/stream_buffer.c **** 			}																			\
  87:Middlewares/Third_Party/FreeRTOS/Source/stream_buffer.c **** 		}																				\
  88:Middlewares/Third_Party/FreeRTOS/Source/stream_buffer.c **** 		portCLEAR_INTERRUPT_MASK_FROM_ISR( uxSavedInterruptStatus );					\
  89:Middlewares/Third_Party/FreeRTOS/Source/stream_buffer.c **** 	}
  90:Middlewares/Third_Party/FreeRTOS/Source/stream_buffer.c **** #endif /* sbRECEIVE_COMPLETED_FROM_ISR */
  91:Middlewares/Third_Party/FreeRTOS/Source/stream_buffer.c **** 
ARM GAS  /tmp/ccvFwc0s.s 			page 3


  92:Middlewares/Third_Party/FreeRTOS/Source/stream_buffer.c **** /* If the user has not provided an application specific Tx notification macro,
  93:Middlewares/Third_Party/FreeRTOS/Source/stream_buffer.c **** or #defined the notification macro away, them provide a default implementation
  94:Middlewares/Third_Party/FreeRTOS/Source/stream_buffer.c **** that uses task notifications. */
  95:Middlewares/Third_Party/FreeRTOS/Source/stream_buffer.c **** #ifndef sbSEND_COMPLETED
  96:Middlewares/Third_Party/FreeRTOS/Source/stream_buffer.c **** 	#define sbSEND_COMPLETED( pxStreamBuffer )											\
  97:Middlewares/Third_Party/FreeRTOS/Source/stream_buffer.c **** 		vTaskSuspendAll();																\
  98:Middlewares/Third_Party/FreeRTOS/Source/stream_buffer.c **** 		{																				\
  99:Middlewares/Third_Party/FreeRTOS/Source/stream_buffer.c **** 			if( ( pxStreamBuffer )->xTaskWaitingToReceive != NULL )						\
 100:Middlewares/Third_Party/FreeRTOS/Source/stream_buffer.c **** 			{																			\
 101:Middlewares/Third_Party/FreeRTOS/Source/stream_buffer.c **** 				( void ) xTaskNotify( ( pxStreamBuffer )->xTaskWaitingToReceive,		\
 102:Middlewares/Third_Party/FreeRTOS/Source/stream_buffer.c **** 									  ( uint32_t ) 0,									\
 103:Middlewares/Third_Party/FreeRTOS/Source/stream_buffer.c **** 									  eNoAction );										\
 104:Middlewares/Third_Party/FreeRTOS/Source/stream_buffer.c **** 				( pxStreamBuffer )->xTaskWaitingToReceive = NULL;						\
 105:Middlewares/Third_Party/FreeRTOS/Source/stream_buffer.c **** 			}																			\
 106:Middlewares/Third_Party/FreeRTOS/Source/stream_buffer.c **** 		}																				\
 107:Middlewares/Third_Party/FreeRTOS/Source/stream_buffer.c **** 		( void ) xTaskResumeAll();
 108:Middlewares/Third_Party/FreeRTOS/Source/stream_buffer.c **** #endif /* sbSEND_COMPLETED */
 109:Middlewares/Third_Party/FreeRTOS/Source/stream_buffer.c **** 
 110:Middlewares/Third_Party/FreeRTOS/Source/stream_buffer.c **** #ifndef sbSEND_COMPLETE_FROM_ISR
 111:Middlewares/Third_Party/FreeRTOS/Source/stream_buffer.c **** 	#define sbSEND_COMPLETE_FROM_ISR( pxStreamBuffer, pxHigherPriorityTaskWoken )		\
 112:Middlewares/Third_Party/FreeRTOS/Source/stream_buffer.c **** 	{																					\
 113:Middlewares/Third_Party/FreeRTOS/Source/stream_buffer.c **** 	UBaseType_t uxSavedInterruptStatus;													\
 114:Middlewares/Third_Party/FreeRTOS/Source/stream_buffer.c **** 																						\
 115:Middlewares/Third_Party/FreeRTOS/Source/stream_buffer.c **** 		uxSavedInterruptStatus = ( UBaseType_t ) portSET_INTERRUPT_MASK_FROM_ISR();		\
 116:Middlewares/Third_Party/FreeRTOS/Source/stream_buffer.c **** 		{																				\
 117:Middlewares/Third_Party/FreeRTOS/Source/stream_buffer.c **** 			if( ( pxStreamBuffer )->xTaskWaitingToReceive != NULL )						\
 118:Middlewares/Third_Party/FreeRTOS/Source/stream_buffer.c **** 			{																			\
 119:Middlewares/Third_Party/FreeRTOS/Source/stream_buffer.c **** 				( void ) xTaskNotifyFromISR( ( pxStreamBuffer )->xTaskWaitingToReceive,	\
 120:Middlewares/Third_Party/FreeRTOS/Source/stream_buffer.c **** 											 ( uint32_t ) 0,							\
 121:Middlewares/Third_Party/FreeRTOS/Source/stream_buffer.c **** 											 eNoAction,									\
 122:Middlewares/Third_Party/FreeRTOS/Source/stream_buffer.c **** 											 pxHigherPriorityTaskWoken );				\
 123:Middlewares/Third_Party/FreeRTOS/Source/stream_buffer.c **** 				( pxStreamBuffer )->xTaskWaitingToReceive = NULL;						\
 124:Middlewares/Third_Party/FreeRTOS/Source/stream_buffer.c **** 			}																			\
 125:Middlewares/Third_Party/FreeRTOS/Source/stream_buffer.c **** 		}																				\
 126:Middlewares/Third_Party/FreeRTOS/Source/stream_buffer.c **** 		portCLEAR_INTERRUPT_MASK_FROM_ISR( uxSavedInterruptStatus );					\
 127:Middlewares/Third_Party/FreeRTOS/Source/stream_buffer.c **** 	}
 128:Middlewares/Third_Party/FreeRTOS/Source/stream_buffer.c **** #endif /* sbSEND_COMPLETE_FROM_ISR */
 129:Middlewares/Third_Party/FreeRTOS/Source/stream_buffer.c **** /*lint -restore (9026) */
 130:Middlewares/Third_Party/FreeRTOS/Source/stream_buffer.c **** 
 131:Middlewares/Third_Party/FreeRTOS/Source/stream_buffer.c **** /* The number of bytes used to hold the length of a message in the buffer. */
 132:Middlewares/Third_Party/FreeRTOS/Source/stream_buffer.c **** #define sbBYTES_TO_STORE_MESSAGE_LENGTH ( sizeof( size_t ) )
 133:Middlewares/Third_Party/FreeRTOS/Source/stream_buffer.c **** 
 134:Middlewares/Third_Party/FreeRTOS/Source/stream_buffer.c **** /* Bits stored in the ucFlags field of the stream buffer. */
 135:Middlewares/Third_Party/FreeRTOS/Source/stream_buffer.c **** #define sbFLAGS_IS_MESSAGE_BUFFER		( ( uint8_t ) 1 ) /* Set if the stream buffer was created as a m
 136:Middlewares/Third_Party/FreeRTOS/Source/stream_buffer.c **** #define sbFLAGS_IS_STATICALLY_ALLOCATED ( ( uint8_t ) 2 ) /* Set if the stream buffer was created u
 137:Middlewares/Third_Party/FreeRTOS/Source/stream_buffer.c **** 
 138:Middlewares/Third_Party/FreeRTOS/Source/stream_buffer.c **** /*-----------------------------------------------------------*/
 139:Middlewares/Third_Party/FreeRTOS/Source/stream_buffer.c **** 
 140:Middlewares/Third_Party/FreeRTOS/Source/stream_buffer.c **** /* Structure that hold state information on the buffer. */
 141:Middlewares/Third_Party/FreeRTOS/Source/stream_buffer.c **** typedef struct xSTREAM_BUFFER /*lint !e9058 Style convention uses tag. */
 142:Middlewares/Third_Party/FreeRTOS/Source/stream_buffer.c **** {
 143:Middlewares/Third_Party/FreeRTOS/Source/stream_buffer.c **** 	volatile size_t xTail;				/* Index to the next item to read within the buffer. */
 144:Middlewares/Third_Party/FreeRTOS/Source/stream_buffer.c **** 	volatile size_t xHead;				/* Index to the next item to write within the buffer. */
 145:Middlewares/Third_Party/FreeRTOS/Source/stream_buffer.c **** 	size_t xLength;						/* The length of the buffer pointed to by pucBuffer. */
 146:Middlewares/Third_Party/FreeRTOS/Source/stream_buffer.c **** 	size_t xTriggerLevelBytes;			/* The number of bytes that must be in the stream buffer before a tas
 147:Middlewares/Third_Party/FreeRTOS/Source/stream_buffer.c **** 	volatile TaskHandle_t xTaskWaitingToReceive; /* Holds the handle of a task waiting for data, or NU
 148:Middlewares/Third_Party/FreeRTOS/Source/stream_buffer.c **** 	volatile TaskHandle_t xTaskWaitingToSend;	/* Holds the handle of a task waiting to send data to a 
ARM GAS  /tmp/ccvFwc0s.s 			page 4


 149:Middlewares/Third_Party/FreeRTOS/Source/stream_buffer.c **** 	uint8_t *pucBuffer;					/* Points to the buffer itself - that is - the RAM that stores the data pa
 150:Middlewares/Third_Party/FreeRTOS/Source/stream_buffer.c **** 	uint8_t ucFlags;
 151:Middlewares/Third_Party/FreeRTOS/Source/stream_buffer.c **** 
 152:Middlewares/Third_Party/FreeRTOS/Source/stream_buffer.c **** 	#if ( configUSE_TRACE_FACILITY == 1 )
 153:Middlewares/Third_Party/FreeRTOS/Source/stream_buffer.c **** 		UBaseType_t uxStreamBufferNumber;		/* Used for tracing purposes. */
 154:Middlewares/Third_Party/FreeRTOS/Source/stream_buffer.c **** 	#endif
 155:Middlewares/Third_Party/FreeRTOS/Source/stream_buffer.c **** } StreamBuffer_t;
 156:Middlewares/Third_Party/FreeRTOS/Source/stream_buffer.c **** 
 157:Middlewares/Third_Party/FreeRTOS/Source/stream_buffer.c **** /*
 158:Middlewares/Third_Party/FreeRTOS/Source/stream_buffer.c ****  * The number of bytes available to be read from the buffer.
 159:Middlewares/Third_Party/FreeRTOS/Source/stream_buffer.c ****  */
 160:Middlewares/Third_Party/FreeRTOS/Source/stream_buffer.c **** static size_t prvBytesInBuffer( const StreamBuffer_t * const pxStreamBuffer ) PRIVILEGED_FUNCTION;
 161:Middlewares/Third_Party/FreeRTOS/Source/stream_buffer.c **** 
 162:Middlewares/Third_Party/FreeRTOS/Source/stream_buffer.c **** /*
 163:Middlewares/Third_Party/FreeRTOS/Source/stream_buffer.c ****  * Add xCount bytes from pucData into the pxStreamBuffer message buffer.
 164:Middlewares/Third_Party/FreeRTOS/Source/stream_buffer.c ****  * Returns the number of bytes written, which will either equal xCount in the
 165:Middlewares/Third_Party/FreeRTOS/Source/stream_buffer.c ****  * success case, or 0 if there was not enough space in the buffer (in which case
 166:Middlewares/Third_Party/FreeRTOS/Source/stream_buffer.c ****  * no data is written into the buffer).
 167:Middlewares/Third_Party/FreeRTOS/Source/stream_buffer.c ****  */
 168:Middlewares/Third_Party/FreeRTOS/Source/stream_buffer.c **** static size_t prvWriteBytesToBuffer( StreamBuffer_t * const pxStreamBuffer, const uint8_t *pucData,
 169:Middlewares/Third_Party/FreeRTOS/Source/stream_buffer.c **** 
 170:Middlewares/Third_Party/FreeRTOS/Source/stream_buffer.c **** /*
 171:Middlewares/Third_Party/FreeRTOS/Source/stream_buffer.c ****  * If the stream buffer is being used as a message buffer, then reads an entire
 172:Middlewares/Third_Party/FreeRTOS/Source/stream_buffer.c ****  * message out of the buffer.  If the stream buffer is being used as a stream
 173:Middlewares/Third_Party/FreeRTOS/Source/stream_buffer.c ****  * buffer then read as many bytes as possible from the buffer.
 174:Middlewares/Third_Party/FreeRTOS/Source/stream_buffer.c ****  * prvReadBytesFromBuffer() is called to actually extract the bytes from the
 175:Middlewares/Third_Party/FreeRTOS/Source/stream_buffer.c ****  * buffer's data storage area.
 176:Middlewares/Third_Party/FreeRTOS/Source/stream_buffer.c ****  */
 177:Middlewares/Third_Party/FreeRTOS/Source/stream_buffer.c **** static size_t prvReadMessageFromBuffer( StreamBuffer_t *pxStreamBuffer,
 178:Middlewares/Third_Party/FreeRTOS/Source/stream_buffer.c **** 										void *pvRxData,
 179:Middlewares/Third_Party/FreeRTOS/Source/stream_buffer.c **** 										size_t xBufferLengthBytes,
 180:Middlewares/Third_Party/FreeRTOS/Source/stream_buffer.c **** 										size_t xBytesAvailable,
 181:Middlewares/Third_Party/FreeRTOS/Source/stream_buffer.c **** 										size_t xBytesToStoreMessageLength ) PRIVILEGED_FUNCTION;
 182:Middlewares/Third_Party/FreeRTOS/Source/stream_buffer.c **** 
 183:Middlewares/Third_Party/FreeRTOS/Source/stream_buffer.c **** /*
 184:Middlewares/Third_Party/FreeRTOS/Source/stream_buffer.c ****  * If the stream buffer is being used as a message buffer, then writes an entire
 185:Middlewares/Third_Party/FreeRTOS/Source/stream_buffer.c ****  * message to the buffer.  If the stream buffer is being used as a stream
 186:Middlewares/Third_Party/FreeRTOS/Source/stream_buffer.c ****  * buffer then write as many bytes as possible to the buffer.
 187:Middlewares/Third_Party/FreeRTOS/Source/stream_buffer.c ****  * prvWriteBytestoBuffer() is called to actually send the bytes to the buffer's
 188:Middlewares/Third_Party/FreeRTOS/Source/stream_buffer.c ****  * data storage area.
 189:Middlewares/Third_Party/FreeRTOS/Source/stream_buffer.c ****  */
 190:Middlewares/Third_Party/FreeRTOS/Source/stream_buffer.c **** static size_t prvWriteMessageToBuffer(  StreamBuffer_t * const pxStreamBuffer,
 191:Middlewares/Third_Party/FreeRTOS/Source/stream_buffer.c **** 										const void * pvTxData,
 192:Middlewares/Third_Party/FreeRTOS/Source/stream_buffer.c **** 										size_t xDataLengthBytes,
 193:Middlewares/Third_Party/FreeRTOS/Source/stream_buffer.c **** 										size_t xSpace,
 194:Middlewares/Third_Party/FreeRTOS/Source/stream_buffer.c **** 										size_t xRequiredSpace ) PRIVILEGED_FUNCTION;
 195:Middlewares/Third_Party/FreeRTOS/Source/stream_buffer.c **** 
 196:Middlewares/Third_Party/FreeRTOS/Source/stream_buffer.c **** /*
 197:Middlewares/Third_Party/FreeRTOS/Source/stream_buffer.c ****  * Read xMaxCount bytes from the pxStreamBuffer message buffer and write them
 198:Middlewares/Third_Party/FreeRTOS/Source/stream_buffer.c ****  * to pucData.
 199:Middlewares/Third_Party/FreeRTOS/Source/stream_buffer.c ****  */
 200:Middlewares/Third_Party/FreeRTOS/Source/stream_buffer.c **** static size_t prvReadBytesFromBuffer( StreamBuffer_t *pxStreamBuffer,
 201:Middlewares/Third_Party/FreeRTOS/Source/stream_buffer.c **** 									  uint8_t *pucData,
 202:Middlewares/Third_Party/FreeRTOS/Source/stream_buffer.c **** 									  size_t xMaxCount,
 203:Middlewares/Third_Party/FreeRTOS/Source/stream_buffer.c **** 									  size_t xBytesAvailable ); PRIVILEGED_FUNCTION
 204:Middlewares/Third_Party/FreeRTOS/Source/stream_buffer.c **** 
 205:Middlewares/Third_Party/FreeRTOS/Source/stream_buffer.c **** /*
ARM GAS  /tmp/ccvFwc0s.s 			page 5


 206:Middlewares/Third_Party/FreeRTOS/Source/stream_buffer.c ****  * Called by both pxStreamBufferCreate() and pxStreamBufferCreateStatic() to
 207:Middlewares/Third_Party/FreeRTOS/Source/stream_buffer.c ****  * initialise the members of the newly created stream buffer structure.
 208:Middlewares/Third_Party/FreeRTOS/Source/stream_buffer.c ****  */
 209:Middlewares/Third_Party/FreeRTOS/Source/stream_buffer.c **** static void prvInitialiseNewStreamBuffer( StreamBuffer_t * const pxStreamBuffer,
 210:Middlewares/Third_Party/FreeRTOS/Source/stream_buffer.c **** 										  uint8_t * const pucBuffer,
 211:Middlewares/Third_Party/FreeRTOS/Source/stream_buffer.c **** 										  size_t xBufferSizeBytes,
 212:Middlewares/Third_Party/FreeRTOS/Source/stream_buffer.c **** 										  size_t xTriggerLevelBytes,
 213:Middlewares/Third_Party/FreeRTOS/Source/stream_buffer.c **** 										  BaseType_t xIsMessageBuffer ) PRIVILEGED_FUNCTION;
 214:Middlewares/Third_Party/FreeRTOS/Source/stream_buffer.c **** 
 215:Middlewares/Third_Party/FreeRTOS/Source/stream_buffer.c **** /*-----------------------------------------------------------*/
 216:Middlewares/Third_Party/FreeRTOS/Source/stream_buffer.c **** 
 217:Middlewares/Third_Party/FreeRTOS/Source/stream_buffer.c **** #if( configSUPPORT_DYNAMIC_ALLOCATION == 1 )
 218:Middlewares/Third_Party/FreeRTOS/Source/stream_buffer.c **** 
 219:Middlewares/Third_Party/FreeRTOS/Source/stream_buffer.c **** 	StreamBufferHandle_t xStreamBufferGenericCreate( size_t xBufferSizeBytes, size_t xTriggerLevelByte
 220:Middlewares/Third_Party/FreeRTOS/Source/stream_buffer.c **** 	{
 221:Middlewares/Third_Party/FreeRTOS/Source/stream_buffer.c **** 	uint8_t *pucAllocatedMemory;
 222:Middlewares/Third_Party/FreeRTOS/Source/stream_buffer.c **** 
 223:Middlewares/Third_Party/FreeRTOS/Source/stream_buffer.c **** 		/* In case the stream buffer is going to be used as a message buffer
 224:Middlewares/Third_Party/FreeRTOS/Source/stream_buffer.c **** 		(that is, it will hold discrete messages with a little meta data that
 225:Middlewares/Third_Party/FreeRTOS/Source/stream_buffer.c **** 		says how big the next message is) check the buffer will be large enough
 226:Middlewares/Third_Party/FreeRTOS/Source/stream_buffer.c **** 		to hold at least one message. */
 227:Middlewares/Third_Party/FreeRTOS/Source/stream_buffer.c **** 		configASSERT( xBufferSizeBytes > sbBYTES_TO_STORE_MESSAGE_LENGTH );
 228:Middlewares/Third_Party/FreeRTOS/Source/stream_buffer.c **** 		configASSERT( xTriggerLevelBytes <= xBufferSizeBytes );
 229:Middlewares/Third_Party/FreeRTOS/Source/stream_buffer.c **** 
 230:Middlewares/Third_Party/FreeRTOS/Source/stream_buffer.c **** 		/* A trigger level of 0 would cause a waiting task to unblock even when
 231:Middlewares/Third_Party/FreeRTOS/Source/stream_buffer.c **** 		the buffer was empty. */
 232:Middlewares/Third_Party/FreeRTOS/Source/stream_buffer.c **** 		if( xTriggerLevelBytes == ( size_t ) 0 )
 233:Middlewares/Third_Party/FreeRTOS/Source/stream_buffer.c **** 		{
 234:Middlewares/Third_Party/FreeRTOS/Source/stream_buffer.c **** 			xTriggerLevelBytes = ( size_t ) 1; /*lint !e9044 Parameter modified to ensure it doesn't have a 
 235:Middlewares/Third_Party/FreeRTOS/Source/stream_buffer.c **** 		}
 236:Middlewares/Third_Party/FreeRTOS/Source/stream_buffer.c **** 
 237:Middlewares/Third_Party/FreeRTOS/Source/stream_buffer.c **** 		/* A stream buffer requires a StreamBuffer_t structure and a buffer.
 238:Middlewares/Third_Party/FreeRTOS/Source/stream_buffer.c **** 		Both are allocated in a single call to pvPortMalloc().  The
 239:Middlewares/Third_Party/FreeRTOS/Source/stream_buffer.c **** 		StreamBuffer_t structure is placed at the start of the allocated memory
 240:Middlewares/Third_Party/FreeRTOS/Source/stream_buffer.c **** 		and the buffer follows immediately after.  The requested size is
 241:Middlewares/Third_Party/FreeRTOS/Source/stream_buffer.c **** 		incremented so the free space is returned as the user would expect -
 242:Middlewares/Third_Party/FreeRTOS/Source/stream_buffer.c **** 		this is a quirk of the implementation that means otherwise the free
 243:Middlewares/Third_Party/FreeRTOS/Source/stream_buffer.c **** 		space would be reported as one byte smaller than would be logically
 244:Middlewares/Third_Party/FreeRTOS/Source/stream_buffer.c **** 		expected. */
 245:Middlewares/Third_Party/FreeRTOS/Source/stream_buffer.c **** 		xBufferSizeBytes++;
 246:Middlewares/Third_Party/FreeRTOS/Source/stream_buffer.c **** 		pucAllocatedMemory = ( uint8_t * ) pvPortMalloc( xBufferSizeBytes + sizeof( StreamBuffer_t ) ); /
 247:Middlewares/Third_Party/FreeRTOS/Source/stream_buffer.c **** 
 248:Middlewares/Third_Party/FreeRTOS/Source/stream_buffer.c **** 		if( pucAllocatedMemory != NULL )
 249:Middlewares/Third_Party/FreeRTOS/Source/stream_buffer.c **** 		{
 250:Middlewares/Third_Party/FreeRTOS/Source/stream_buffer.c **** 			prvInitialiseNewStreamBuffer( ( StreamBuffer_t * ) pucAllocatedMemory, /* Structure at the start
 251:Middlewares/Third_Party/FreeRTOS/Source/stream_buffer.c **** 										   pucAllocatedMemory + sizeof( StreamBuffer_t ),  /* Storage area follows. */ /*lint !e9
 252:Middlewares/Third_Party/FreeRTOS/Source/stream_buffer.c **** 										   xBufferSizeBytes,
 253:Middlewares/Third_Party/FreeRTOS/Source/stream_buffer.c **** 										   xTriggerLevelBytes,
 254:Middlewares/Third_Party/FreeRTOS/Source/stream_buffer.c **** 										   xIsMessageBuffer );
 255:Middlewares/Third_Party/FreeRTOS/Source/stream_buffer.c **** 
 256:Middlewares/Third_Party/FreeRTOS/Source/stream_buffer.c **** 			traceSTREAM_BUFFER_CREATE( ( ( StreamBuffer_t * ) pucAllocatedMemory ), xIsMessageBuffer );
 257:Middlewares/Third_Party/FreeRTOS/Source/stream_buffer.c **** 		}
 258:Middlewares/Third_Party/FreeRTOS/Source/stream_buffer.c **** 		else
 259:Middlewares/Third_Party/FreeRTOS/Source/stream_buffer.c **** 		{
 260:Middlewares/Third_Party/FreeRTOS/Source/stream_buffer.c **** 			traceSTREAM_BUFFER_CREATE_FAILED( xIsMessageBuffer );
 261:Middlewares/Third_Party/FreeRTOS/Source/stream_buffer.c **** 		}
 262:Middlewares/Third_Party/FreeRTOS/Source/stream_buffer.c **** 
ARM GAS  /tmp/ccvFwc0s.s 			page 6


 263:Middlewares/Third_Party/FreeRTOS/Source/stream_buffer.c **** 		return ( StreamBufferHandle_t * ) pucAllocatedMemory; /*lint !e9087 !e826 Safe cast as allocated 
 264:Middlewares/Third_Party/FreeRTOS/Source/stream_buffer.c **** 	}
 265:Middlewares/Third_Party/FreeRTOS/Source/stream_buffer.c **** 
 266:Middlewares/Third_Party/FreeRTOS/Source/stream_buffer.c **** #endif /* configSUPPORT_DYNAMIC_ALLOCATION */
 267:Middlewares/Third_Party/FreeRTOS/Source/stream_buffer.c **** /*-----------------------------------------------------------*/
 268:Middlewares/Third_Party/FreeRTOS/Source/stream_buffer.c **** 
 269:Middlewares/Third_Party/FreeRTOS/Source/stream_buffer.c **** #if( configSUPPORT_STATIC_ALLOCATION == 1 )
 270:Middlewares/Third_Party/FreeRTOS/Source/stream_buffer.c **** 
 271:Middlewares/Third_Party/FreeRTOS/Source/stream_buffer.c **** 	StreamBufferHandle_t xStreamBufferGenericCreateStatic( size_t xBufferSizeBytes,
 272:Middlewares/Third_Party/FreeRTOS/Source/stream_buffer.c **** 														   size_t xTriggerLevelBytes,
 273:Middlewares/Third_Party/FreeRTOS/Source/stream_buffer.c **** 														   BaseType_t xIsMessageBuffer,
 274:Middlewares/Third_Party/FreeRTOS/Source/stream_buffer.c **** 														   uint8_t * const pucStreamBufferStorageArea,
 275:Middlewares/Third_Party/FreeRTOS/Source/stream_buffer.c **** 														   StaticStreamBuffer_t * const pxStaticStreamBuffer )
 276:Middlewares/Third_Party/FreeRTOS/Source/stream_buffer.c **** 	{
 277:Middlewares/Third_Party/FreeRTOS/Source/stream_buffer.c **** 	StreamBuffer_t * const pxStreamBuffer = ( StreamBuffer_t * ) pxStaticStreamBuffer; /*lint !e740 !e
 278:Middlewares/Third_Party/FreeRTOS/Source/stream_buffer.c **** 	StreamBufferHandle_t xReturn;
 279:Middlewares/Third_Party/FreeRTOS/Source/stream_buffer.c **** 
 280:Middlewares/Third_Party/FreeRTOS/Source/stream_buffer.c **** 		configASSERT( pucStreamBufferStorageArea );
 281:Middlewares/Third_Party/FreeRTOS/Source/stream_buffer.c **** 		configASSERT( pxStaticStreamBuffer );
 282:Middlewares/Third_Party/FreeRTOS/Source/stream_buffer.c **** 		configASSERT( xTriggerLevelBytes <= xBufferSizeBytes );
 283:Middlewares/Third_Party/FreeRTOS/Source/stream_buffer.c **** 
 284:Middlewares/Third_Party/FreeRTOS/Source/stream_buffer.c **** 		/* A trigger level of 0 would cause a waiting task to unblock even when
 285:Middlewares/Third_Party/FreeRTOS/Source/stream_buffer.c **** 		the buffer was empty. */
 286:Middlewares/Third_Party/FreeRTOS/Source/stream_buffer.c **** 		if( xTriggerLevelBytes == ( size_t ) 0 )
 287:Middlewares/Third_Party/FreeRTOS/Source/stream_buffer.c **** 		{
 288:Middlewares/Third_Party/FreeRTOS/Source/stream_buffer.c **** 			xTriggerLevelBytes = ( size_t ) 1; /*lint !e9044 Function parameter deliberately modified to ens
 289:Middlewares/Third_Party/FreeRTOS/Source/stream_buffer.c **** 		}
 290:Middlewares/Third_Party/FreeRTOS/Source/stream_buffer.c **** 
 291:Middlewares/Third_Party/FreeRTOS/Source/stream_buffer.c **** 		/* In case the stream buffer is going to be used as a message buffer
 292:Middlewares/Third_Party/FreeRTOS/Source/stream_buffer.c **** 		(that is, it will hold discrete messages with a little meta data that
 293:Middlewares/Third_Party/FreeRTOS/Source/stream_buffer.c **** 		says how big the next message is) check the buffer will be large enough
 294:Middlewares/Third_Party/FreeRTOS/Source/stream_buffer.c **** 		to hold at least one message. */
 295:Middlewares/Third_Party/FreeRTOS/Source/stream_buffer.c **** 		configASSERT( xBufferSizeBytes > sbBYTES_TO_STORE_MESSAGE_LENGTH );
 296:Middlewares/Third_Party/FreeRTOS/Source/stream_buffer.c **** 
 297:Middlewares/Third_Party/FreeRTOS/Source/stream_buffer.c **** 		#if( configASSERT_DEFINED == 1 )
 298:Middlewares/Third_Party/FreeRTOS/Source/stream_buffer.c **** 		{
 299:Middlewares/Third_Party/FreeRTOS/Source/stream_buffer.c **** 			/* Sanity check that the size of the structure used to declare a
 300:Middlewares/Third_Party/FreeRTOS/Source/stream_buffer.c **** 			variable of type StaticStreamBuffer_t equals the size of the real
 301:Middlewares/Third_Party/FreeRTOS/Source/stream_buffer.c **** 			message buffer structure. */
 302:Middlewares/Third_Party/FreeRTOS/Source/stream_buffer.c **** 			volatile size_t xSize = sizeof( StaticStreamBuffer_t );
 303:Middlewares/Third_Party/FreeRTOS/Source/stream_buffer.c **** 			configASSERT( xSize == sizeof( StreamBuffer_t ) );
 304:Middlewares/Third_Party/FreeRTOS/Source/stream_buffer.c **** 		}
 305:Middlewares/Third_Party/FreeRTOS/Source/stream_buffer.c **** 		#endif /* configASSERT_DEFINED */
 306:Middlewares/Third_Party/FreeRTOS/Source/stream_buffer.c **** 
 307:Middlewares/Third_Party/FreeRTOS/Source/stream_buffer.c **** 		if( ( pucStreamBufferStorageArea != NULL ) && ( pxStaticStreamBuffer != NULL ) )
 308:Middlewares/Third_Party/FreeRTOS/Source/stream_buffer.c **** 		{
 309:Middlewares/Third_Party/FreeRTOS/Source/stream_buffer.c **** 			prvInitialiseNewStreamBuffer( pxStreamBuffer,
 310:Middlewares/Third_Party/FreeRTOS/Source/stream_buffer.c **** 										  pucStreamBufferStorageArea,
 311:Middlewares/Third_Party/FreeRTOS/Source/stream_buffer.c **** 										  xBufferSizeBytes,
 312:Middlewares/Third_Party/FreeRTOS/Source/stream_buffer.c **** 										  xTriggerLevelBytes,
 313:Middlewares/Third_Party/FreeRTOS/Source/stream_buffer.c **** 										  xIsMessageBuffer );
 314:Middlewares/Third_Party/FreeRTOS/Source/stream_buffer.c **** 
 315:Middlewares/Third_Party/FreeRTOS/Source/stream_buffer.c **** 			/* Remember this was statically allocated in case it is ever deleted
 316:Middlewares/Third_Party/FreeRTOS/Source/stream_buffer.c **** 			again. */
 317:Middlewares/Third_Party/FreeRTOS/Source/stream_buffer.c **** 			pxStreamBuffer->ucFlags |= sbFLAGS_IS_STATICALLY_ALLOCATED;
 318:Middlewares/Third_Party/FreeRTOS/Source/stream_buffer.c **** 
 319:Middlewares/Third_Party/FreeRTOS/Source/stream_buffer.c **** 			traceSTREAM_BUFFER_CREATE( pxStreamBuffer, xIsMessageBuffer );
ARM GAS  /tmp/ccvFwc0s.s 			page 7


 320:Middlewares/Third_Party/FreeRTOS/Source/stream_buffer.c **** 
 321:Middlewares/Third_Party/FreeRTOS/Source/stream_buffer.c **** 			xReturn = ( StreamBufferHandle_t ) pxStaticStreamBuffer; /*lint !e9087 Data hiding requires cast
 322:Middlewares/Third_Party/FreeRTOS/Source/stream_buffer.c **** 		}
 323:Middlewares/Third_Party/FreeRTOS/Source/stream_buffer.c **** 		else
 324:Middlewares/Third_Party/FreeRTOS/Source/stream_buffer.c **** 		{
 325:Middlewares/Third_Party/FreeRTOS/Source/stream_buffer.c **** 			xReturn = NULL;
 326:Middlewares/Third_Party/FreeRTOS/Source/stream_buffer.c **** 			traceSTREAM_BUFFER_CREATE_STATIC_FAILED( xReturn, xIsMessageBuffer );
 327:Middlewares/Third_Party/FreeRTOS/Source/stream_buffer.c **** 		}
 328:Middlewares/Third_Party/FreeRTOS/Source/stream_buffer.c **** 
 329:Middlewares/Third_Party/FreeRTOS/Source/stream_buffer.c **** 		return xReturn;
 330:Middlewares/Third_Party/FreeRTOS/Source/stream_buffer.c **** 	}
 331:Middlewares/Third_Party/FreeRTOS/Source/stream_buffer.c **** 
 332:Middlewares/Third_Party/FreeRTOS/Source/stream_buffer.c **** #endif /* ( configSUPPORT_STATIC_ALLOCATION == 1 ) */
 333:Middlewares/Third_Party/FreeRTOS/Source/stream_buffer.c **** /*-----------------------------------------------------------*/
 334:Middlewares/Third_Party/FreeRTOS/Source/stream_buffer.c **** 
 335:Middlewares/Third_Party/FreeRTOS/Source/stream_buffer.c **** void vStreamBufferDelete( StreamBufferHandle_t xStreamBuffer )
 336:Middlewares/Third_Party/FreeRTOS/Source/stream_buffer.c **** {
 337:Middlewares/Third_Party/FreeRTOS/Source/stream_buffer.c **** StreamBuffer_t * pxStreamBuffer = ( StreamBuffer_t * ) xStreamBuffer; /*lint !e9087 !e9079 Safe cas
 338:Middlewares/Third_Party/FreeRTOS/Source/stream_buffer.c **** 
 339:Middlewares/Third_Party/FreeRTOS/Source/stream_buffer.c **** 	configASSERT( pxStreamBuffer );
 340:Middlewares/Third_Party/FreeRTOS/Source/stream_buffer.c **** 
 341:Middlewares/Third_Party/FreeRTOS/Source/stream_buffer.c **** 	traceSTREAM_BUFFER_DELETE( xStreamBuffer );
 342:Middlewares/Third_Party/FreeRTOS/Source/stream_buffer.c **** 
 343:Middlewares/Third_Party/FreeRTOS/Source/stream_buffer.c **** 	if( ( pxStreamBuffer->ucFlags & sbFLAGS_IS_STATICALLY_ALLOCATED ) == ( uint8_t ) pdFALSE )
 344:Middlewares/Third_Party/FreeRTOS/Source/stream_buffer.c **** 	{
 345:Middlewares/Third_Party/FreeRTOS/Source/stream_buffer.c **** 		#if( configSUPPORT_DYNAMIC_ALLOCATION == 1 )
 346:Middlewares/Third_Party/FreeRTOS/Source/stream_buffer.c **** 		{
 347:Middlewares/Third_Party/FreeRTOS/Source/stream_buffer.c **** 			/* Both the structure and the buffer were allocated using a single call
 348:Middlewares/Third_Party/FreeRTOS/Source/stream_buffer.c **** 			to pvPortMalloc(), hence only one call to vPortFree() is required. */
 349:Middlewares/Third_Party/FreeRTOS/Source/stream_buffer.c **** 			vPortFree( ( void * ) pxStreamBuffer ); /*lint !e9087 Standard free() semantics require void *, 
 350:Middlewares/Third_Party/FreeRTOS/Source/stream_buffer.c **** 		}
 351:Middlewares/Third_Party/FreeRTOS/Source/stream_buffer.c **** 		#else
 352:Middlewares/Third_Party/FreeRTOS/Source/stream_buffer.c **** 		{
 353:Middlewares/Third_Party/FreeRTOS/Source/stream_buffer.c **** 			/* Should not be possible to get here, ucFlags must be corrupt.
 354:Middlewares/Third_Party/FreeRTOS/Source/stream_buffer.c **** 			Force an assert. */
 355:Middlewares/Third_Party/FreeRTOS/Source/stream_buffer.c **** 			configASSERT( xStreamBuffer == ( StreamBufferHandle_t ) ~0 );
 356:Middlewares/Third_Party/FreeRTOS/Source/stream_buffer.c **** 		}
 357:Middlewares/Third_Party/FreeRTOS/Source/stream_buffer.c **** 		#endif
 358:Middlewares/Third_Party/FreeRTOS/Source/stream_buffer.c **** 	}
 359:Middlewares/Third_Party/FreeRTOS/Source/stream_buffer.c **** 	else
 360:Middlewares/Third_Party/FreeRTOS/Source/stream_buffer.c **** 	{
 361:Middlewares/Third_Party/FreeRTOS/Source/stream_buffer.c **** 		/* The structure and buffer were not allocated dynamically and cannot be
 362:Middlewares/Third_Party/FreeRTOS/Source/stream_buffer.c **** 		freed - just scrub the structure so future use will assert. */
 363:Middlewares/Third_Party/FreeRTOS/Source/stream_buffer.c **** 		memset( pxStreamBuffer, 0x00, sizeof( StreamBuffer_t ) );
 364:Middlewares/Third_Party/FreeRTOS/Source/stream_buffer.c **** 	}
 365:Middlewares/Third_Party/FreeRTOS/Source/stream_buffer.c **** }
 366:Middlewares/Third_Party/FreeRTOS/Source/stream_buffer.c **** /*-----------------------------------------------------------*/
 367:Middlewares/Third_Party/FreeRTOS/Source/stream_buffer.c **** 
 368:Middlewares/Third_Party/FreeRTOS/Source/stream_buffer.c **** BaseType_t xStreamBufferReset( StreamBufferHandle_t xStreamBuffer )
 369:Middlewares/Third_Party/FreeRTOS/Source/stream_buffer.c **** {
 370:Middlewares/Third_Party/FreeRTOS/Source/stream_buffer.c **** StreamBuffer_t * const pxStreamBuffer = ( StreamBuffer_t * ) xStreamBuffer; /*lint !e9087 !e9079 Sa
 371:Middlewares/Third_Party/FreeRTOS/Source/stream_buffer.c **** BaseType_t xReturn = pdFAIL, xIsMessageBuffer;
 372:Middlewares/Third_Party/FreeRTOS/Source/stream_buffer.c **** 
 373:Middlewares/Third_Party/FreeRTOS/Source/stream_buffer.c **** #if( configUSE_TRACE_FACILITY == 1 )
 374:Middlewares/Third_Party/FreeRTOS/Source/stream_buffer.c **** 	UBaseType_t uxStreamBufferNumber;
 375:Middlewares/Third_Party/FreeRTOS/Source/stream_buffer.c **** #endif
 376:Middlewares/Third_Party/FreeRTOS/Source/stream_buffer.c **** 
ARM GAS  /tmp/ccvFwc0s.s 			page 8


 377:Middlewares/Third_Party/FreeRTOS/Source/stream_buffer.c **** 	configASSERT( pxStreamBuffer );
 378:Middlewares/Third_Party/FreeRTOS/Source/stream_buffer.c **** 
 379:Middlewares/Third_Party/FreeRTOS/Source/stream_buffer.c **** 	#if( configUSE_TRACE_FACILITY == 1 )
 380:Middlewares/Third_Party/FreeRTOS/Source/stream_buffer.c **** 	{
 381:Middlewares/Third_Party/FreeRTOS/Source/stream_buffer.c **** 		/* Store the stream buffer number so it can be restored after the
 382:Middlewares/Third_Party/FreeRTOS/Source/stream_buffer.c **** 		reset. */
 383:Middlewares/Third_Party/FreeRTOS/Source/stream_buffer.c **** 		uxStreamBufferNumber = pxStreamBuffer->uxStreamBufferNumber;
 384:Middlewares/Third_Party/FreeRTOS/Source/stream_buffer.c **** 	}
 385:Middlewares/Third_Party/FreeRTOS/Source/stream_buffer.c **** 	#endif
 386:Middlewares/Third_Party/FreeRTOS/Source/stream_buffer.c **** 
 387:Middlewares/Third_Party/FreeRTOS/Source/stream_buffer.c **** 	/* Can only reset a message buffer if there are no tasks blocked on it. */
 388:Middlewares/Third_Party/FreeRTOS/Source/stream_buffer.c **** 	if( pxStreamBuffer->xTaskWaitingToReceive == NULL )
 389:Middlewares/Third_Party/FreeRTOS/Source/stream_buffer.c **** 	{
 390:Middlewares/Third_Party/FreeRTOS/Source/stream_buffer.c **** 		if( pxStreamBuffer->xTaskWaitingToSend == NULL )
 391:Middlewares/Third_Party/FreeRTOS/Source/stream_buffer.c **** 		{
 392:Middlewares/Third_Party/FreeRTOS/Source/stream_buffer.c **** 			if( ( pxStreamBuffer->ucFlags & sbFLAGS_IS_MESSAGE_BUFFER ) != ( uint8_t ) 0 )
 393:Middlewares/Third_Party/FreeRTOS/Source/stream_buffer.c **** 			{
 394:Middlewares/Third_Party/FreeRTOS/Source/stream_buffer.c **** 				xIsMessageBuffer = pdTRUE;
 395:Middlewares/Third_Party/FreeRTOS/Source/stream_buffer.c **** 			}
 396:Middlewares/Third_Party/FreeRTOS/Source/stream_buffer.c **** 			else
 397:Middlewares/Third_Party/FreeRTOS/Source/stream_buffer.c **** 			{
 398:Middlewares/Third_Party/FreeRTOS/Source/stream_buffer.c **** 				xIsMessageBuffer = pdFALSE;
 399:Middlewares/Third_Party/FreeRTOS/Source/stream_buffer.c **** 			}
 400:Middlewares/Third_Party/FreeRTOS/Source/stream_buffer.c **** 
 401:Middlewares/Third_Party/FreeRTOS/Source/stream_buffer.c **** 			prvInitialiseNewStreamBuffer( pxStreamBuffer,
 402:Middlewares/Third_Party/FreeRTOS/Source/stream_buffer.c **** 										  pxStreamBuffer->pucBuffer,
 403:Middlewares/Third_Party/FreeRTOS/Source/stream_buffer.c **** 										  pxStreamBuffer->xLength,
 404:Middlewares/Third_Party/FreeRTOS/Source/stream_buffer.c **** 										  pxStreamBuffer->xTriggerLevelBytes,
 405:Middlewares/Third_Party/FreeRTOS/Source/stream_buffer.c **** 										  xIsMessageBuffer );
 406:Middlewares/Third_Party/FreeRTOS/Source/stream_buffer.c **** 			xReturn = pdPASS;
 407:Middlewares/Third_Party/FreeRTOS/Source/stream_buffer.c **** 
 408:Middlewares/Third_Party/FreeRTOS/Source/stream_buffer.c **** 			#if( configUSE_TRACE_FACILITY == 1 )
 409:Middlewares/Third_Party/FreeRTOS/Source/stream_buffer.c **** 			{
 410:Middlewares/Third_Party/FreeRTOS/Source/stream_buffer.c **** 				pxStreamBuffer->uxStreamBufferNumber = uxStreamBufferNumber;
 411:Middlewares/Third_Party/FreeRTOS/Source/stream_buffer.c **** 			}
 412:Middlewares/Third_Party/FreeRTOS/Source/stream_buffer.c **** 			#endif
 413:Middlewares/Third_Party/FreeRTOS/Source/stream_buffer.c **** 
 414:Middlewares/Third_Party/FreeRTOS/Source/stream_buffer.c **** 			traceSTREAM_BUFFER_RESET( xStreamBuffer );
 415:Middlewares/Third_Party/FreeRTOS/Source/stream_buffer.c **** 		}
 416:Middlewares/Third_Party/FreeRTOS/Source/stream_buffer.c **** 	}
 417:Middlewares/Third_Party/FreeRTOS/Source/stream_buffer.c **** 
 418:Middlewares/Third_Party/FreeRTOS/Source/stream_buffer.c **** 	return xReturn;
 419:Middlewares/Third_Party/FreeRTOS/Source/stream_buffer.c **** }
 420:Middlewares/Third_Party/FreeRTOS/Source/stream_buffer.c **** /*-----------------------------------------------------------*/
 421:Middlewares/Third_Party/FreeRTOS/Source/stream_buffer.c **** 
 422:Middlewares/Third_Party/FreeRTOS/Source/stream_buffer.c **** BaseType_t xStreamBufferSetTriggerLevel( StreamBufferHandle_t xStreamBuffer, size_t xTriggerLevel )
 423:Middlewares/Third_Party/FreeRTOS/Source/stream_buffer.c **** {
 424:Middlewares/Third_Party/FreeRTOS/Source/stream_buffer.c **** StreamBuffer_t * const pxStreamBuffer = ( StreamBuffer_t * ) xStreamBuffer; /*lint !e9087 !e9079 Sa
 425:Middlewares/Third_Party/FreeRTOS/Source/stream_buffer.c **** BaseType_t xReturn;
 426:Middlewares/Third_Party/FreeRTOS/Source/stream_buffer.c **** 
 427:Middlewares/Third_Party/FreeRTOS/Source/stream_buffer.c **** 	configASSERT( pxStreamBuffer );
 428:Middlewares/Third_Party/FreeRTOS/Source/stream_buffer.c **** 
 429:Middlewares/Third_Party/FreeRTOS/Source/stream_buffer.c **** 	/* It is not valid for the trigger level to be 0. */
 430:Middlewares/Third_Party/FreeRTOS/Source/stream_buffer.c **** 	if( xTriggerLevel == ( size_t ) 0 )
 431:Middlewares/Third_Party/FreeRTOS/Source/stream_buffer.c **** 	{
 432:Middlewares/Third_Party/FreeRTOS/Source/stream_buffer.c **** 		xTriggerLevel = ( size_t ) 1; /*lint !e9044 Parameter modified to ensure it doesn't have a danger
 433:Middlewares/Third_Party/FreeRTOS/Source/stream_buffer.c **** 	}
ARM GAS  /tmp/ccvFwc0s.s 			page 9


 434:Middlewares/Third_Party/FreeRTOS/Source/stream_buffer.c **** 
 435:Middlewares/Third_Party/FreeRTOS/Source/stream_buffer.c **** 	/* The trigger level is the number of bytes that must be in the stream
 436:Middlewares/Third_Party/FreeRTOS/Source/stream_buffer.c **** 	buffer before a task that is waiting for data is unblocked. */
 437:Middlewares/Third_Party/FreeRTOS/Source/stream_buffer.c **** 	if( xTriggerLevel <= pxStreamBuffer->xLength )
 438:Middlewares/Third_Party/FreeRTOS/Source/stream_buffer.c **** 	{
 439:Middlewares/Third_Party/FreeRTOS/Source/stream_buffer.c **** 		pxStreamBuffer->xTriggerLevelBytes = xTriggerLevel;
 440:Middlewares/Third_Party/FreeRTOS/Source/stream_buffer.c **** 		xReturn = pdPASS;
 441:Middlewares/Third_Party/FreeRTOS/Source/stream_buffer.c **** 	}
 442:Middlewares/Third_Party/FreeRTOS/Source/stream_buffer.c **** 	else
 443:Middlewares/Third_Party/FreeRTOS/Source/stream_buffer.c **** 	{
 444:Middlewares/Third_Party/FreeRTOS/Source/stream_buffer.c **** 		xReturn = pdFALSE;
 445:Middlewares/Third_Party/FreeRTOS/Source/stream_buffer.c **** 	}
 446:Middlewares/Third_Party/FreeRTOS/Source/stream_buffer.c **** 
 447:Middlewares/Third_Party/FreeRTOS/Source/stream_buffer.c **** 	return xReturn;
 448:Middlewares/Third_Party/FreeRTOS/Source/stream_buffer.c **** }
 449:Middlewares/Third_Party/FreeRTOS/Source/stream_buffer.c **** /*-----------------------------------------------------------*/
 450:Middlewares/Third_Party/FreeRTOS/Source/stream_buffer.c **** 
 451:Middlewares/Third_Party/FreeRTOS/Source/stream_buffer.c **** size_t xStreamBufferSpacesAvailable( StreamBufferHandle_t xStreamBuffer )
 452:Middlewares/Third_Party/FreeRTOS/Source/stream_buffer.c **** {
 453:Middlewares/Third_Party/FreeRTOS/Source/stream_buffer.c **** const StreamBuffer_t * const pxStreamBuffer = ( StreamBuffer_t * ) xStreamBuffer; /*lint !e9087 !e9
 454:Middlewares/Third_Party/FreeRTOS/Source/stream_buffer.c **** size_t xSpace;
 455:Middlewares/Third_Party/FreeRTOS/Source/stream_buffer.c **** 
 456:Middlewares/Third_Party/FreeRTOS/Source/stream_buffer.c **** 	configASSERT( pxStreamBuffer );
 457:Middlewares/Third_Party/FreeRTOS/Source/stream_buffer.c **** 
 458:Middlewares/Third_Party/FreeRTOS/Source/stream_buffer.c **** 	xSpace = pxStreamBuffer->xLength + pxStreamBuffer->xTail;
 459:Middlewares/Third_Party/FreeRTOS/Source/stream_buffer.c **** 	xSpace -= pxStreamBuffer->xHead;
 460:Middlewares/Third_Party/FreeRTOS/Source/stream_buffer.c **** 	xSpace -= ( size_t ) 1;
 461:Middlewares/Third_Party/FreeRTOS/Source/stream_buffer.c **** 
 462:Middlewares/Third_Party/FreeRTOS/Source/stream_buffer.c **** 	if( xSpace >= pxStreamBuffer->xLength )
 463:Middlewares/Third_Party/FreeRTOS/Source/stream_buffer.c **** 	{
 464:Middlewares/Third_Party/FreeRTOS/Source/stream_buffer.c **** 		xSpace -= pxStreamBuffer->xLength;
 465:Middlewares/Third_Party/FreeRTOS/Source/stream_buffer.c **** 	}
 466:Middlewares/Third_Party/FreeRTOS/Source/stream_buffer.c **** 	else
 467:Middlewares/Third_Party/FreeRTOS/Source/stream_buffer.c **** 	{
 468:Middlewares/Third_Party/FreeRTOS/Source/stream_buffer.c **** 		mtCOVERAGE_TEST_MARKER();
 469:Middlewares/Third_Party/FreeRTOS/Source/stream_buffer.c **** 	}
 470:Middlewares/Third_Party/FreeRTOS/Source/stream_buffer.c **** 
 471:Middlewares/Third_Party/FreeRTOS/Source/stream_buffer.c **** 	return xSpace;
 472:Middlewares/Third_Party/FreeRTOS/Source/stream_buffer.c **** }
 473:Middlewares/Third_Party/FreeRTOS/Source/stream_buffer.c **** /*-----------------------------------------------------------*/
 474:Middlewares/Third_Party/FreeRTOS/Source/stream_buffer.c **** 
 475:Middlewares/Third_Party/FreeRTOS/Source/stream_buffer.c **** size_t xStreamBufferBytesAvailable( StreamBufferHandle_t xStreamBuffer )
 476:Middlewares/Third_Party/FreeRTOS/Source/stream_buffer.c **** {
 477:Middlewares/Third_Party/FreeRTOS/Source/stream_buffer.c **** const StreamBuffer_t * const pxStreamBuffer = ( StreamBuffer_t * ) xStreamBuffer; /*lint !e9087 !e9
 478:Middlewares/Third_Party/FreeRTOS/Source/stream_buffer.c **** size_t xReturn;
 479:Middlewares/Third_Party/FreeRTOS/Source/stream_buffer.c **** 
 480:Middlewares/Third_Party/FreeRTOS/Source/stream_buffer.c **** 	configASSERT( pxStreamBuffer );
 481:Middlewares/Third_Party/FreeRTOS/Source/stream_buffer.c **** 
 482:Middlewares/Third_Party/FreeRTOS/Source/stream_buffer.c **** 	xReturn = prvBytesInBuffer( pxStreamBuffer );
 483:Middlewares/Third_Party/FreeRTOS/Source/stream_buffer.c **** 	return xReturn;
 484:Middlewares/Third_Party/FreeRTOS/Source/stream_buffer.c **** }
 485:Middlewares/Third_Party/FreeRTOS/Source/stream_buffer.c **** /*-----------------------------------------------------------*/
 486:Middlewares/Third_Party/FreeRTOS/Source/stream_buffer.c **** 
 487:Middlewares/Third_Party/FreeRTOS/Source/stream_buffer.c **** size_t xStreamBufferSend( StreamBufferHandle_t xStreamBuffer,
 488:Middlewares/Third_Party/FreeRTOS/Source/stream_buffer.c **** 						  const void *pvTxData,
 489:Middlewares/Third_Party/FreeRTOS/Source/stream_buffer.c **** 						  size_t xDataLengthBytes,
 490:Middlewares/Third_Party/FreeRTOS/Source/stream_buffer.c **** 						  TickType_t xTicksToWait )
ARM GAS  /tmp/ccvFwc0s.s 			page 10


 491:Middlewares/Third_Party/FreeRTOS/Source/stream_buffer.c **** {
 492:Middlewares/Third_Party/FreeRTOS/Source/stream_buffer.c **** StreamBuffer_t * const pxStreamBuffer = ( StreamBuffer_t * ) xStreamBuffer; /*lint !e9087 !e9079 Sa
 493:Middlewares/Third_Party/FreeRTOS/Source/stream_buffer.c **** size_t xReturn, xSpace = 0;
 494:Middlewares/Third_Party/FreeRTOS/Source/stream_buffer.c **** size_t xRequiredSpace = xDataLengthBytes;
 495:Middlewares/Third_Party/FreeRTOS/Source/stream_buffer.c **** TimeOut_t xTimeOut;
 496:Middlewares/Third_Party/FreeRTOS/Source/stream_buffer.c **** 
 497:Middlewares/Third_Party/FreeRTOS/Source/stream_buffer.c **** 	configASSERT( pvTxData );
 498:Middlewares/Third_Party/FreeRTOS/Source/stream_buffer.c **** 	configASSERT( pxStreamBuffer );
 499:Middlewares/Third_Party/FreeRTOS/Source/stream_buffer.c **** 
 500:Middlewares/Third_Party/FreeRTOS/Source/stream_buffer.c **** 	/* This send function is used to write to both message buffers and stream
 501:Middlewares/Third_Party/FreeRTOS/Source/stream_buffer.c **** 	buffers.  If this is a message buffer then the space needed must be
 502:Middlewares/Third_Party/FreeRTOS/Source/stream_buffer.c **** 	increased by the amount of bytes needed to store the length of the
 503:Middlewares/Third_Party/FreeRTOS/Source/stream_buffer.c **** 	message. */
 504:Middlewares/Third_Party/FreeRTOS/Source/stream_buffer.c **** 	if( ( pxStreamBuffer->ucFlags & sbFLAGS_IS_MESSAGE_BUFFER ) != ( uint8_t ) 0 )
 505:Middlewares/Third_Party/FreeRTOS/Source/stream_buffer.c **** 	{
 506:Middlewares/Third_Party/FreeRTOS/Source/stream_buffer.c **** 		xRequiredSpace += sbBYTES_TO_STORE_MESSAGE_LENGTH;
 507:Middlewares/Third_Party/FreeRTOS/Source/stream_buffer.c **** 	}
 508:Middlewares/Third_Party/FreeRTOS/Source/stream_buffer.c **** 	else
 509:Middlewares/Third_Party/FreeRTOS/Source/stream_buffer.c **** 	{
 510:Middlewares/Third_Party/FreeRTOS/Source/stream_buffer.c **** 		mtCOVERAGE_TEST_MARKER();
 511:Middlewares/Third_Party/FreeRTOS/Source/stream_buffer.c **** 	}
 512:Middlewares/Third_Party/FreeRTOS/Source/stream_buffer.c **** 
 513:Middlewares/Third_Party/FreeRTOS/Source/stream_buffer.c **** 	if( xTicksToWait != ( TickType_t ) 0 )
 514:Middlewares/Third_Party/FreeRTOS/Source/stream_buffer.c **** 	{
 515:Middlewares/Third_Party/FreeRTOS/Source/stream_buffer.c **** 		vTaskSetTimeOutState( &xTimeOut );
 516:Middlewares/Third_Party/FreeRTOS/Source/stream_buffer.c **** 
 517:Middlewares/Third_Party/FreeRTOS/Source/stream_buffer.c **** 		do
 518:Middlewares/Third_Party/FreeRTOS/Source/stream_buffer.c **** 		{
 519:Middlewares/Third_Party/FreeRTOS/Source/stream_buffer.c **** 			/* Wait until the required number of bytes are free in the message
 520:Middlewares/Third_Party/FreeRTOS/Source/stream_buffer.c **** 			buffer. */
 521:Middlewares/Third_Party/FreeRTOS/Source/stream_buffer.c **** 			taskENTER_CRITICAL();
 522:Middlewares/Third_Party/FreeRTOS/Source/stream_buffer.c **** 			{
 523:Middlewares/Third_Party/FreeRTOS/Source/stream_buffer.c **** 				xSpace = xStreamBufferSpacesAvailable( pxStreamBuffer );
 524:Middlewares/Third_Party/FreeRTOS/Source/stream_buffer.c **** 
 525:Middlewares/Third_Party/FreeRTOS/Source/stream_buffer.c **** 				if( xSpace < xRequiredSpace )
 526:Middlewares/Third_Party/FreeRTOS/Source/stream_buffer.c **** 				{
 527:Middlewares/Third_Party/FreeRTOS/Source/stream_buffer.c **** 					/* Clear notification state as going to wait for space. */
 528:Middlewares/Third_Party/FreeRTOS/Source/stream_buffer.c **** 					( void ) xTaskNotifyStateClear( NULL );
 529:Middlewares/Third_Party/FreeRTOS/Source/stream_buffer.c **** 
 530:Middlewares/Third_Party/FreeRTOS/Source/stream_buffer.c **** 					/* Should only be one writer. */
 531:Middlewares/Third_Party/FreeRTOS/Source/stream_buffer.c **** 					configASSERT( pxStreamBuffer->xTaskWaitingToSend == NULL );
 532:Middlewares/Third_Party/FreeRTOS/Source/stream_buffer.c **** 					pxStreamBuffer->xTaskWaitingToSend = xTaskGetCurrentTaskHandle();
 533:Middlewares/Third_Party/FreeRTOS/Source/stream_buffer.c **** 				}
 534:Middlewares/Third_Party/FreeRTOS/Source/stream_buffer.c **** 				else
 535:Middlewares/Third_Party/FreeRTOS/Source/stream_buffer.c **** 				{
 536:Middlewares/Third_Party/FreeRTOS/Source/stream_buffer.c **** 					taskEXIT_CRITICAL();
 537:Middlewares/Third_Party/FreeRTOS/Source/stream_buffer.c **** 					break;
 538:Middlewares/Third_Party/FreeRTOS/Source/stream_buffer.c **** 				}
 539:Middlewares/Third_Party/FreeRTOS/Source/stream_buffer.c **** 			}
 540:Middlewares/Third_Party/FreeRTOS/Source/stream_buffer.c **** 			taskEXIT_CRITICAL();
 541:Middlewares/Third_Party/FreeRTOS/Source/stream_buffer.c **** 
 542:Middlewares/Third_Party/FreeRTOS/Source/stream_buffer.c **** 			traceBLOCKING_ON_STREAM_BUFFER_SEND( xStreamBuffer );
 543:Middlewares/Third_Party/FreeRTOS/Source/stream_buffer.c **** 			( void ) xTaskNotifyWait( ( uint32_t ) 0, UINT32_MAX, NULL, xTicksToWait );
 544:Middlewares/Third_Party/FreeRTOS/Source/stream_buffer.c **** 			pxStreamBuffer->xTaskWaitingToSend = NULL;
 545:Middlewares/Third_Party/FreeRTOS/Source/stream_buffer.c **** 
 546:Middlewares/Third_Party/FreeRTOS/Source/stream_buffer.c **** 		} while( xTaskCheckForTimeOut( &xTimeOut, &xTicksToWait ) == pdFALSE );
 547:Middlewares/Third_Party/FreeRTOS/Source/stream_buffer.c **** 	}
ARM GAS  /tmp/ccvFwc0s.s 			page 11


 548:Middlewares/Third_Party/FreeRTOS/Source/stream_buffer.c **** 	else
 549:Middlewares/Third_Party/FreeRTOS/Source/stream_buffer.c **** 	{
 550:Middlewares/Third_Party/FreeRTOS/Source/stream_buffer.c **** 		mtCOVERAGE_TEST_MARKER();
 551:Middlewares/Third_Party/FreeRTOS/Source/stream_buffer.c **** 	}
 552:Middlewares/Third_Party/FreeRTOS/Source/stream_buffer.c **** 
 553:Middlewares/Third_Party/FreeRTOS/Source/stream_buffer.c **** 	if( xSpace == ( size_t ) 0 )
 554:Middlewares/Third_Party/FreeRTOS/Source/stream_buffer.c **** 	{
 555:Middlewares/Third_Party/FreeRTOS/Source/stream_buffer.c **** 		xSpace = xStreamBufferSpacesAvailable( pxStreamBuffer );
 556:Middlewares/Third_Party/FreeRTOS/Source/stream_buffer.c **** 	}
 557:Middlewares/Third_Party/FreeRTOS/Source/stream_buffer.c **** 	else
 558:Middlewares/Third_Party/FreeRTOS/Source/stream_buffer.c **** 	{
 559:Middlewares/Third_Party/FreeRTOS/Source/stream_buffer.c **** 		mtCOVERAGE_TEST_MARKER();
 560:Middlewares/Third_Party/FreeRTOS/Source/stream_buffer.c **** 	}
 561:Middlewares/Third_Party/FreeRTOS/Source/stream_buffer.c **** 
 562:Middlewares/Third_Party/FreeRTOS/Source/stream_buffer.c **** 	xReturn = prvWriteMessageToBuffer( pxStreamBuffer, pvTxData, xDataLengthBytes, xSpace, xRequiredSp
 563:Middlewares/Third_Party/FreeRTOS/Source/stream_buffer.c **** 
 564:Middlewares/Third_Party/FreeRTOS/Source/stream_buffer.c **** 	if( xReturn > ( size_t ) 0 )
 565:Middlewares/Third_Party/FreeRTOS/Source/stream_buffer.c **** 	{
 566:Middlewares/Third_Party/FreeRTOS/Source/stream_buffer.c **** 		traceSTREAM_BUFFER_SEND( xStreamBuffer, xReturn );
 567:Middlewares/Third_Party/FreeRTOS/Source/stream_buffer.c **** 
 568:Middlewares/Third_Party/FreeRTOS/Source/stream_buffer.c **** 		/* Was a task waiting for the data? */
 569:Middlewares/Third_Party/FreeRTOS/Source/stream_buffer.c **** 		if( prvBytesInBuffer( pxStreamBuffer ) >= pxStreamBuffer->xTriggerLevelBytes )
 570:Middlewares/Third_Party/FreeRTOS/Source/stream_buffer.c **** 		{
 571:Middlewares/Third_Party/FreeRTOS/Source/stream_buffer.c **** 			sbSEND_COMPLETED( pxStreamBuffer );
 572:Middlewares/Third_Party/FreeRTOS/Source/stream_buffer.c **** 		}
 573:Middlewares/Third_Party/FreeRTOS/Source/stream_buffer.c **** 		else
 574:Middlewares/Third_Party/FreeRTOS/Source/stream_buffer.c **** 		{
 575:Middlewares/Third_Party/FreeRTOS/Source/stream_buffer.c **** 			mtCOVERAGE_TEST_MARKER();
 576:Middlewares/Third_Party/FreeRTOS/Source/stream_buffer.c **** 		}
 577:Middlewares/Third_Party/FreeRTOS/Source/stream_buffer.c **** 	}
 578:Middlewares/Third_Party/FreeRTOS/Source/stream_buffer.c **** 	else
 579:Middlewares/Third_Party/FreeRTOS/Source/stream_buffer.c **** 	{
 580:Middlewares/Third_Party/FreeRTOS/Source/stream_buffer.c **** 		mtCOVERAGE_TEST_MARKER();
 581:Middlewares/Third_Party/FreeRTOS/Source/stream_buffer.c **** 		traceSTREAM_BUFFER_SEND_FAILED( xStreamBuffer );
 582:Middlewares/Third_Party/FreeRTOS/Source/stream_buffer.c **** 	}
 583:Middlewares/Third_Party/FreeRTOS/Source/stream_buffer.c **** 
 584:Middlewares/Third_Party/FreeRTOS/Source/stream_buffer.c **** 	return xReturn;
 585:Middlewares/Third_Party/FreeRTOS/Source/stream_buffer.c **** }
 586:Middlewares/Third_Party/FreeRTOS/Source/stream_buffer.c **** /*-----------------------------------------------------------*/
 587:Middlewares/Third_Party/FreeRTOS/Source/stream_buffer.c **** 
 588:Middlewares/Third_Party/FreeRTOS/Source/stream_buffer.c **** size_t xStreamBufferSendFromISR( StreamBufferHandle_t xStreamBuffer,
 589:Middlewares/Third_Party/FreeRTOS/Source/stream_buffer.c **** 								 const void *pvTxData,
 590:Middlewares/Third_Party/FreeRTOS/Source/stream_buffer.c **** 								 size_t xDataLengthBytes,
 591:Middlewares/Third_Party/FreeRTOS/Source/stream_buffer.c **** 								 BaseType_t * const pxHigherPriorityTaskWoken )
 592:Middlewares/Third_Party/FreeRTOS/Source/stream_buffer.c **** {
 593:Middlewares/Third_Party/FreeRTOS/Source/stream_buffer.c **** StreamBuffer_t * const pxStreamBuffer = ( StreamBuffer_t * ) xStreamBuffer; /*lint !e9087 !e9079 Sa
 594:Middlewares/Third_Party/FreeRTOS/Source/stream_buffer.c **** size_t xReturn, xSpace;
 595:Middlewares/Third_Party/FreeRTOS/Source/stream_buffer.c **** size_t xRequiredSpace = xDataLengthBytes;
 596:Middlewares/Third_Party/FreeRTOS/Source/stream_buffer.c **** 
 597:Middlewares/Third_Party/FreeRTOS/Source/stream_buffer.c **** 	configASSERT( pvTxData );
 598:Middlewares/Third_Party/FreeRTOS/Source/stream_buffer.c **** 	configASSERT( pxStreamBuffer );
 599:Middlewares/Third_Party/FreeRTOS/Source/stream_buffer.c **** 
 600:Middlewares/Third_Party/FreeRTOS/Source/stream_buffer.c **** 	/* This send function is used to write to both message buffers and stream
 601:Middlewares/Third_Party/FreeRTOS/Source/stream_buffer.c **** 	buffers.  If this is a message buffer then the space needed must be
 602:Middlewares/Third_Party/FreeRTOS/Source/stream_buffer.c **** 	increased by the amount of bytes needed to store the length of the
 603:Middlewares/Third_Party/FreeRTOS/Source/stream_buffer.c **** 	message. */
 604:Middlewares/Third_Party/FreeRTOS/Source/stream_buffer.c **** 	if( ( pxStreamBuffer->ucFlags & sbFLAGS_IS_MESSAGE_BUFFER ) != ( uint8_t ) 0 )
ARM GAS  /tmp/ccvFwc0s.s 			page 12


 605:Middlewares/Third_Party/FreeRTOS/Source/stream_buffer.c **** 	{
 606:Middlewares/Third_Party/FreeRTOS/Source/stream_buffer.c **** 		xRequiredSpace += sbBYTES_TO_STORE_MESSAGE_LENGTH;
 607:Middlewares/Third_Party/FreeRTOS/Source/stream_buffer.c **** 	}
 608:Middlewares/Third_Party/FreeRTOS/Source/stream_buffer.c **** 	else
 609:Middlewares/Third_Party/FreeRTOS/Source/stream_buffer.c **** 	{
 610:Middlewares/Third_Party/FreeRTOS/Source/stream_buffer.c **** 		mtCOVERAGE_TEST_MARKER();
 611:Middlewares/Third_Party/FreeRTOS/Source/stream_buffer.c **** 	}
 612:Middlewares/Third_Party/FreeRTOS/Source/stream_buffer.c **** 
 613:Middlewares/Third_Party/FreeRTOS/Source/stream_buffer.c **** 	xSpace = xStreamBufferSpacesAvailable( pxStreamBuffer );
 614:Middlewares/Third_Party/FreeRTOS/Source/stream_buffer.c **** 	xReturn = prvWriteMessageToBuffer( pxStreamBuffer, pvTxData, xDataLengthBytes, xSpace, xRequiredSp
 615:Middlewares/Third_Party/FreeRTOS/Source/stream_buffer.c **** 
 616:Middlewares/Third_Party/FreeRTOS/Source/stream_buffer.c **** 	if( xReturn > ( size_t ) 0 )
 617:Middlewares/Third_Party/FreeRTOS/Source/stream_buffer.c **** 	{
 618:Middlewares/Third_Party/FreeRTOS/Source/stream_buffer.c **** 		/* Was a task waiting for the data? */
 619:Middlewares/Third_Party/FreeRTOS/Source/stream_buffer.c **** 		if( prvBytesInBuffer( pxStreamBuffer ) >= pxStreamBuffer->xTriggerLevelBytes )
 620:Middlewares/Third_Party/FreeRTOS/Source/stream_buffer.c **** 		{
 621:Middlewares/Third_Party/FreeRTOS/Source/stream_buffer.c **** 			sbSEND_COMPLETE_FROM_ISR( pxStreamBuffer, pxHigherPriorityTaskWoken );
 622:Middlewares/Third_Party/FreeRTOS/Source/stream_buffer.c **** 		}
 623:Middlewares/Third_Party/FreeRTOS/Source/stream_buffer.c **** 		else
 624:Middlewares/Third_Party/FreeRTOS/Source/stream_buffer.c **** 		{
 625:Middlewares/Third_Party/FreeRTOS/Source/stream_buffer.c **** 			mtCOVERAGE_TEST_MARKER();
 626:Middlewares/Third_Party/FreeRTOS/Source/stream_buffer.c **** 		}
 627:Middlewares/Third_Party/FreeRTOS/Source/stream_buffer.c **** 	}
 628:Middlewares/Third_Party/FreeRTOS/Source/stream_buffer.c **** 	else
 629:Middlewares/Third_Party/FreeRTOS/Source/stream_buffer.c **** 	{
 630:Middlewares/Third_Party/FreeRTOS/Source/stream_buffer.c **** 		mtCOVERAGE_TEST_MARKER();
 631:Middlewares/Third_Party/FreeRTOS/Source/stream_buffer.c **** 	}
 632:Middlewares/Third_Party/FreeRTOS/Source/stream_buffer.c **** 
 633:Middlewares/Third_Party/FreeRTOS/Source/stream_buffer.c **** 	traceSTREAM_BUFFER_SEND_FROM_ISR( xStreamBuffer, xReturn );
 634:Middlewares/Third_Party/FreeRTOS/Source/stream_buffer.c **** 
 635:Middlewares/Third_Party/FreeRTOS/Source/stream_buffer.c **** 	return xReturn;
 636:Middlewares/Third_Party/FreeRTOS/Source/stream_buffer.c **** }
 637:Middlewares/Third_Party/FreeRTOS/Source/stream_buffer.c **** /*-----------------------------------------------------------*/
 638:Middlewares/Third_Party/FreeRTOS/Source/stream_buffer.c **** 
 639:Middlewares/Third_Party/FreeRTOS/Source/stream_buffer.c **** static size_t prvWriteMessageToBuffer( StreamBuffer_t * const pxStreamBuffer,
 640:Middlewares/Third_Party/FreeRTOS/Source/stream_buffer.c **** 									   const void * pvTxData,
 641:Middlewares/Third_Party/FreeRTOS/Source/stream_buffer.c **** 									   size_t xDataLengthBytes,
 642:Middlewares/Third_Party/FreeRTOS/Source/stream_buffer.c **** 									   size_t xSpace,
 643:Middlewares/Third_Party/FreeRTOS/Source/stream_buffer.c **** 									   size_t xRequiredSpace )
 644:Middlewares/Third_Party/FreeRTOS/Source/stream_buffer.c **** {
 645:Middlewares/Third_Party/FreeRTOS/Source/stream_buffer.c **** 	BaseType_t xShouldWrite;
 646:Middlewares/Third_Party/FreeRTOS/Source/stream_buffer.c **** 	size_t xReturn;
 647:Middlewares/Third_Party/FreeRTOS/Source/stream_buffer.c **** 
 648:Middlewares/Third_Party/FreeRTOS/Source/stream_buffer.c **** 	if( xSpace == ( size_t ) 0 )
 649:Middlewares/Third_Party/FreeRTOS/Source/stream_buffer.c **** 	{
 650:Middlewares/Third_Party/FreeRTOS/Source/stream_buffer.c **** 		/* Doesn't matter if this is a stream buffer or a message buffer, there
 651:Middlewares/Third_Party/FreeRTOS/Source/stream_buffer.c **** 		is no space to write. */
 652:Middlewares/Third_Party/FreeRTOS/Source/stream_buffer.c **** 		xShouldWrite = pdFALSE;
 653:Middlewares/Third_Party/FreeRTOS/Source/stream_buffer.c **** 	}
 654:Middlewares/Third_Party/FreeRTOS/Source/stream_buffer.c **** 	else if( ( pxStreamBuffer->ucFlags & sbFLAGS_IS_MESSAGE_BUFFER ) == ( uint8_t ) 0 )
 655:Middlewares/Third_Party/FreeRTOS/Source/stream_buffer.c **** 	{
 656:Middlewares/Third_Party/FreeRTOS/Source/stream_buffer.c **** 		/* This is a stream buffer, as opposed to a message buffer, so writing a
 657:Middlewares/Third_Party/FreeRTOS/Source/stream_buffer.c **** 		stream of bytes rather than discrete messages.  Write as many bytes as
 658:Middlewares/Third_Party/FreeRTOS/Source/stream_buffer.c **** 		possible. */
 659:Middlewares/Third_Party/FreeRTOS/Source/stream_buffer.c **** 		xShouldWrite = pdTRUE;
 660:Middlewares/Third_Party/FreeRTOS/Source/stream_buffer.c **** 		xDataLengthBytes = configMIN( xDataLengthBytes, xSpace ); /*lint !e9044 Function parameter modifi
 661:Middlewares/Third_Party/FreeRTOS/Source/stream_buffer.c **** 	}
ARM GAS  /tmp/ccvFwc0s.s 			page 13


 662:Middlewares/Third_Party/FreeRTOS/Source/stream_buffer.c **** 	else if( xSpace >= xRequiredSpace )
 663:Middlewares/Third_Party/FreeRTOS/Source/stream_buffer.c **** 	{
 664:Middlewares/Third_Party/FreeRTOS/Source/stream_buffer.c **** 		/* This is a message buffer, as opposed to a stream buffer, and there
 665:Middlewares/Third_Party/FreeRTOS/Source/stream_buffer.c **** 		is enough space to write both the message length and the message itself
 666:Middlewares/Third_Party/FreeRTOS/Source/stream_buffer.c **** 		into the buffer.  Start by writing the length of the data, the data
 667:Middlewares/Third_Party/FreeRTOS/Source/stream_buffer.c **** 		itself will be written later in this function. */
 668:Middlewares/Third_Party/FreeRTOS/Source/stream_buffer.c **** 		xShouldWrite = pdTRUE;
 669:Middlewares/Third_Party/FreeRTOS/Source/stream_buffer.c **** 		( void ) prvWriteBytesToBuffer( pxStreamBuffer, ( const uint8_t * ) &( xDataLengthBytes ), sbBYTE
 670:Middlewares/Third_Party/FreeRTOS/Source/stream_buffer.c **** 	}
 671:Middlewares/Third_Party/FreeRTOS/Source/stream_buffer.c **** 	else
 672:Middlewares/Third_Party/FreeRTOS/Source/stream_buffer.c **** 	{
 673:Middlewares/Third_Party/FreeRTOS/Source/stream_buffer.c **** 		/* There is space available, but not enough space. */
 674:Middlewares/Third_Party/FreeRTOS/Source/stream_buffer.c **** 		xShouldWrite = pdFALSE;
 675:Middlewares/Third_Party/FreeRTOS/Source/stream_buffer.c **** 	}
 676:Middlewares/Third_Party/FreeRTOS/Source/stream_buffer.c **** 
 677:Middlewares/Third_Party/FreeRTOS/Source/stream_buffer.c **** 	if( xShouldWrite != pdFALSE )
 678:Middlewares/Third_Party/FreeRTOS/Source/stream_buffer.c **** 	{
 679:Middlewares/Third_Party/FreeRTOS/Source/stream_buffer.c **** 		/* Writes the data itself. */
 680:Middlewares/Third_Party/FreeRTOS/Source/stream_buffer.c **** 		xReturn = prvWriteBytesToBuffer( pxStreamBuffer, ( const uint8_t * ) pvTxData, xDataLengthBytes )
 681:Middlewares/Third_Party/FreeRTOS/Source/stream_buffer.c **** 	}
 682:Middlewares/Third_Party/FreeRTOS/Source/stream_buffer.c **** 	else
 683:Middlewares/Third_Party/FreeRTOS/Source/stream_buffer.c **** 	{
 684:Middlewares/Third_Party/FreeRTOS/Source/stream_buffer.c **** 		xReturn = 0;
 685:Middlewares/Third_Party/FreeRTOS/Source/stream_buffer.c **** 	}
 686:Middlewares/Third_Party/FreeRTOS/Source/stream_buffer.c **** 
 687:Middlewares/Third_Party/FreeRTOS/Source/stream_buffer.c **** 	return xReturn;
 688:Middlewares/Third_Party/FreeRTOS/Source/stream_buffer.c **** }
 689:Middlewares/Third_Party/FreeRTOS/Source/stream_buffer.c **** /*-----------------------------------------------------------*/
 690:Middlewares/Third_Party/FreeRTOS/Source/stream_buffer.c **** 
 691:Middlewares/Third_Party/FreeRTOS/Source/stream_buffer.c **** size_t xStreamBufferReceive( StreamBufferHandle_t xStreamBuffer,
 692:Middlewares/Third_Party/FreeRTOS/Source/stream_buffer.c **** 							 void *pvRxData,
 693:Middlewares/Third_Party/FreeRTOS/Source/stream_buffer.c **** 							 size_t xBufferLengthBytes,
 694:Middlewares/Third_Party/FreeRTOS/Source/stream_buffer.c **** 							 TickType_t xTicksToWait )
 695:Middlewares/Third_Party/FreeRTOS/Source/stream_buffer.c **** {
 696:Middlewares/Third_Party/FreeRTOS/Source/stream_buffer.c **** StreamBuffer_t * const pxStreamBuffer = ( StreamBuffer_t * ) xStreamBuffer; /*lint !e9087 !e9079 Sa
 697:Middlewares/Third_Party/FreeRTOS/Source/stream_buffer.c **** size_t xReceivedLength = 0, xBytesAvailable, xBytesToStoreMessageLength;
 698:Middlewares/Third_Party/FreeRTOS/Source/stream_buffer.c **** 
 699:Middlewares/Third_Party/FreeRTOS/Source/stream_buffer.c **** 	configASSERT( pvRxData );
 700:Middlewares/Third_Party/FreeRTOS/Source/stream_buffer.c **** 	configASSERT( pxStreamBuffer );
 701:Middlewares/Third_Party/FreeRTOS/Source/stream_buffer.c **** 
 702:Middlewares/Third_Party/FreeRTOS/Source/stream_buffer.c **** 	/* This receive function is used by both message buffers, which store
 703:Middlewares/Third_Party/FreeRTOS/Source/stream_buffer.c **** 	discrete messages, and stream buffers, which store a continuous stream of
 704:Middlewares/Third_Party/FreeRTOS/Source/stream_buffer.c **** 	bytes.  Discrete messages include an additional
 705:Middlewares/Third_Party/FreeRTOS/Source/stream_buffer.c **** 	sbBYTES_TO_STORE_MESSAGE_LENGTH bytes that hold the length of the
 706:Middlewares/Third_Party/FreeRTOS/Source/stream_buffer.c **** 	message. */
 707:Middlewares/Third_Party/FreeRTOS/Source/stream_buffer.c **** 	if( ( pxStreamBuffer->ucFlags & sbFLAGS_IS_MESSAGE_BUFFER ) != ( uint8_t ) 0 )
 708:Middlewares/Third_Party/FreeRTOS/Source/stream_buffer.c **** 	{
 709:Middlewares/Third_Party/FreeRTOS/Source/stream_buffer.c **** 		xBytesToStoreMessageLength = sbBYTES_TO_STORE_MESSAGE_LENGTH;
 710:Middlewares/Third_Party/FreeRTOS/Source/stream_buffer.c **** 	}
 711:Middlewares/Third_Party/FreeRTOS/Source/stream_buffer.c **** 	else
 712:Middlewares/Third_Party/FreeRTOS/Source/stream_buffer.c **** 	{
 713:Middlewares/Third_Party/FreeRTOS/Source/stream_buffer.c **** 		xBytesToStoreMessageLength = 0;
 714:Middlewares/Third_Party/FreeRTOS/Source/stream_buffer.c **** 	}
 715:Middlewares/Third_Party/FreeRTOS/Source/stream_buffer.c **** 
 716:Middlewares/Third_Party/FreeRTOS/Source/stream_buffer.c **** 	if( xTicksToWait != ( TickType_t ) 0 )
 717:Middlewares/Third_Party/FreeRTOS/Source/stream_buffer.c **** 	{
 718:Middlewares/Third_Party/FreeRTOS/Source/stream_buffer.c **** 		/* Checking if there is data and clearing the notification state must be
ARM GAS  /tmp/ccvFwc0s.s 			page 14


 719:Middlewares/Third_Party/FreeRTOS/Source/stream_buffer.c **** 		performed atomically. */
 720:Middlewares/Third_Party/FreeRTOS/Source/stream_buffer.c **** 		taskENTER_CRITICAL();
 721:Middlewares/Third_Party/FreeRTOS/Source/stream_buffer.c **** 		{
 722:Middlewares/Third_Party/FreeRTOS/Source/stream_buffer.c **** 			xBytesAvailable = prvBytesInBuffer( pxStreamBuffer );
 723:Middlewares/Third_Party/FreeRTOS/Source/stream_buffer.c **** 
 724:Middlewares/Third_Party/FreeRTOS/Source/stream_buffer.c **** 			/* If this function was invoked by a message buffer read then
 725:Middlewares/Third_Party/FreeRTOS/Source/stream_buffer.c **** 			xBytesToStoreMessageLength holds the number of bytes used to hold
 726:Middlewares/Third_Party/FreeRTOS/Source/stream_buffer.c **** 			the length of the next discrete message.  If this function was
 727:Middlewares/Third_Party/FreeRTOS/Source/stream_buffer.c **** 			invoked by a stream buffer read then xBytesToStoreMessageLength will
 728:Middlewares/Third_Party/FreeRTOS/Source/stream_buffer.c **** 			be 0. */
 729:Middlewares/Third_Party/FreeRTOS/Source/stream_buffer.c **** 			if( xBytesAvailable <= xBytesToStoreMessageLength )
 730:Middlewares/Third_Party/FreeRTOS/Source/stream_buffer.c **** 			{
 731:Middlewares/Third_Party/FreeRTOS/Source/stream_buffer.c **** 				/* Clear notification state as going to wait for data. */
 732:Middlewares/Third_Party/FreeRTOS/Source/stream_buffer.c **** 				( void ) xTaskNotifyStateClear( NULL );
 733:Middlewares/Third_Party/FreeRTOS/Source/stream_buffer.c **** 
 734:Middlewares/Third_Party/FreeRTOS/Source/stream_buffer.c **** 				/* Should only be one reader. */
 735:Middlewares/Third_Party/FreeRTOS/Source/stream_buffer.c **** 				configASSERT( pxStreamBuffer->xTaskWaitingToReceive == NULL );
 736:Middlewares/Third_Party/FreeRTOS/Source/stream_buffer.c **** 				pxStreamBuffer->xTaskWaitingToReceive = xTaskGetCurrentTaskHandle();
 737:Middlewares/Third_Party/FreeRTOS/Source/stream_buffer.c **** 			}
 738:Middlewares/Third_Party/FreeRTOS/Source/stream_buffer.c **** 			else
 739:Middlewares/Third_Party/FreeRTOS/Source/stream_buffer.c **** 			{
 740:Middlewares/Third_Party/FreeRTOS/Source/stream_buffer.c **** 				mtCOVERAGE_TEST_MARKER();
 741:Middlewares/Third_Party/FreeRTOS/Source/stream_buffer.c **** 			}
 742:Middlewares/Third_Party/FreeRTOS/Source/stream_buffer.c **** 		}
 743:Middlewares/Third_Party/FreeRTOS/Source/stream_buffer.c **** 		taskEXIT_CRITICAL();
 744:Middlewares/Third_Party/FreeRTOS/Source/stream_buffer.c **** 
 745:Middlewares/Third_Party/FreeRTOS/Source/stream_buffer.c **** 		if( xBytesAvailable <= xBytesToStoreMessageLength )
 746:Middlewares/Third_Party/FreeRTOS/Source/stream_buffer.c **** 		{
 747:Middlewares/Third_Party/FreeRTOS/Source/stream_buffer.c **** 			/* Wait for data to be available. */
 748:Middlewares/Third_Party/FreeRTOS/Source/stream_buffer.c **** 			traceBLOCKING_ON_STREAM_BUFFER_RECEIVE( xStreamBuffer );
 749:Middlewares/Third_Party/FreeRTOS/Source/stream_buffer.c **** 			( void ) xTaskNotifyWait( ( uint32_t ) 0, UINT32_MAX, NULL, xTicksToWait );
 750:Middlewares/Third_Party/FreeRTOS/Source/stream_buffer.c **** 			pxStreamBuffer->xTaskWaitingToReceive = NULL;
 751:Middlewares/Third_Party/FreeRTOS/Source/stream_buffer.c **** 
 752:Middlewares/Third_Party/FreeRTOS/Source/stream_buffer.c **** 			/* Recheck the data available after blocking. */
 753:Middlewares/Third_Party/FreeRTOS/Source/stream_buffer.c **** 			xBytesAvailable = prvBytesInBuffer( pxStreamBuffer );
 754:Middlewares/Third_Party/FreeRTOS/Source/stream_buffer.c **** 		}
 755:Middlewares/Third_Party/FreeRTOS/Source/stream_buffer.c **** 		else
 756:Middlewares/Third_Party/FreeRTOS/Source/stream_buffer.c **** 		{
 757:Middlewares/Third_Party/FreeRTOS/Source/stream_buffer.c **** 			mtCOVERAGE_TEST_MARKER();
 758:Middlewares/Third_Party/FreeRTOS/Source/stream_buffer.c **** 		}
 759:Middlewares/Third_Party/FreeRTOS/Source/stream_buffer.c **** 	}
 760:Middlewares/Third_Party/FreeRTOS/Source/stream_buffer.c **** 	else
 761:Middlewares/Third_Party/FreeRTOS/Source/stream_buffer.c **** 	{
 762:Middlewares/Third_Party/FreeRTOS/Source/stream_buffer.c **** 		xBytesAvailable = prvBytesInBuffer( pxStreamBuffer );
 763:Middlewares/Third_Party/FreeRTOS/Source/stream_buffer.c **** 	}
 764:Middlewares/Third_Party/FreeRTOS/Source/stream_buffer.c **** 
 765:Middlewares/Third_Party/FreeRTOS/Source/stream_buffer.c **** 	/* Whether receiving a discrete message (where xBytesToStoreMessageLength
 766:Middlewares/Third_Party/FreeRTOS/Source/stream_buffer.c **** 	holds the number of bytes used to store the message length) or a stream of
 767:Middlewares/Third_Party/FreeRTOS/Source/stream_buffer.c **** 	bytes (where xBytesToStoreMessageLength is zero), the number of bytes
 768:Middlewares/Third_Party/FreeRTOS/Source/stream_buffer.c **** 	available must be greater than xBytesToStoreMessageLength to be able to
 769:Middlewares/Third_Party/FreeRTOS/Source/stream_buffer.c **** 	read bytes from the buffer. */
 770:Middlewares/Third_Party/FreeRTOS/Source/stream_buffer.c **** 	if( xBytesAvailable > xBytesToStoreMessageLength )
 771:Middlewares/Third_Party/FreeRTOS/Source/stream_buffer.c **** 	{
 772:Middlewares/Third_Party/FreeRTOS/Source/stream_buffer.c **** 		xReceivedLength = prvReadMessageFromBuffer( pxStreamBuffer, pvRxData, xBufferLengthBytes, xBytesA
 773:Middlewares/Third_Party/FreeRTOS/Source/stream_buffer.c **** 
 774:Middlewares/Third_Party/FreeRTOS/Source/stream_buffer.c **** 		/* Was a task waiting for space in the buffer? */
 775:Middlewares/Third_Party/FreeRTOS/Source/stream_buffer.c **** 		if( xReceivedLength != ( size_t ) 0 )
ARM GAS  /tmp/ccvFwc0s.s 			page 15


 776:Middlewares/Third_Party/FreeRTOS/Source/stream_buffer.c **** 		{
 777:Middlewares/Third_Party/FreeRTOS/Source/stream_buffer.c **** 			traceSTREAM_BUFFER_RECEIVE( xStreamBuffer, xReceivedLength );
 778:Middlewares/Third_Party/FreeRTOS/Source/stream_buffer.c **** 			sbRECEIVE_COMPLETED( pxStreamBuffer );
 779:Middlewares/Third_Party/FreeRTOS/Source/stream_buffer.c **** 		}
 780:Middlewares/Third_Party/FreeRTOS/Source/stream_buffer.c **** 		else
 781:Middlewares/Third_Party/FreeRTOS/Source/stream_buffer.c **** 		{
 782:Middlewares/Third_Party/FreeRTOS/Source/stream_buffer.c **** 			mtCOVERAGE_TEST_MARKER();
 783:Middlewares/Third_Party/FreeRTOS/Source/stream_buffer.c **** 		}
 784:Middlewares/Third_Party/FreeRTOS/Source/stream_buffer.c **** 	}
 785:Middlewares/Third_Party/FreeRTOS/Source/stream_buffer.c **** 	else
 786:Middlewares/Third_Party/FreeRTOS/Source/stream_buffer.c **** 	{
 787:Middlewares/Third_Party/FreeRTOS/Source/stream_buffer.c **** 		traceSTREAM_BUFFER_RECEIVE_FAILED( xStreamBuffer );
 788:Middlewares/Third_Party/FreeRTOS/Source/stream_buffer.c **** 		mtCOVERAGE_TEST_MARKER();
 789:Middlewares/Third_Party/FreeRTOS/Source/stream_buffer.c **** 	}
 790:Middlewares/Third_Party/FreeRTOS/Source/stream_buffer.c **** 
 791:Middlewares/Third_Party/FreeRTOS/Source/stream_buffer.c **** 	return xReceivedLength;
 792:Middlewares/Third_Party/FreeRTOS/Source/stream_buffer.c **** }
 793:Middlewares/Third_Party/FreeRTOS/Source/stream_buffer.c **** /*-----------------------------------------------------------*/
 794:Middlewares/Third_Party/FreeRTOS/Source/stream_buffer.c **** 
 795:Middlewares/Third_Party/FreeRTOS/Source/stream_buffer.c **** size_t xStreamBufferReceiveFromISR( StreamBufferHandle_t xStreamBuffer,
 796:Middlewares/Third_Party/FreeRTOS/Source/stream_buffer.c **** 									void *pvRxData,
 797:Middlewares/Third_Party/FreeRTOS/Source/stream_buffer.c **** 									size_t xBufferLengthBytes,
 798:Middlewares/Third_Party/FreeRTOS/Source/stream_buffer.c **** 									BaseType_t * const pxHigherPriorityTaskWoken )
 799:Middlewares/Third_Party/FreeRTOS/Source/stream_buffer.c **** {
 800:Middlewares/Third_Party/FreeRTOS/Source/stream_buffer.c **** StreamBuffer_t * const pxStreamBuffer = ( StreamBuffer_t * ) xStreamBuffer; /*lint !e9087 !e9079 Sa
 801:Middlewares/Third_Party/FreeRTOS/Source/stream_buffer.c **** size_t xReceivedLength = 0, xBytesAvailable, xBytesToStoreMessageLength;
 802:Middlewares/Third_Party/FreeRTOS/Source/stream_buffer.c **** 
 803:Middlewares/Third_Party/FreeRTOS/Source/stream_buffer.c **** 	configASSERT( pvRxData );
 804:Middlewares/Third_Party/FreeRTOS/Source/stream_buffer.c **** 	configASSERT( pxStreamBuffer );
 805:Middlewares/Third_Party/FreeRTOS/Source/stream_buffer.c **** 
 806:Middlewares/Third_Party/FreeRTOS/Source/stream_buffer.c **** 	/* This receive function is used by both message buffers, which store
 807:Middlewares/Third_Party/FreeRTOS/Source/stream_buffer.c **** 	discrete messages, and stream buffers, which store a continuous stream of
 808:Middlewares/Third_Party/FreeRTOS/Source/stream_buffer.c **** 	bytes.  Discrete messages include an additional
 809:Middlewares/Third_Party/FreeRTOS/Source/stream_buffer.c **** 	sbBYTES_TO_STORE_MESSAGE_LENGTH bytes that hold the length of the
 810:Middlewares/Third_Party/FreeRTOS/Source/stream_buffer.c **** 	message. */
 811:Middlewares/Third_Party/FreeRTOS/Source/stream_buffer.c **** 	if( ( pxStreamBuffer->ucFlags & sbFLAGS_IS_MESSAGE_BUFFER ) != ( uint8_t ) 0 )
 812:Middlewares/Third_Party/FreeRTOS/Source/stream_buffer.c **** 	{
 813:Middlewares/Third_Party/FreeRTOS/Source/stream_buffer.c **** 		xBytesToStoreMessageLength = sbBYTES_TO_STORE_MESSAGE_LENGTH;
 814:Middlewares/Third_Party/FreeRTOS/Source/stream_buffer.c **** 	}
 815:Middlewares/Third_Party/FreeRTOS/Source/stream_buffer.c **** 	else
 816:Middlewares/Third_Party/FreeRTOS/Source/stream_buffer.c **** 	{
 817:Middlewares/Third_Party/FreeRTOS/Source/stream_buffer.c **** 		xBytesToStoreMessageLength = 0;
 818:Middlewares/Third_Party/FreeRTOS/Source/stream_buffer.c **** 	}
 819:Middlewares/Third_Party/FreeRTOS/Source/stream_buffer.c **** 
 820:Middlewares/Third_Party/FreeRTOS/Source/stream_buffer.c **** 	xBytesAvailable = prvBytesInBuffer( pxStreamBuffer );
 821:Middlewares/Third_Party/FreeRTOS/Source/stream_buffer.c **** 
 822:Middlewares/Third_Party/FreeRTOS/Source/stream_buffer.c **** 	/* Whether receiving a discrete message (where xBytesToStoreMessageLength
 823:Middlewares/Third_Party/FreeRTOS/Source/stream_buffer.c **** 	holds the number of bytes used to store the message length) or a stream of
 824:Middlewares/Third_Party/FreeRTOS/Source/stream_buffer.c **** 	bytes (where xBytesToStoreMessageLength is zero), the number of bytes
 825:Middlewares/Third_Party/FreeRTOS/Source/stream_buffer.c **** 	available must be greater than xBytesToStoreMessageLength to be able to
 826:Middlewares/Third_Party/FreeRTOS/Source/stream_buffer.c **** 	read bytes from the buffer. */
 827:Middlewares/Third_Party/FreeRTOS/Source/stream_buffer.c **** 	if( xBytesAvailable > xBytesToStoreMessageLength )
 828:Middlewares/Third_Party/FreeRTOS/Source/stream_buffer.c **** 	{
 829:Middlewares/Third_Party/FreeRTOS/Source/stream_buffer.c **** 		xReceivedLength = prvReadMessageFromBuffer( pxStreamBuffer, pvRxData, xBufferLengthBytes, xBytesA
 830:Middlewares/Third_Party/FreeRTOS/Source/stream_buffer.c **** 
 831:Middlewares/Third_Party/FreeRTOS/Source/stream_buffer.c **** 		/* Was a task waiting for space in the buffer? */
 832:Middlewares/Third_Party/FreeRTOS/Source/stream_buffer.c **** 		if( xReceivedLength != ( size_t ) 0 )
ARM GAS  /tmp/ccvFwc0s.s 			page 16


 833:Middlewares/Third_Party/FreeRTOS/Source/stream_buffer.c **** 		{
 834:Middlewares/Third_Party/FreeRTOS/Source/stream_buffer.c **** 			sbRECEIVE_COMPLETED_FROM_ISR( pxStreamBuffer, pxHigherPriorityTaskWoken );
 835:Middlewares/Third_Party/FreeRTOS/Source/stream_buffer.c **** 		}
 836:Middlewares/Third_Party/FreeRTOS/Source/stream_buffer.c **** 		else
 837:Middlewares/Third_Party/FreeRTOS/Source/stream_buffer.c **** 		{
 838:Middlewares/Third_Party/FreeRTOS/Source/stream_buffer.c **** 			mtCOVERAGE_TEST_MARKER();
 839:Middlewares/Third_Party/FreeRTOS/Source/stream_buffer.c **** 		}
 840:Middlewares/Third_Party/FreeRTOS/Source/stream_buffer.c **** 	}
 841:Middlewares/Third_Party/FreeRTOS/Source/stream_buffer.c **** 	else
 842:Middlewares/Third_Party/FreeRTOS/Source/stream_buffer.c **** 	{
 843:Middlewares/Third_Party/FreeRTOS/Source/stream_buffer.c **** 		mtCOVERAGE_TEST_MARKER();
 844:Middlewares/Third_Party/FreeRTOS/Source/stream_buffer.c **** 	}
 845:Middlewares/Third_Party/FreeRTOS/Source/stream_buffer.c **** 
 846:Middlewares/Third_Party/FreeRTOS/Source/stream_buffer.c **** 	traceSTREAM_BUFFER_RECEIVE_FROM_ISR( xStreamBuffer, xReceivedLength );
 847:Middlewares/Third_Party/FreeRTOS/Source/stream_buffer.c **** 
 848:Middlewares/Third_Party/FreeRTOS/Source/stream_buffer.c **** 	return xReceivedLength;
 849:Middlewares/Third_Party/FreeRTOS/Source/stream_buffer.c **** }
 850:Middlewares/Third_Party/FreeRTOS/Source/stream_buffer.c **** /*-----------------------------------------------------------*/
 851:Middlewares/Third_Party/FreeRTOS/Source/stream_buffer.c **** 
 852:Middlewares/Third_Party/FreeRTOS/Source/stream_buffer.c **** static size_t prvReadMessageFromBuffer( StreamBuffer_t *pxStreamBuffer,
 853:Middlewares/Third_Party/FreeRTOS/Source/stream_buffer.c **** 										void *pvRxData,
 854:Middlewares/Third_Party/FreeRTOS/Source/stream_buffer.c **** 										size_t xBufferLengthBytes,
 855:Middlewares/Third_Party/FreeRTOS/Source/stream_buffer.c **** 										size_t xBytesAvailable,
 856:Middlewares/Third_Party/FreeRTOS/Source/stream_buffer.c **** 										size_t xBytesToStoreMessageLength )
 857:Middlewares/Third_Party/FreeRTOS/Source/stream_buffer.c **** {
 858:Middlewares/Third_Party/FreeRTOS/Source/stream_buffer.c **** size_t xOriginalTail, xReceivedLength, xNextMessageLength;
 859:Middlewares/Third_Party/FreeRTOS/Source/stream_buffer.c **** 
 860:Middlewares/Third_Party/FreeRTOS/Source/stream_buffer.c **** 	if( xBytesToStoreMessageLength != ( size_t ) 0 )
 861:Middlewares/Third_Party/FreeRTOS/Source/stream_buffer.c **** 	{
 862:Middlewares/Third_Party/FreeRTOS/Source/stream_buffer.c **** 		/* A discrete message is being received.  First receive the length
 863:Middlewares/Third_Party/FreeRTOS/Source/stream_buffer.c **** 		of the message.  A copy of the tail is stored so the buffer can be
 864:Middlewares/Third_Party/FreeRTOS/Source/stream_buffer.c **** 		returned to its prior state if the length of the message is too
 865:Middlewares/Third_Party/FreeRTOS/Source/stream_buffer.c **** 		large for the provided buffer. */
 866:Middlewares/Third_Party/FreeRTOS/Source/stream_buffer.c **** 		xOriginalTail = pxStreamBuffer->xTail;
 867:Middlewares/Third_Party/FreeRTOS/Source/stream_buffer.c **** 		( void ) prvReadBytesFromBuffer( pxStreamBuffer, ( uint8_t * ) &xNextMessageLength, xBytesToStore
 868:Middlewares/Third_Party/FreeRTOS/Source/stream_buffer.c **** 
 869:Middlewares/Third_Party/FreeRTOS/Source/stream_buffer.c **** 		/* Reduce the number of bytes available by the number of bytes just
 870:Middlewares/Third_Party/FreeRTOS/Source/stream_buffer.c **** 		read out. */
 871:Middlewares/Third_Party/FreeRTOS/Source/stream_buffer.c **** 		xBytesAvailable -= xBytesToStoreMessageLength;
 872:Middlewares/Third_Party/FreeRTOS/Source/stream_buffer.c **** 
 873:Middlewares/Third_Party/FreeRTOS/Source/stream_buffer.c **** 		/* Check there is enough space in the buffer provided by the
 874:Middlewares/Third_Party/FreeRTOS/Source/stream_buffer.c **** 		user. */
 875:Middlewares/Third_Party/FreeRTOS/Source/stream_buffer.c **** 		if( xNextMessageLength > xBufferLengthBytes )
 876:Middlewares/Third_Party/FreeRTOS/Source/stream_buffer.c **** 		{
 877:Middlewares/Third_Party/FreeRTOS/Source/stream_buffer.c **** 			/* The user has provided insufficient space to read the message
 878:Middlewares/Third_Party/FreeRTOS/Source/stream_buffer.c **** 			so return the buffer to its previous state (so the length of
 879:Middlewares/Third_Party/FreeRTOS/Source/stream_buffer.c **** 			the message is in the buffer again). */
 880:Middlewares/Third_Party/FreeRTOS/Source/stream_buffer.c **** 			pxStreamBuffer->xTail = xOriginalTail;
 881:Middlewares/Third_Party/FreeRTOS/Source/stream_buffer.c **** 			xNextMessageLength = 0;
 882:Middlewares/Third_Party/FreeRTOS/Source/stream_buffer.c **** 		}
 883:Middlewares/Third_Party/FreeRTOS/Source/stream_buffer.c **** 		else
 884:Middlewares/Third_Party/FreeRTOS/Source/stream_buffer.c **** 		{
 885:Middlewares/Third_Party/FreeRTOS/Source/stream_buffer.c **** 			mtCOVERAGE_TEST_MARKER();
 886:Middlewares/Third_Party/FreeRTOS/Source/stream_buffer.c **** 		}
 887:Middlewares/Third_Party/FreeRTOS/Source/stream_buffer.c **** 	}
 888:Middlewares/Third_Party/FreeRTOS/Source/stream_buffer.c **** 	else
 889:Middlewares/Third_Party/FreeRTOS/Source/stream_buffer.c **** 	{
ARM GAS  /tmp/ccvFwc0s.s 			page 17


 890:Middlewares/Third_Party/FreeRTOS/Source/stream_buffer.c **** 		/* A stream of bytes is being received (as opposed to a discrete
 891:Middlewares/Third_Party/FreeRTOS/Source/stream_buffer.c **** 		message), so read as many bytes as possible. */
 892:Middlewares/Third_Party/FreeRTOS/Source/stream_buffer.c **** 		xNextMessageLength = xBufferLengthBytes;
 893:Middlewares/Third_Party/FreeRTOS/Source/stream_buffer.c **** 	}
 894:Middlewares/Third_Party/FreeRTOS/Source/stream_buffer.c **** 
 895:Middlewares/Third_Party/FreeRTOS/Source/stream_buffer.c **** 	/* Read the actual data. */
 896:Middlewares/Third_Party/FreeRTOS/Source/stream_buffer.c **** 	xReceivedLength = prvReadBytesFromBuffer( pxStreamBuffer, ( uint8_t * ) pvRxData, xNextMessageLeng
 897:Middlewares/Third_Party/FreeRTOS/Source/stream_buffer.c **** 
 898:Middlewares/Third_Party/FreeRTOS/Source/stream_buffer.c **** 	return xReceivedLength;
 899:Middlewares/Third_Party/FreeRTOS/Source/stream_buffer.c **** }
 900:Middlewares/Third_Party/FreeRTOS/Source/stream_buffer.c **** /*-----------------------------------------------------------*/
 901:Middlewares/Third_Party/FreeRTOS/Source/stream_buffer.c **** 
 902:Middlewares/Third_Party/FreeRTOS/Source/stream_buffer.c **** BaseType_t xStreamBufferIsEmpty( StreamBufferHandle_t xStreamBuffer )
 903:Middlewares/Third_Party/FreeRTOS/Source/stream_buffer.c **** {
 904:Middlewares/Third_Party/FreeRTOS/Source/stream_buffer.c **** const StreamBuffer_t * const pxStreamBuffer = ( StreamBuffer_t * ) xStreamBuffer; /*lint !e9087 !e9
 905:Middlewares/Third_Party/FreeRTOS/Source/stream_buffer.c **** BaseType_t xReturn;
 906:Middlewares/Third_Party/FreeRTOS/Source/stream_buffer.c **** size_t xTail;
 907:Middlewares/Third_Party/FreeRTOS/Source/stream_buffer.c **** 
 908:Middlewares/Third_Party/FreeRTOS/Source/stream_buffer.c **** 	configASSERT( pxStreamBuffer );
 909:Middlewares/Third_Party/FreeRTOS/Source/stream_buffer.c **** 
 910:Middlewares/Third_Party/FreeRTOS/Source/stream_buffer.c **** 	/* True if no bytes are available. */
 911:Middlewares/Third_Party/FreeRTOS/Source/stream_buffer.c **** 	xTail = pxStreamBuffer->xTail;
 912:Middlewares/Third_Party/FreeRTOS/Source/stream_buffer.c **** 	if( pxStreamBuffer->xHead == xTail )
 913:Middlewares/Third_Party/FreeRTOS/Source/stream_buffer.c **** 	{
 914:Middlewares/Third_Party/FreeRTOS/Source/stream_buffer.c **** 		xReturn = pdTRUE;
 915:Middlewares/Third_Party/FreeRTOS/Source/stream_buffer.c **** 	}
 916:Middlewares/Third_Party/FreeRTOS/Source/stream_buffer.c **** 	else
 917:Middlewares/Third_Party/FreeRTOS/Source/stream_buffer.c **** 	{
 918:Middlewares/Third_Party/FreeRTOS/Source/stream_buffer.c **** 		xReturn = pdFALSE;
 919:Middlewares/Third_Party/FreeRTOS/Source/stream_buffer.c **** 	}
 920:Middlewares/Third_Party/FreeRTOS/Source/stream_buffer.c **** 
 921:Middlewares/Third_Party/FreeRTOS/Source/stream_buffer.c **** 	return xReturn;
 922:Middlewares/Third_Party/FreeRTOS/Source/stream_buffer.c **** }
 923:Middlewares/Third_Party/FreeRTOS/Source/stream_buffer.c **** /*-----------------------------------------------------------*/
 924:Middlewares/Third_Party/FreeRTOS/Source/stream_buffer.c **** 
 925:Middlewares/Third_Party/FreeRTOS/Source/stream_buffer.c **** BaseType_t xStreamBufferIsFull( StreamBufferHandle_t xStreamBuffer )
 926:Middlewares/Third_Party/FreeRTOS/Source/stream_buffer.c **** {
 927:Middlewares/Third_Party/FreeRTOS/Source/stream_buffer.c **** BaseType_t xReturn;
 928:Middlewares/Third_Party/FreeRTOS/Source/stream_buffer.c **** size_t xBytesToStoreMessageLength;
 929:Middlewares/Third_Party/FreeRTOS/Source/stream_buffer.c **** const StreamBuffer_t * const pxStreamBuffer = ( StreamBuffer_t * ) xStreamBuffer; /*lint !e9087 !e9
 930:Middlewares/Third_Party/FreeRTOS/Source/stream_buffer.c **** 
 931:Middlewares/Third_Party/FreeRTOS/Source/stream_buffer.c **** 	configASSERT( pxStreamBuffer );
 932:Middlewares/Third_Party/FreeRTOS/Source/stream_buffer.c **** 
 933:Middlewares/Third_Party/FreeRTOS/Source/stream_buffer.c **** 	/* This generic version of the receive function is used by both message
 934:Middlewares/Third_Party/FreeRTOS/Source/stream_buffer.c **** 	buffers, which store discrete messages, and stream buffers, which store a
 935:Middlewares/Third_Party/FreeRTOS/Source/stream_buffer.c **** 	continuous stream of bytes.  Discrete messages include an additional
 936:Middlewares/Third_Party/FreeRTOS/Source/stream_buffer.c **** 	sbBYTES_TO_STORE_MESSAGE_LENGTH bytes that hold the length of the message. */
 937:Middlewares/Third_Party/FreeRTOS/Source/stream_buffer.c **** 	if( ( pxStreamBuffer->ucFlags & sbFLAGS_IS_MESSAGE_BUFFER ) != ( uint8_t ) 0 )
 938:Middlewares/Third_Party/FreeRTOS/Source/stream_buffer.c **** 	{
 939:Middlewares/Third_Party/FreeRTOS/Source/stream_buffer.c **** 		xBytesToStoreMessageLength = sbBYTES_TO_STORE_MESSAGE_LENGTH;
 940:Middlewares/Third_Party/FreeRTOS/Source/stream_buffer.c **** 	}
 941:Middlewares/Third_Party/FreeRTOS/Source/stream_buffer.c **** 	else
 942:Middlewares/Third_Party/FreeRTOS/Source/stream_buffer.c **** 	{
 943:Middlewares/Third_Party/FreeRTOS/Source/stream_buffer.c **** 		xBytesToStoreMessageLength = 0;
 944:Middlewares/Third_Party/FreeRTOS/Source/stream_buffer.c **** 	}
 945:Middlewares/Third_Party/FreeRTOS/Source/stream_buffer.c **** 
 946:Middlewares/Third_Party/FreeRTOS/Source/stream_buffer.c **** 	/* True if the available space equals zero. */
ARM GAS  /tmp/ccvFwc0s.s 			page 18


 947:Middlewares/Third_Party/FreeRTOS/Source/stream_buffer.c **** 	if( xStreamBufferSpacesAvailable( xStreamBuffer ) <= xBytesToStoreMessageLength )
 948:Middlewares/Third_Party/FreeRTOS/Source/stream_buffer.c **** 	{
 949:Middlewares/Third_Party/FreeRTOS/Source/stream_buffer.c **** 		xReturn = pdTRUE;
 950:Middlewares/Third_Party/FreeRTOS/Source/stream_buffer.c **** 	}
 951:Middlewares/Third_Party/FreeRTOS/Source/stream_buffer.c **** 	else
 952:Middlewares/Third_Party/FreeRTOS/Source/stream_buffer.c **** 	{
 953:Middlewares/Third_Party/FreeRTOS/Source/stream_buffer.c **** 		xReturn = pdFALSE;
 954:Middlewares/Third_Party/FreeRTOS/Source/stream_buffer.c **** 	}
 955:Middlewares/Third_Party/FreeRTOS/Source/stream_buffer.c **** 
 956:Middlewares/Third_Party/FreeRTOS/Source/stream_buffer.c **** 	return xReturn;
 957:Middlewares/Third_Party/FreeRTOS/Source/stream_buffer.c **** }
 958:Middlewares/Third_Party/FreeRTOS/Source/stream_buffer.c **** /*-----------------------------------------------------------*/
 959:Middlewares/Third_Party/FreeRTOS/Source/stream_buffer.c **** 
 960:Middlewares/Third_Party/FreeRTOS/Source/stream_buffer.c **** BaseType_t xStreamBufferSendCompletedFromISR( StreamBufferHandle_t xStreamBuffer, BaseType_t *pxHig
 961:Middlewares/Third_Party/FreeRTOS/Source/stream_buffer.c **** {
 962:Middlewares/Third_Party/FreeRTOS/Source/stream_buffer.c **** StreamBuffer_t * const pxStreamBuffer = ( StreamBuffer_t * ) xStreamBuffer; /*lint !e9087 !e9079 Sa
 963:Middlewares/Third_Party/FreeRTOS/Source/stream_buffer.c **** BaseType_t xReturn;
 964:Middlewares/Third_Party/FreeRTOS/Source/stream_buffer.c **** UBaseType_t uxSavedInterruptStatus;
 965:Middlewares/Third_Party/FreeRTOS/Source/stream_buffer.c **** 
 966:Middlewares/Third_Party/FreeRTOS/Source/stream_buffer.c **** 	configASSERT( pxStreamBuffer );
 967:Middlewares/Third_Party/FreeRTOS/Source/stream_buffer.c **** 
 968:Middlewares/Third_Party/FreeRTOS/Source/stream_buffer.c **** 	uxSavedInterruptStatus = ( UBaseType_t ) portSET_INTERRUPT_MASK_FROM_ISR();
 969:Middlewares/Third_Party/FreeRTOS/Source/stream_buffer.c **** 	{
 970:Middlewares/Third_Party/FreeRTOS/Source/stream_buffer.c **** 		if( ( pxStreamBuffer )->xTaskWaitingToReceive != NULL )
 971:Middlewares/Third_Party/FreeRTOS/Source/stream_buffer.c **** 		{
 972:Middlewares/Third_Party/FreeRTOS/Source/stream_buffer.c **** 			( void ) xTaskNotifyFromISR( ( pxStreamBuffer )->xTaskWaitingToReceive,
 973:Middlewares/Third_Party/FreeRTOS/Source/stream_buffer.c **** 										 ( uint32_t ) 0,
 974:Middlewares/Third_Party/FreeRTOS/Source/stream_buffer.c **** 										 eNoAction,
 975:Middlewares/Third_Party/FreeRTOS/Source/stream_buffer.c **** 										 pxHigherPriorityTaskWoken );
 976:Middlewares/Third_Party/FreeRTOS/Source/stream_buffer.c **** 			( pxStreamBuffer )->xTaskWaitingToReceive = NULL;
 977:Middlewares/Third_Party/FreeRTOS/Source/stream_buffer.c **** 			xReturn = pdTRUE;
 978:Middlewares/Third_Party/FreeRTOS/Source/stream_buffer.c **** 		}
 979:Middlewares/Third_Party/FreeRTOS/Source/stream_buffer.c **** 		else
 980:Middlewares/Third_Party/FreeRTOS/Source/stream_buffer.c **** 		{
 981:Middlewares/Third_Party/FreeRTOS/Source/stream_buffer.c **** 			xReturn = pdFALSE;
 982:Middlewares/Third_Party/FreeRTOS/Source/stream_buffer.c **** 		}
 983:Middlewares/Third_Party/FreeRTOS/Source/stream_buffer.c **** 	}
 984:Middlewares/Third_Party/FreeRTOS/Source/stream_buffer.c **** 	portCLEAR_INTERRUPT_MASK_FROM_ISR( uxSavedInterruptStatus );
 985:Middlewares/Third_Party/FreeRTOS/Source/stream_buffer.c **** 
 986:Middlewares/Third_Party/FreeRTOS/Source/stream_buffer.c **** 	return xReturn;
 987:Middlewares/Third_Party/FreeRTOS/Source/stream_buffer.c **** }
 988:Middlewares/Third_Party/FreeRTOS/Source/stream_buffer.c **** /*-----------------------------------------------------------*/
 989:Middlewares/Third_Party/FreeRTOS/Source/stream_buffer.c **** 
 990:Middlewares/Third_Party/FreeRTOS/Source/stream_buffer.c **** BaseType_t xStreamBufferReceiveCompletedFromISR( StreamBufferHandle_t xStreamBuffer, BaseType_t *px
 991:Middlewares/Third_Party/FreeRTOS/Source/stream_buffer.c **** {
 992:Middlewares/Third_Party/FreeRTOS/Source/stream_buffer.c **** StreamBuffer_t * const pxStreamBuffer = ( StreamBuffer_t * ) xStreamBuffer; /*lint !e9087 !e9079 Sa
 993:Middlewares/Third_Party/FreeRTOS/Source/stream_buffer.c **** BaseType_t xReturn;
 994:Middlewares/Third_Party/FreeRTOS/Source/stream_buffer.c **** UBaseType_t uxSavedInterruptStatus;
 995:Middlewares/Third_Party/FreeRTOS/Source/stream_buffer.c **** 
 996:Middlewares/Third_Party/FreeRTOS/Source/stream_buffer.c **** 	configASSERT( pxStreamBuffer );
 997:Middlewares/Third_Party/FreeRTOS/Source/stream_buffer.c **** 
 998:Middlewares/Third_Party/FreeRTOS/Source/stream_buffer.c **** 	uxSavedInterruptStatus = ( UBaseType_t ) portSET_INTERRUPT_MASK_FROM_ISR();
 999:Middlewares/Third_Party/FreeRTOS/Source/stream_buffer.c **** 	{
1000:Middlewares/Third_Party/FreeRTOS/Source/stream_buffer.c **** 		if( ( pxStreamBuffer )->xTaskWaitingToSend != NULL )
1001:Middlewares/Third_Party/FreeRTOS/Source/stream_buffer.c **** 		{
1002:Middlewares/Third_Party/FreeRTOS/Source/stream_buffer.c **** 			( void ) xTaskNotifyFromISR( ( pxStreamBuffer )->xTaskWaitingToSend,
1003:Middlewares/Third_Party/FreeRTOS/Source/stream_buffer.c **** 										 ( uint32_t ) 0,
ARM GAS  /tmp/ccvFwc0s.s 			page 19


1004:Middlewares/Third_Party/FreeRTOS/Source/stream_buffer.c **** 										 eNoAction,
1005:Middlewares/Third_Party/FreeRTOS/Source/stream_buffer.c **** 										 pxHigherPriorityTaskWoken );
1006:Middlewares/Third_Party/FreeRTOS/Source/stream_buffer.c **** 			( pxStreamBuffer )->xTaskWaitingToSend = NULL;
1007:Middlewares/Third_Party/FreeRTOS/Source/stream_buffer.c **** 			xReturn = pdTRUE;
1008:Middlewares/Third_Party/FreeRTOS/Source/stream_buffer.c **** 		}
1009:Middlewares/Third_Party/FreeRTOS/Source/stream_buffer.c **** 		else
1010:Middlewares/Third_Party/FreeRTOS/Source/stream_buffer.c **** 		{
1011:Middlewares/Third_Party/FreeRTOS/Source/stream_buffer.c **** 			xReturn = pdFALSE;
1012:Middlewares/Third_Party/FreeRTOS/Source/stream_buffer.c **** 		}
1013:Middlewares/Third_Party/FreeRTOS/Source/stream_buffer.c **** 	}
1014:Middlewares/Third_Party/FreeRTOS/Source/stream_buffer.c **** 	portCLEAR_INTERRUPT_MASK_FROM_ISR( uxSavedInterruptStatus );
1015:Middlewares/Third_Party/FreeRTOS/Source/stream_buffer.c **** 
1016:Middlewares/Third_Party/FreeRTOS/Source/stream_buffer.c **** 	return xReturn;
1017:Middlewares/Third_Party/FreeRTOS/Source/stream_buffer.c **** }
1018:Middlewares/Third_Party/FreeRTOS/Source/stream_buffer.c **** /*-----------------------------------------------------------*/
1019:Middlewares/Third_Party/FreeRTOS/Source/stream_buffer.c **** 
1020:Middlewares/Third_Party/FreeRTOS/Source/stream_buffer.c **** static size_t prvWriteBytesToBuffer( StreamBuffer_t * const pxStreamBuffer, const uint8_t *pucData,
1021:Middlewares/Third_Party/FreeRTOS/Source/stream_buffer.c **** {
1022:Middlewares/Third_Party/FreeRTOS/Source/stream_buffer.c **** size_t xNextHead, xFirstLength;
1023:Middlewares/Third_Party/FreeRTOS/Source/stream_buffer.c **** 
1024:Middlewares/Third_Party/FreeRTOS/Source/stream_buffer.c **** 	configASSERT( xCount > ( size_t ) 0 );
1025:Middlewares/Third_Party/FreeRTOS/Source/stream_buffer.c **** 
1026:Middlewares/Third_Party/FreeRTOS/Source/stream_buffer.c **** 	xNextHead = pxStreamBuffer->xHead;
1027:Middlewares/Third_Party/FreeRTOS/Source/stream_buffer.c **** 
1028:Middlewares/Third_Party/FreeRTOS/Source/stream_buffer.c **** 	/* Calculate the number of bytes that can be added in the first write -
1029:Middlewares/Third_Party/FreeRTOS/Source/stream_buffer.c **** 	which may be less than the total number of bytes that need to be added if
1030:Middlewares/Third_Party/FreeRTOS/Source/stream_buffer.c **** 	the buffer will wrap back to the beginning. */
1031:Middlewares/Third_Party/FreeRTOS/Source/stream_buffer.c **** 	xFirstLength = configMIN( pxStreamBuffer->xLength - xNextHead, xCount );
1032:Middlewares/Third_Party/FreeRTOS/Source/stream_buffer.c **** 
1033:Middlewares/Third_Party/FreeRTOS/Source/stream_buffer.c **** 	/* Write as many bytes as can be written in the first write. */
1034:Middlewares/Third_Party/FreeRTOS/Source/stream_buffer.c **** 	configASSERT( ( xNextHead + xFirstLength ) <= pxStreamBuffer->xLength );
1035:Middlewares/Third_Party/FreeRTOS/Source/stream_buffer.c **** 	memcpy( ( void* ) ( &( pxStreamBuffer->pucBuffer[ xNextHead ] ) ), ( const void * ) pucData, xFirs
1036:Middlewares/Third_Party/FreeRTOS/Source/stream_buffer.c **** 
1037:Middlewares/Third_Party/FreeRTOS/Source/stream_buffer.c **** 	/* If the number of bytes written was less than the number that could be
1038:Middlewares/Third_Party/FreeRTOS/Source/stream_buffer.c **** 	written in the first write... */
1039:Middlewares/Third_Party/FreeRTOS/Source/stream_buffer.c **** 	if( xCount > xFirstLength )
1040:Middlewares/Third_Party/FreeRTOS/Source/stream_buffer.c **** 	{
1041:Middlewares/Third_Party/FreeRTOS/Source/stream_buffer.c **** 		/* ...then write the remaining bytes to the start of the buffer. */
1042:Middlewares/Third_Party/FreeRTOS/Source/stream_buffer.c **** 		configASSERT( ( xCount - xFirstLength ) <= pxStreamBuffer->xLength );
1043:Middlewares/Third_Party/FreeRTOS/Source/stream_buffer.c **** 		memcpy( ( void * ) pxStreamBuffer->pucBuffer, ( const void * ) &( pucData[ xFirstLength ] ), xCou
1044:Middlewares/Third_Party/FreeRTOS/Source/stream_buffer.c **** 	}
1045:Middlewares/Third_Party/FreeRTOS/Source/stream_buffer.c **** 	else
1046:Middlewares/Third_Party/FreeRTOS/Source/stream_buffer.c **** 	{
1047:Middlewares/Third_Party/FreeRTOS/Source/stream_buffer.c **** 		mtCOVERAGE_TEST_MARKER();
1048:Middlewares/Third_Party/FreeRTOS/Source/stream_buffer.c **** 	}
1049:Middlewares/Third_Party/FreeRTOS/Source/stream_buffer.c **** 
1050:Middlewares/Third_Party/FreeRTOS/Source/stream_buffer.c **** 	xNextHead += xCount;
1051:Middlewares/Third_Party/FreeRTOS/Source/stream_buffer.c **** 	if( xNextHead >= pxStreamBuffer->xLength )
1052:Middlewares/Third_Party/FreeRTOS/Source/stream_buffer.c **** 	{
1053:Middlewares/Third_Party/FreeRTOS/Source/stream_buffer.c **** 		xNextHead -= pxStreamBuffer->xLength;
1054:Middlewares/Third_Party/FreeRTOS/Source/stream_buffer.c **** 	}
1055:Middlewares/Third_Party/FreeRTOS/Source/stream_buffer.c **** 	else
1056:Middlewares/Third_Party/FreeRTOS/Source/stream_buffer.c **** 	{
1057:Middlewares/Third_Party/FreeRTOS/Source/stream_buffer.c **** 		mtCOVERAGE_TEST_MARKER();
1058:Middlewares/Third_Party/FreeRTOS/Source/stream_buffer.c **** 	}
1059:Middlewares/Third_Party/FreeRTOS/Source/stream_buffer.c **** 
1060:Middlewares/Third_Party/FreeRTOS/Source/stream_buffer.c **** 	pxStreamBuffer->xHead = xNextHead;
ARM GAS  /tmp/ccvFwc0s.s 			page 20


1061:Middlewares/Third_Party/FreeRTOS/Source/stream_buffer.c **** 
1062:Middlewares/Third_Party/FreeRTOS/Source/stream_buffer.c **** 	return xCount;
1063:Middlewares/Third_Party/FreeRTOS/Source/stream_buffer.c **** }
1064:Middlewares/Third_Party/FreeRTOS/Source/stream_buffer.c **** /*-----------------------------------------------------------*/
1065:Middlewares/Third_Party/FreeRTOS/Source/stream_buffer.c **** 
1066:Middlewares/Third_Party/FreeRTOS/Source/stream_buffer.c **** static size_t prvReadBytesFromBuffer( StreamBuffer_t *pxStreamBuffer, uint8_t *pucData, size_t xMax
1067:Middlewares/Third_Party/FreeRTOS/Source/stream_buffer.c **** {
1068:Middlewares/Third_Party/FreeRTOS/Source/stream_buffer.c **** size_t xCount, xFirstLength, xNextTail;
1069:Middlewares/Third_Party/FreeRTOS/Source/stream_buffer.c **** 
1070:Middlewares/Third_Party/FreeRTOS/Source/stream_buffer.c **** 	/* Use the minimum of the wanted bytes and the available bytes. */
1071:Middlewares/Third_Party/FreeRTOS/Source/stream_buffer.c **** 	xCount = configMIN( xBytesAvailable, xMaxCount );
1072:Middlewares/Third_Party/FreeRTOS/Source/stream_buffer.c **** 
1073:Middlewares/Third_Party/FreeRTOS/Source/stream_buffer.c **** 	if( xCount > ( size_t ) 0 )
1074:Middlewares/Third_Party/FreeRTOS/Source/stream_buffer.c **** 	{
1075:Middlewares/Third_Party/FreeRTOS/Source/stream_buffer.c **** 		xNextTail = pxStreamBuffer->xTail;
1076:Middlewares/Third_Party/FreeRTOS/Source/stream_buffer.c **** 
1077:Middlewares/Third_Party/FreeRTOS/Source/stream_buffer.c **** 		/* Calculate the number of bytes that can be read - which may be
1078:Middlewares/Third_Party/FreeRTOS/Source/stream_buffer.c **** 		less than the number wanted if the data wraps around to the start of
1079:Middlewares/Third_Party/FreeRTOS/Source/stream_buffer.c **** 		the buffer. */
1080:Middlewares/Third_Party/FreeRTOS/Source/stream_buffer.c **** 		xFirstLength = configMIN( pxStreamBuffer->xLength - xNextTail, xCount );
1081:Middlewares/Third_Party/FreeRTOS/Source/stream_buffer.c **** 
1082:Middlewares/Third_Party/FreeRTOS/Source/stream_buffer.c **** 		/* Obtain the number of bytes it is possible to obtain in the first
1083:Middlewares/Third_Party/FreeRTOS/Source/stream_buffer.c **** 		read.  Asserts check bounds of read and write. */
1084:Middlewares/Third_Party/FreeRTOS/Source/stream_buffer.c **** 		configASSERT( xFirstLength <= xMaxCount );
1085:Middlewares/Third_Party/FreeRTOS/Source/stream_buffer.c **** 		configASSERT( ( xNextTail + xFirstLength ) <= pxStreamBuffer->xLength );
1086:Middlewares/Third_Party/FreeRTOS/Source/stream_buffer.c **** 		memcpy( ( void * ) pucData, ( const void * ) &( pxStreamBuffer->pucBuffer[ xNextTail ] ), xFirstL
1087:Middlewares/Third_Party/FreeRTOS/Source/stream_buffer.c **** 
1088:Middlewares/Third_Party/FreeRTOS/Source/stream_buffer.c **** 		/* If the total number of wanted bytes is greater than the number
1089:Middlewares/Third_Party/FreeRTOS/Source/stream_buffer.c **** 		that could be read in the first read... */
1090:Middlewares/Third_Party/FreeRTOS/Source/stream_buffer.c **** 		if( xCount > xFirstLength )
1091:Middlewares/Third_Party/FreeRTOS/Source/stream_buffer.c **** 		{
1092:Middlewares/Third_Party/FreeRTOS/Source/stream_buffer.c **** 			/*...then read the remaining bytes from the start of the buffer. */
1093:Middlewares/Third_Party/FreeRTOS/Source/stream_buffer.c **** 			configASSERT( xCount <= xMaxCount );
1094:Middlewares/Third_Party/FreeRTOS/Source/stream_buffer.c **** 			memcpy( ( void * ) &( pucData[ xFirstLength ] ), ( void * ) ( pxStreamBuffer->pucBuffer ), xCoun
1095:Middlewares/Third_Party/FreeRTOS/Source/stream_buffer.c **** 		}
1096:Middlewares/Third_Party/FreeRTOS/Source/stream_buffer.c **** 		else
1097:Middlewares/Third_Party/FreeRTOS/Source/stream_buffer.c **** 		{
1098:Middlewares/Third_Party/FreeRTOS/Source/stream_buffer.c **** 			mtCOVERAGE_TEST_MARKER();
1099:Middlewares/Third_Party/FreeRTOS/Source/stream_buffer.c **** 		}
1100:Middlewares/Third_Party/FreeRTOS/Source/stream_buffer.c **** 
1101:Middlewares/Third_Party/FreeRTOS/Source/stream_buffer.c **** 		/* Move the tail pointer to effectively remove the data read from
1102:Middlewares/Third_Party/FreeRTOS/Source/stream_buffer.c **** 		the buffer. */
1103:Middlewares/Third_Party/FreeRTOS/Source/stream_buffer.c **** 		xNextTail += xCount;
1104:Middlewares/Third_Party/FreeRTOS/Source/stream_buffer.c **** 
1105:Middlewares/Third_Party/FreeRTOS/Source/stream_buffer.c **** 		if( xNextTail >= pxStreamBuffer->xLength )
1106:Middlewares/Third_Party/FreeRTOS/Source/stream_buffer.c **** 		{
1107:Middlewares/Third_Party/FreeRTOS/Source/stream_buffer.c **** 			xNextTail -= pxStreamBuffer->xLength;
1108:Middlewares/Third_Party/FreeRTOS/Source/stream_buffer.c **** 		}
1109:Middlewares/Third_Party/FreeRTOS/Source/stream_buffer.c **** 
1110:Middlewares/Third_Party/FreeRTOS/Source/stream_buffer.c **** 		pxStreamBuffer->xTail = xNextTail;
1111:Middlewares/Third_Party/FreeRTOS/Source/stream_buffer.c **** 	}
1112:Middlewares/Third_Party/FreeRTOS/Source/stream_buffer.c **** 	else
1113:Middlewares/Third_Party/FreeRTOS/Source/stream_buffer.c **** 	{
1114:Middlewares/Third_Party/FreeRTOS/Source/stream_buffer.c **** 		mtCOVERAGE_TEST_MARKER();
1115:Middlewares/Third_Party/FreeRTOS/Source/stream_buffer.c **** 	}
1116:Middlewares/Third_Party/FreeRTOS/Source/stream_buffer.c **** 
1117:Middlewares/Third_Party/FreeRTOS/Source/stream_buffer.c **** 	return xCount;
ARM GAS  /tmp/ccvFwc0s.s 			page 21


1118:Middlewares/Third_Party/FreeRTOS/Source/stream_buffer.c **** }
1119:Middlewares/Third_Party/FreeRTOS/Source/stream_buffer.c **** /*-----------------------------------------------------------*/
1120:Middlewares/Third_Party/FreeRTOS/Source/stream_buffer.c **** 
1121:Middlewares/Third_Party/FreeRTOS/Source/stream_buffer.c **** static size_t prvBytesInBuffer( const StreamBuffer_t * const pxStreamBuffer )
1122:Middlewares/Third_Party/FreeRTOS/Source/stream_buffer.c **** {
  25              		.loc 1 1122 0
  26              		.cfi_startproc
  27              		@ args = 0, pretend = 0, frame = 0
  28              		@ frame_needed = 0, uses_anonymous_args = 0
  29              		@ link register save eliminated.
  30              	.LVL0:
1123:Middlewares/Third_Party/FreeRTOS/Source/stream_buffer.c **** /* Returns the distance between xTail and xHead. */
1124:Middlewares/Third_Party/FreeRTOS/Source/stream_buffer.c **** size_t xCount;
1125:Middlewares/Third_Party/FreeRTOS/Source/stream_buffer.c **** 
1126:Middlewares/Third_Party/FreeRTOS/Source/stream_buffer.c **** 	xCount = pxStreamBuffer->xLength + pxStreamBuffer->xHead;
  31              		.loc 1 1126 0
  32 0000 8268     		ldr	r2, [r0, #8]
  33 0002 4368     		ldr	r3, [r0, #4]
  34 0004 1344     		add	r3, r3, r2
  35              	.LVL1:
1127:Middlewares/Third_Party/FreeRTOS/Source/stream_buffer.c **** 	xCount -= pxStreamBuffer->xTail;
  36              		.loc 1 1127 0
  37 0006 0068     		ldr	r0, [r0]
  38              	.LVL2:
  39 0008 181A     		subs	r0, r3, r0
  40              	.LVL3:
1128:Middlewares/Third_Party/FreeRTOS/Source/stream_buffer.c **** 	if ( xCount >= pxStreamBuffer->xLength )
  41              		.loc 1 1128 0
  42 000a 8242     		cmp	r2, r0
  43 000c 00D8     		bhi	.L1
1129:Middlewares/Third_Party/FreeRTOS/Source/stream_buffer.c **** 	{
1130:Middlewares/Third_Party/FreeRTOS/Source/stream_buffer.c **** 		xCount -= pxStreamBuffer->xLength;
  44              		.loc 1 1130 0
  45 000e 801A     		subs	r0, r0, r2
  46              	.LVL4:
  47              	.L1:
1131:Middlewares/Third_Party/FreeRTOS/Source/stream_buffer.c **** 	}
1132:Middlewares/Third_Party/FreeRTOS/Source/stream_buffer.c **** 	else
1133:Middlewares/Third_Party/FreeRTOS/Source/stream_buffer.c **** 	{
1134:Middlewares/Third_Party/FreeRTOS/Source/stream_buffer.c **** 		mtCOVERAGE_TEST_MARKER();
1135:Middlewares/Third_Party/FreeRTOS/Source/stream_buffer.c **** 	}
1136:Middlewares/Third_Party/FreeRTOS/Source/stream_buffer.c **** 
1137:Middlewares/Third_Party/FreeRTOS/Source/stream_buffer.c **** 	return xCount;
1138:Middlewares/Third_Party/FreeRTOS/Source/stream_buffer.c **** }
  48              		.loc 1 1138 0
  49 0010 7047     		bx	lr
  50              		.cfi_endproc
  51              	.LFE23:
  53              		.section	.text.prvInitialiseNewStreamBuffer,"ax",%progbits
  54              		.align	1
  55              		.syntax unified
  56              		.thumb
  57              		.thumb_func
  58              		.fpu softvfp
  60              	prvInitialiseNewStreamBuffer:
  61              	.LFB24:
1139:Middlewares/Third_Party/FreeRTOS/Source/stream_buffer.c **** /*-----------------------------------------------------------*/
ARM GAS  /tmp/ccvFwc0s.s 			page 22


1140:Middlewares/Third_Party/FreeRTOS/Source/stream_buffer.c **** 
1141:Middlewares/Third_Party/FreeRTOS/Source/stream_buffer.c **** static void prvInitialiseNewStreamBuffer( StreamBuffer_t * const pxStreamBuffer,
1142:Middlewares/Third_Party/FreeRTOS/Source/stream_buffer.c **** 										  uint8_t * const pucBuffer,
1143:Middlewares/Third_Party/FreeRTOS/Source/stream_buffer.c **** 										  size_t xBufferSizeBytes,
1144:Middlewares/Third_Party/FreeRTOS/Source/stream_buffer.c **** 										  size_t xTriggerLevelBytes,
1145:Middlewares/Third_Party/FreeRTOS/Source/stream_buffer.c **** 										  BaseType_t xIsMessageBuffer )
1146:Middlewares/Third_Party/FreeRTOS/Source/stream_buffer.c **** {
  62              		.loc 1 1146 0
  63              		.cfi_startproc
  64              		@ args = 4, pretend = 0, frame = 0
  65              		@ frame_needed = 0, uses_anonymous_args = 0
  66              	.LVL5:
  67 0000 F8B5     		push	{r3, r4, r5, r6, r7, lr}
  68              	.LCFI0:
  69              		.cfi_def_cfa_offset 24
  70              		.cfi_offset 3, -24
  71              		.cfi_offset 4, -20
  72              		.cfi_offset 5, -16
  73              		.cfi_offset 6, -12
  74              		.cfi_offset 7, -8
  75              		.cfi_offset 14, -4
  76 0002 0446     		mov	r4, r0
  77 0004 0D46     		mov	r5, r1
  78 0006 1646     		mov	r6, r2
  79 0008 1F46     		mov	r7, r3
  80              	.LVL6:
  81              	.LBB88:
1147:Middlewares/Third_Party/FreeRTOS/Source/stream_buffer.c **** 	/* Assert here is deliberately writing to the entire buffer to ensure it can
1148:Middlewares/Third_Party/FreeRTOS/Source/stream_buffer.c **** 	be written to without generating exceptions, and is setting the buffer to a
1149:Middlewares/Third_Party/FreeRTOS/Source/stream_buffer.c **** 	known value to assist in development/debugging. */
1150:Middlewares/Third_Party/FreeRTOS/Source/stream_buffer.c **** 	#if( configASSERT_DEFINED == 1 )
1151:Middlewares/Third_Party/FreeRTOS/Source/stream_buffer.c **** 	{
1152:Middlewares/Third_Party/FreeRTOS/Source/stream_buffer.c **** 		/* The value written just has to be identifiable when looking at the
1153:Middlewares/Third_Party/FreeRTOS/Source/stream_buffer.c **** 		memory.  Don't use 0xA5 as that is the stack fill value and could
1154:Middlewares/Third_Party/FreeRTOS/Source/stream_buffer.c **** 		result in confusion as to what is actually being observed. */
1155:Middlewares/Third_Party/FreeRTOS/Source/stream_buffer.c **** 		const BaseType_t xWriteValue = 0x55;
1156:Middlewares/Third_Party/FreeRTOS/Source/stream_buffer.c **** 		configASSERT( memset( pucBuffer, ( int ) xWriteValue, xBufferSizeBytes ) == pucBuffer );
  82              		.loc 1 1156 0
  83 000a 5521     		movs	r1, #85
  84              	.LVL7:
  85 000c 2846     		mov	r0, r5
  86              	.LVL8:
  87 000e FFF7FEFF 		bl	memset
  88              	.LVL9:
  89 0012 8542     		cmp	r5, r0
  90 0014 08D0     		beq	.L4
  91              	.LBB89:
  92              	.LBB90:
  93              		.file 2 "Middlewares/Third_Party/FreeRTOS/Source/portable/GCC/ARM_CM3/portmacro.h"
   1:Middlewares/Third_Party/FreeRTOS/Source/portable/GCC/ARM_CM3/portmacro.h **** /*
   2:Middlewares/Third_Party/FreeRTOS/Source/portable/GCC/ARM_CM3/portmacro.h ****  * FreeRTOS Kernel V10.0.1
   3:Middlewares/Third_Party/FreeRTOS/Source/portable/GCC/ARM_CM3/portmacro.h ****  * Copyright (C) 2017 Amazon.com, Inc. or its affiliates.  All Rights Reserved.
   4:Middlewares/Third_Party/FreeRTOS/Source/portable/GCC/ARM_CM3/portmacro.h ****  *
   5:Middlewares/Third_Party/FreeRTOS/Source/portable/GCC/ARM_CM3/portmacro.h ****  * Permission is hereby granted, free of charge, to any person obtaining a copy of
   6:Middlewares/Third_Party/FreeRTOS/Source/portable/GCC/ARM_CM3/portmacro.h ****  * this software and associated documentation files (the "Software"), to deal in
   7:Middlewares/Third_Party/FreeRTOS/Source/portable/GCC/ARM_CM3/portmacro.h ****  * the Software without restriction, including without limitation the rights to
   8:Middlewares/Third_Party/FreeRTOS/Source/portable/GCC/ARM_CM3/portmacro.h ****  * use, copy, modify, merge, publish, distribute, sublicense, and/or sell copies of
ARM GAS  /tmp/ccvFwc0s.s 			page 23


   9:Middlewares/Third_Party/FreeRTOS/Source/portable/GCC/ARM_CM3/portmacro.h ****  * the Software, and to permit persons to whom the Software is furnished to do so,
  10:Middlewares/Third_Party/FreeRTOS/Source/portable/GCC/ARM_CM3/portmacro.h ****  * subject to the following conditions:
  11:Middlewares/Third_Party/FreeRTOS/Source/portable/GCC/ARM_CM3/portmacro.h ****  *
  12:Middlewares/Third_Party/FreeRTOS/Source/portable/GCC/ARM_CM3/portmacro.h ****  * The above copyright notice and this permission notice shall be included in all
  13:Middlewares/Third_Party/FreeRTOS/Source/portable/GCC/ARM_CM3/portmacro.h ****  * copies or substantial portions of the Software.
  14:Middlewares/Third_Party/FreeRTOS/Source/portable/GCC/ARM_CM3/portmacro.h ****  *
  15:Middlewares/Third_Party/FreeRTOS/Source/portable/GCC/ARM_CM3/portmacro.h ****  * THE SOFTWARE IS PROVIDED "AS IS", WITHOUT WARRANTY OF ANY KIND, EXPRESS OR
  16:Middlewares/Third_Party/FreeRTOS/Source/portable/GCC/ARM_CM3/portmacro.h ****  * IMPLIED, INCLUDING BUT NOT LIMITED TO THE WARRANTIES OF MERCHANTABILITY, FITNESS
  17:Middlewares/Third_Party/FreeRTOS/Source/portable/GCC/ARM_CM3/portmacro.h ****  * FOR A PARTICULAR PURPOSE AND NONINFRINGEMENT. IN NO EVENT SHALL THE AUTHORS OR
  18:Middlewares/Third_Party/FreeRTOS/Source/portable/GCC/ARM_CM3/portmacro.h ****  * COPYRIGHT HOLDERS BE LIABLE FOR ANY CLAIM, DAMAGES OR OTHER LIABILITY, WHETHER
  19:Middlewares/Third_Party/FreeRTOS/Source/portable/GCC/ARM_CM3/portmacro.h ****  * IN AN ACTION OF CONTRACT, TORT OR OTHERWISE, ARISING FROM, OUT OF OR IN
  20:Middlewares/Third_Party/FreeRTOS/Source/portable/GCC/ARM_CM3/portmacro.h ****  * CONNECTION WITH THE SOFTWARE OR THE USE OR OTHER DEALINGS IN THE SOFTWARE.
  21:Middlewares/Third_Party/FreeRTOS/Source/portable/GCC/ARM_CM3/portmacro.h ****  *
  22:Middlewares/Third_Party/FreeRTOS/Source/portable/GCC/ARM_CM3/portmacro.h ****  * http://www.FreeRTOS.org
  23:Middlewares/Third_Party/FreeRTOS/Source/portable/GCC/ARM_CM3/portmacro.h ****  * http://aws.amazon.com/freertos
  24:Middlewares/Third_Party/FreeRTOS/Source/portable/GCC/ARM_CM3/portmacro.h ****  *
  25:Middlewares/Third_Party/FreeRTOS/Source/portable/GCC/ARM_CM3/portmacro.h ****  * 1 tab == 4 spaces!
  26:Middlewares/Third_Party/FreeRTOS/Source/portable/GCC/ARM_CM3/portmacro.h ****  */
  27:Middlewares/Third_Party/FreeRTOS/Source/portable/GCC/ARM_CM3/portmacro.h **** 
  28:Middlewares/Third_Party/FreeRTOS/Source/portable/GCC/ARM_CM3/portmacro.h **** 
  29:Middlewares/Third_Party/FreeRTOS/Source/portable/GCC/ARM_CM3/portmacro.h **** #ifndef PORTMACRO_H
  30:Middlewares/Third_Party/FreeRTOS/Source/portable/GCC/ARM_CM3/portmacro.h **** #define PORTMACRO_H
  31:Middlewares/Third_Party/FreeRTOS/Source/portable/GCC/ARM_CM3/portmacro.h **** 
  32:Middlewares/Third_Party/FreeRTOS/Source/portable/GCC/ARM_CM3/portmacro.h **** #ifdef __cplusplus
  33:Middlewares/Third_Party/FreeRTOS/Source/portable/GCC/ARM_CM3/portmacro.h **** extern "C" {
  34:Middlewares/Third_Party/FreeRTOS/Source/portable/GCC/ARM_CM3/portmacro.h **** #endif
  35:Middlewares/Third_Party/FreeRTOS/Source/portable/GCC/ARM_CM3/portmacro.h **** 
  36:Middlewares/Third_Party/FreeRTOS/Source/portable/GCC/ARM_CM3/portmacro.h **** /*-----------------------------------------------------------
  37:Middlewares/Third_Party/FreeRTOS/Source/portable/GCC/ARM_CM3/portmacro.h ****  * Port specific definitions.
  38:Middlewares/Third_Party/FreeRTOS/Source/portable/GCC/ARM_CM3/portmacro.h ****  *
  39:Middlewares/Third_Party/FreeRTOS/Source/portable/GCC/ARM_CM3/portmacro.h ****  * The settings in this file configure FreeRTOS correctly for the
  40:Middlewares/Third_Party/FreeRTOS/Source/portable/GCC/ARM_CM3/portmacro.h ****  * given hardware and compiler.
  41:Middlewares/Third_Party/FreeRTOS/Source/portable/GCC/ARM_CM3/portmacro.h ****  *
  42:Middlewares/Third_Party/FreeRTOS/Source/portable/GCC/ARM_CM3/portmacro.h ****  * These settings should not be altered.
  43:Middlewares/Third_Party/FreeRTOS/Source/portable/GCC/ARM_CM3/portmacro.h ****  *-----------------------------------------------------------
  44:Middlewares/Third_Party/FreeRTOS/Source/portable/GCC/ARM_CM3/portmacro.h ****  */
  45:Middlewares/Third_Party/FreeRTOS/Source/portable/GCC/ARM_CM3/portmacro.h **** 
  46:Middlewares/Third_Party/FreeRTOS/Source/portable/GCC/ARM_CM3/portmacro.h **** /* Type definitions. */
  47:Middlewares/Third_Party/FreeRTOS/Source/portable/GCC/ARM_CM3/portmacro.h **** #define portCHAR		char
  48:Middlewares/Third_Party/FreeRTOS/Source/portable/GCC/ARM_CM3/portmacro.h **** #define portFLOAT		float
  49:Middlewares/Third_Party/FreeRTOS/Source/portable/GCC/ARM_CM3/portmacro.h **** #define portDOUBLE		double
  50:Middlewares/Third_Party/FreeRTOS/Source/portable/GCC/ARM_CM3/portmacro.h **** #define portLONG		long
  51:Middlewares/Third_Party/FreeRTOS/Source/portable/GCC/ARM_CM3/portmacro.h **** #define portSHORT		short
  52:Middlewares/Third_Party/FreeRTOS/Source/portable/GCC/ARM_CM3/portmacro.h **** #define portSTACK_TYPE	uint32_t
  53:Middlewares/Third_Party/FreeRTOS/Source/portable/GCC/ARM_CM3/portmacro.h **** #define portBASE_TYPE	long
  54:Middlewares/Third_Party/FreeRTOS/Source/portable/GCC/ARM_CM3/portmacro.h **** 
  55:Middlewares/Third_Party/FreeRTOS/Source/portable/GCC/ARM_CM3/portmacro.h **** typedef portSTACK_TYPE StackType_t;
  56:Middlewares/Third_Party/FreeRTOS/Source/portable/GCC/ARM_CM3/portmacro.h **** typedef long BaseType_t;
  57:Middlewares/Third_Party/FreeRTOS/Source/portable/GCC/ARM_CM3/portmacro.h **** typedef unsigned long UBaseType_t;
  58:Middlewares/Third_Party/FreeRTOS/Source/portable/GCC/ARM_CM3/portmacro.h **** 
  59:Middlewares/Third_Party/FreeRTOS/Source/portable/GCC/ARM_CM3/portmacro.h **** #if( configUSE_16_BIT_TICKS == 1 )
  60:Middlewares/Third_Party/FreeRTOS/Source/portable/GCC/ARM_CM3/portmacro.h **** 	typedef uint16_t TickType_t;
  61:Middlewares/Third_Party/FreeRTOS/Source/portable/GCC/ARM_CM3/portmacro.h **** 	#define portMAX_DELAY ( TickType_t ) 0xffff
  62:Middlewares/Third_Party/FreeRTOS/Source/portable/GCC/ARM_CM3/portmacro.h **** #else
  63:Middlewares/Third_Party/FreeRTOS/Source/portable/GCC/ARM_CM3/portmacro.h **** 	typedef uint32_t TickType_t;
  64:Middlewares/Third_Party/FreeRTOS/Source/portable/GCC/ARM_CM3/portmacro.h **** 	#define portMAX_DELAY ( TickType_t ) 0xffffffffUL
  65:Middlewares/Third_Party/FreeRTOS/Source/portable/GCC/ARM_CM3/portmacro.h **** 
ARM GAS  /tmp/ccvFwc0s.s 			page 24


  66:Middlewares/Third_Party/FreeRTOS/Source/portable/GCC/ARM_CM3/portmacro.h **** 	/* 32-bit tick type on a 32-bit architecture, so reads of the tick count do
  67:Middlewares/Third_Party/FreeRTOS/Source/portable/GCC/ARM_CM3/portmacro.h **** 	not need to be guarded with a critical section. */
  68:Middlewares/Third_Party/FreeRTOS/Source/portable/GCC/ARM_CM3/portmacro.h **** 	#define portTICK_TYPE_IS_ATOMIC 1
  69:Middlewares/Third_Party/FreeRTOS/Source/portable/GCC/ARM_CM3/portmacro.h **** #endif
  70:Middlewares/Third_Party/FreeRTOS/Source/portable/GCC/ARM_CM3/portmacro.h **** /*-----------------------------------------------------------*/
  71:Middlewares/Third_Party/FreeRTOS/Source/portable/GCC/ARM_CM3/portmacro.h **** 
  72:Middlewares/Third_Party/FreeRTOS/Source/portable/GCC/ARM_CM3/portmacro.h **** /* Architecture specifics. */
  73:Middlewares/Third_Party/FreeRTOS/Source/portable/GCC/ARM_CM3/portmacro.h **** #define portSTACK_GROWTH			( -1 )
  74:Middlewares/Third_Party/FreeRTOS/Source/portable/GCC/ARM_CM3/portmacro.h **** #define portTICK_PERIOD_MS			( ( TickType_t ) 1000 / configTICK_RATE_HZ )
  75:Middlewares/Third_Party/FreeRTOS/Source/portable/GCC/ARM_CM3/portmacro.h **** #define portBYTE_ALIGNMENT			8
  76:Middlewares/Third_Party/FreeRTOS/Source/portable/GCC/ARM_CM3/portmacro.h **** /*-----------------------------------------------------------*/
  77:Middlewares/Third_Party/FreeRTOS/Source/portable/GCC/ARM_CM3/portmacro.h **** 
  78:Middlewares/Third_Party/FreeRTOS/Source/portable/GCC/ARM_CM3/portmacro.h **** /* Scheduler utilities. */
  79:Middlewares/Third_Party/FreeRTOS/Source/portable/GCC/ARM_CM3/portmacro.h **** #define portYIELD() 															\
  80:Middlewares/Third_Party/FreeRTOS/Source/portable/GCC/ARM_CM3/portmacro.h **** {																				\
  81:Middlewares/Third_Party/FreeRTOS/Source/portable/GCC/ARM_CM3/portmacro.h **** 	/* Set a PendSV to request a context switch. */								\
  82:Middlewares/Third_Party/FreeRTOS/Source/portable/GCC/ARM_CM3/portmacro.h **** 	portNVIC_INT_CTRL_REG = portNVIC_PENDSVSET_BIT;								\
  83:Middlewares/Third_Party/FreeRTOS/Source/portable/GCC/ARM_CM3/portmacro.h **** 																				\
  84:Middlewares/Third_Party/FreeRTOS/Source/portable/GCC/ARM_CM3/portmacro.h **** 	/* Barriers are normally not required but do ensure the code is completely	\
  85:Middlewares/Third_Party/FreeRTOS/Source/portable/GCC/ARM_CM3/portmacro.h **** 	within the specified behaviour for the architecture. */						\
  86:Middlewares/Third_Party/FreeRTOS/Source/portable/GCC/ARM_CM3/portmacro.h **** 	__asm volatile( "dsb" ::: "memory" );										\
  87:Middlewares/Third_Party/FreeRTOS/Source/portable/GCC/ARM_CM3/portmacro.h **** 	__asm volatile( "isb" );													\
  88:Middlewares/Third_Party/FreeRTOS/Source/portable/GCC/ARM_CM3/portmacro.h **** }
  89:Middlewares/Third_Party/FreeRTOS/Source/portable/GCC/ARM_CM3/portmacro.h **** 
  90:Middlewares/Third_Party/FreeRTOS/Source/portable/GCC/ARM_CM3/portmacro.h **** #define portNVIC_INT_CTRL_REG		( * ( ( volatile uint32_t * ) 0xe000ed04 ) )
  91:Middlewares/Third_Party/FreeRTOS/Source/portable/GCC/ARM_CM3/portmacro.h **** #define portNVIC_PENDSVSET_BIT		( 1UL << 28UL )
  92:Middlewares/Third_Party/FreeRTOS/Source/portable/GCC/ARM_CM3/portmacro.h **** #define portEND_SWITCHING_ISR( xSwitchRequired ) if( xSwitchRequired != pdFALSE ) portYIELD()
  93:Middlewares/Third_Party/FreeRTOS/Source/portable/GCC/ARM_CM3/portmacro.h **** #define portYIELD_FROM_ISR( x ) portEND_SWITCHING_ISR( x )
  94:Middlewares/Third_Party/FreeRTOS/Source/portable/GCC/ARM_CM3/portmacro.h **** /*-----------------------------------------------------------*/
  95:Middlewares/Third_Party/FreeRTOS/Source/portable/GCC/ARM_CM3/portmacro.h **** 
  96:Middlewares/Third_Party/FreeRTOS/Source/portable/GCC/ARM_CM3/portmacro.h **** /* Critical section management. */
  97:Middlewares/Third_Party/FreeRTOS/Source/portable/GCC/ARM_CM3/portmacro.h **** extern void vPortEnterCritical( void );
  98:Middlewares/Third_Party/FreeRTOS/Source/portable/GCC/ARM_CM3/portmacro.h **** extern void vPortExitCritical( void );
  99:Middlewares/Third_Party/FreeRTOS/Source/portable/GCC/ARM_CM3/portmacro.h **** #define portSET_INTERRUPT_MASK_FROM_ISR()		ulPortRaiseBASEPRI()
 100:Middlewares/Third_Party/FreeRTOS/Source/portable/GCC/ARM_CM3/portmacro.h **** #define portCLEAR_INTERRUPT_MASK_FROM_ISR(x)	vPortSetBASEPRI(x)
 101:Middlewares/Third_Party/FreeRTOS/Source/portable/GCC/ARM_CM3/portmacro.h **** #define portDISABLE_INTERRUPTS()				vPortRaiseBASEPRI()
 102:Middlewares/Third_Party/FreeRTOS/Source/portable/GCC/ARM_CM3/portmacro.h **** #define portENABLE_INTERRUPTS()					vPortSetBASEPRI(0)
 103:Middlewares/Third_Party/FreeRTOS/Source/portable/GCC/ARM_CM3/portmacro.h **** #define portENTER_CRITICAL()					vPortEnterCritical()
 104:Middlewares/Third_Party/FreeRTOS/Source/portable/GCC/ARM_CM3/portmacro.h **** #define portEXIT_CRITICAL()						vPortExitCritical()
 105:Middlewares/Third_Party/FreeRTOS/Source/portable/GCC/ARM_CM3/portmacro.h **** 
 106:Middlewares/Third_Party/FreeRTOS/Source/portable/GCC/ARM_CM3/portmacro.h **** /*-----------------------------------------------------------*/
 107:Middlewares/Third_Party/FreeRTOS/Source/portable/GCC/ARM_CM3/portmacro.h **** 
 108:Middlewares/Third_Party/FreeRTOS/Source/portable/GCC/ARM_CM3/portmacro.h **** /* Task function macros as described on the FreeRTOS.org WEB site.  These are
 109:Middlewares/Third_Party/FreeRTOS/Source/portable/GCC/ARM_CM3/portmacro.h **** not necessary for to use this port.  They are defined so the common demo files
 110:Middlewares/Third_Party/FreeRTOS/Source/portable/GCC/ARM_CM3/portmacro.h **** (which build with all the ports) will build. */
 111:Middlewares/Third_Party/FreeRTOS/Source/portable/GCC/ARM_CM3/portmacro.h **** #define portTASK_FUNCTION_PROTO( vFunction, pvParameters ) void vFunction( void *pvParameters )
 112:Middlewares/Third_Party/FreeRTOS/Source/portable/GCC/ARM_CM3/portmacro.h **** #define portTASK_FUNCTION( vFunction, pvParameters ) void vFunction( void *pvParameters )
 113:Middlewares/Third_Party/FreeRTOS/Source/portable/GCC/ARM_CM3/portmacro.h **** /*-----------------------------------------------------------*/
 114:Middlewares/Third_Party/FreeRTOS/Source/portable/GCC/ARM_CM3/portmacro.h **** 
 115:Middlewares/Third_Party/FreeRTOS/Source/portable/GCC/ARM_CM3/portmacro.h **** /* Tickless idle/low power functionality. */
 116:Middlewares/Third_Party/FreeRTOS/Source/portable/GCC/ARM_CM3/portmacro.h **** #ifndef portSUPPRESS_TICKS_AND_SLEEP
 117:Middlewares/Third_Party/FreeRTOS/Source/portable/GCC/ARM_CM3/portmacro.h **** 	extern void vPortSuppressTicksAndSleep( TickType_t xExpectedIdleTime );
 118:Middlewares/Third_Party/FreeRTOS/Source/portable/GCC/ARM_CM3/portmacro.h **** 	#define portSUPPRESS_TICKS_AND_SLEEP( xExpectedIdleTime ) vPortSuppressTicksAndSleep( xExpectedIdl
 119:Middlewares/Third_Party/FreeRTOS/Source/portable/GCC/ARM_CM3/portmacro.h **** #endif
 120:Middlewares/Third_Party/FreeRTOS/Source/portable/GCC/ARM_CM3/portmacro.h **** /*-----------------------------------------------------------*/
 121:Middlewares/Third_Party/FreeRTOS/Source/portable/GCC/ARM_CM3/portmacro.h **** 
 122:Middlewares/Third_Party/FreeRTOS/Source/portable/GCC/ARM_CM3/portmacro.h **** /* Architecture specific optimisations. */
ARM GAS  /tmp/ccvFwc0s.s 			page 25


 123:Middlewares/Third_Party/FreeRTOS/Source/portable/GCC/ARM_CM3/portmacro.h **** #ifndef configUSE_PORT_OPTIMISED_TASK_SELECTION
 124:Middlewares/Third_Party/FreeRTOS/Source/portable/GCC/ARM_CM3/portmacro.h **** 	#define configUSE_PORT_OPTIMISED_TASK_SELECTION 1
 125:Middlewares/Third_Party/FreeRTOS/Source/portable/GCC/ARM_CM3/portmacro.h **** #endif
 126:Middlewares/Third_Party/FreeRTOS/Source/portable/GCC/ARM_CM3/portmacro.h **** 
 127:Middlewares/Third_Party/FreeRTOS/Source/portable/GCC/ARM_CM3/portmacro.h **** #if configUSE_PORT_OPTIMISED_TASK_SELECTION == 1
 128:Middlewares/Third_Party/FreeRTOS/Source/portable/GCC/ARM_CM3/portmacro.h **** 
 129:Middlewares/Third_Party/FreeRTOS/Source/portable/GCC/ARM_CM3/portmacro.h **** 	/* Generic helper function. */
 130:Middlewares/Third_Party/FreeRTOS/Source/portable/GCC/ARM_CM3/portmacro.h **** 	__attribute__( ( always_inline ) ) static inline uint8_t ucPortCountLeadingZeros( uint32_t ulBitma
 131:Middlewares/Third_Party/FreeRTOS/Source/portable/GCC/ARM_CM3/portmacro.h **** 	{
 132:Middlewares/Third_Party/FreeRTOS/Source/portable/GCC/ARM_CM3/portmacro.h **** 	uint8_t ucReturn;
 133:Middlewares/Third_Party/FreeRTOS/Source/portable/GCC/ARM_CM3/portmacro.h **** 
 134:Middlewares/Third_Party/FreeRTOS/Source/portable/GCC/ARM_CM3/portmacro.h **** 		__asm volatile ( "clz %0, %1" : "=r" ( ucReturn ) : "r" ( ulBitmap ) : "memory" );
 135:Middlewares/Third_Party/FreeRTOS/Source/portable/GCC/ARM_CM3/portmacro.h **** 		return ucReturn;
 136:Middlewares/Third_Party/FreeRTOS/Source/portable/GCC/ARM_CM3/portmacro.h **** 	}
 137:Middlewares/Third_Party/FreeRTOS/Source/portable/GCC/ARM_CM3/portmacro.h **** 
 138:Middlewares/Third_Party/FreeRTOS/Source/portable/GCC/ARM_CM3/portmacro.h **** 	/* Check the configuration. */
 139:Middlewares/Third_Party/FreeRTOS/Source/portable/GCC/ARM_CM3/portmacro.h **** 	#if( configMAX_PRIORITIES > 32 )
 140:Middlewares/Third_Party/FreeRTOS/Source/portable/GCC/ARM_CM3/portmacro.h **** 		#error configUSE_PORT_OPTIMISED_TASK_SELECTION can only be set to 1 when configMAX_PRIORITIES is 
 141:Middlewares/Third_Party/FreeRTOS/Source/portable/GCC/ARM_CM3/portmacro.h **** 	#endif
 142:Middlewares/Third_Party/FreeRTOS/Source/portable/GCC/ARM_CM3/portmacro.h **** 
 143:Middlewares/Third_Party/FreeRTOS/Source/portable/GCC/ARM_CM3/portmacro.h **** 	/* Store/clear the ready priorities in a bit map. */
 144:Middlewares/Third_Party/FreeRTOS/Source/portable/GCC/ARM_CM3/portmacro.h **** 	#define portRECORD_READY_PRIORITY( uxPriority, uxReadyPriorities ) ( uxReadyPriorities ) |= ( 1UL 
 145:Middlewares/Third_Party/FreeRTOS/Source/portable/GCC/ARM_CM3/portmacro.h **** 	#define portRESET_READY_PRIORITY( uxPriority, uxReadyPriorities ) ( uxReadyPriorities ) &= ~( 1UL 
 146:Middlewares/Third_Party/FreeRTOS/Source/portable/GCC/ARM_CM3/portmacro.h **** 
 147:Middlewares/Third_Party/FreeRTOS/Source/portable/GCC/ARM_CM3/portmacro.h **** 	/*-----------------------------------------------------------*/
 148:Middlewares/Third_Party/FreeRTOS/Source/portable/GCC/ARM_CM3/portmacro.h **** 
 149:Middlewares/Third_Party/FreeRTOS/Source/portable/GCC/ARM_CM3/portmacro.h **** 	#define portGET_HIGHEST_PRIORITY( uxTopPriority, uxReadyPriorities ) uxTopPriority = ( 31UL - ( ui
 150:Middlewares/Third_Party/FreeRTOS/Source/portable/GCC/ARM_CM3/portmacro.h **** 
 151:Middlewares/Third_Party/FreeRTOS/Source/portable/GCC/ARM_CM3/portmacro.h **** #endif /* configUSE_PORT_OPTIMISED_TASK_SELECTION */
 152:Middlewares/Third_Party/FreeRTOS/Source/portable/GCC/ARM_CM3/portmacro.h **** 
 153:Middlewares/Third_Party/FreeRTOS/Source/portable/GCC/ARM_CM3/portmacro.h **** /*-----------------------------------------------------------*/
 154:Middlewares/Third_Party/FreeRTOS/Source/portable/GCC/ARM_CM3/portmacro.h **** 
 155:Middlewares/Third_Party/FreeRTOS/Source/portable/GCC/ARM_CM3/portmacro.h **** #ifdef configASSERT
 156:Middlewares/Third_Party/FreeRTOS/Source/portable/GCC/ARM_CM3/portmacro.h **** 	void vPortValidateInterruptPriority( void );
 157:Middlewares/Third_Party/FreeRTOS/Source/portable/GCC/ARM_CM3/portmacro.h **** 	#define portASSERT_IF_INTERRUPT_PRIORITY_INVALID() 	vPortValidateInterruptPriority()
 158:Middlewares/Third_Party/FreeRTOS/Source/portable/GCC/ARM_CM3/portmacro.h **** #endif
 159:Middlewares/Third_Party/FreeRTOS/Source/portable/GCC/ARM_CM3/portmacro.h **** 
 160:Middlewares/Third_Party/FreeRTOS/Source/portable/GCC/ARM_CM3/portmacro.h **** /* portNOP() is not required by this port. */
 161:Middlewares/Third_Party/FreeRTOS/Source/portable/GCC/ARM_CM3/portmacro.h **** #define portNOP()
 162:Middlewares/Third_Party/FreeRTOS/Source/portable/GCC/ARM_CM3/portmacro.h **** 
 163:Middlewares/Third_Party/FreeRTOS/Source/portable/GCC/ARM_CM3/portmacro.h **** #define portINLINE	__inline
 164:Middlewares/Third_Party/FreeRTOS/Source/portable/GCC/ARM_CM3/portmacro.h **** 
 165:Middlewares/Third_Party/FreeRTOS/Source/portable/GCC/ARM_CM3/portmacro.h **** #ifndef portFORCE_INLINE
 166:Middlewares/Third_Party/FreeRTOS/Source/portable/GCC/ARM_CM3/portmacro.h **** 	#define portFORCE_INLINE inline __attribute__(( always_inline))
 167:Middlewares/Third_Party/FreeRTOS/Source/portable/GCC/ARM_CM3/portmacro.h **** #endif
 168:Middlewares/Third_Party/FreeRTOS/Source/portable/GCC/ARM_CM3/portmacro.h **** 
 169:Middlewares/Third_Party/FreeRTOS/Source/portable/GCC/ARM_CM3/portmacro.h **** portFORCE_INLINE static BaseType_t xPortIsInsideInterrupt( void )
 170:Middlewares/Third_Party/FreeRTOS/Source/portable/GCC/ARM_CM3/portmacro.h **** {
 171:Middlewares/Third_Party/FreeRTOS/Source/portable/GCC/ARM_CM3/portmacro.h **** uint32_t ulCurrentInterrupt;
 172:Middlewares/Third_Party/FreeRTOS/Source/portable/GCC/ARM_CM3/portmacro.h **** BaseType_t xReturn;
 173:Middlewares/Third_Party/FreeRTOS/Source/portable/GCC/ARM_CM3/portmacro.h **** 
 174:Middlewares/Third_Party/FreeRTOS/Source/portable/GCC/ARM_CM3/portmacro.h **** 	/* Obtain the number of the currently executing interrupt. */
 175:Middlewares/Third_Party/FreeRTOS/Source/portable/GCC/ARM_CM3/portmacro.h **** 	__asm volatile( "mrs %0, ipsr" : "=r"( ulCurrentInterrupt ) :: "memory" );
 176:Middlewares/Third_Party/FreeRTOS/Source/portable/GCC/ARM_CM3/portmacro.h **** 
 177:Middlewares/Third_Party/FreeRTOS/Source/portable/GCC/ARM_CM3/portmacro.h **** 	if( ulCurrentInterrupt == 0 )
 178:Middlewares/Third_Party/FreeRTOS/Source/portable/GCC/ARM_CM3/portmacro.h **** 	{
 179:Middlewares/Third_Party/FreeRTOS/Source/portable/GCC/ARM_CM3/portmacro.h **** 		xReturn = pdFALSE;
ARM GAS  /tmp/ccvFwc0s.s 			page 26


 180:Middlewares/Third_Party/FreeRTOS/Source/portable/GCC/ARM_CM3/portmacro.h **** 	}
 181:Middlewares/Third_Party/FreeRTOS/Source/portable/GCC/ARM_CM3/portmacro.h **** 	else
 182:Middlewares/Third_Party/FreeRTOS/Source/portable/GCC/ARM_CM3/portmacro.h **** 	{
 183:Middlewares/Third_Party/FreeRTOS/Source/portable/GCC/ARM_CM3/portmacro.h **** 		xReturn = pdTRUE;
 184:Middlewares/Third_Party/FreeRTOS/Source/portable/GCC/ARM_CM3/portmacro.h **** 	}
 185:Middlewares/Third_Party/FreeRTOS/Source/portable/GCC/ARM_CM3/portmacro.h **** 
 186:Middlewares/Third_Party/FreeRTOS/Source/portable/GCC/ARM_CM3/portmacro.h **** 	return xReturn;
 187:Middlewares/Third_Party/FreeRTOS/Source/portable/GCC/ARM_CM3/portmacro.h **** }
 188:Middlewares/Third_Party/FreeRTOS/Source/portable/GCC/ARM_CM3/portmacro.h **** 
 189:Middlewares/Third_Party/FreeRTOS/Source/portable/GCC/ARM_CM3/portmacro.h **** /*-----------------------------------------------------------*/
 190:Middlewares/Third_Party/FreeRTOS/Source/portable/GCC/ARM_CM3/portmacro.h **** 
 191:Middlewares/Third_Party/FreeRTOS/Source/portable/GCC/ARM_CM3/portmacro.h **** portFORCE_INLINE static void vPortRaiseBASEPRI( void )
 192:Middlewares/Third_Party/FreeRTOS/Source/portable/GCC/ARM_CM3/portmacro.h **** {
 193:Middlewares/Third_Party/FreeRTOS/Source/portable/GCC/ARM_CM3/portmacro.h **** uint32_t ulNewBASEPRI;
 194:Middlewares/Third_Party/FreeRTOS/Source/portable/GCC/ARM_CM3/portmacro.h **** 
 195:Middlewares/Third_Party/FreeRTOS/Source/portable/GCC/ARM_CM3/portmacro.h **** 	__asm volatile
  94              		.loc 2 195 0
  95              		.syntax unified
  96              	@ 195 "Middlewares/Third_Party/FreeRTOS/Source/portable/GCC/ARM_CM3/portmacro.h" 1
  97 0016 4FF05003 			mov r3, #80												
  98 001a 83F31188 		msr basepri, r3											
  99 001e BFF36F8F 		isb														
 100 0022 BFF34F8F 		dsb														
 101              	
 102              	@ 0 "" 2
 103              	.LVL10:
 104              		.thumb
 105              		.syntax unified
 106              	.L5:
 107 0026 FEE7     		b	.L5
 108              	.L4:
 109              	.LBE90:
 110              	.LBE89:
 111              	.LBE88:
1157:Middlewares/Third_Party/FreeRTOS/Source/stream_buffer.c **** 	}
1158:Middlewares/Third_Party/FreeRTOS/Source/stream_buffer.c **** 	#endif
1159:Middlewares/Third_Party/FreeRTOS/Source/stream_buffer.c **** 
1160:Middlewares/Third_Party/FreeRTOS/Source/stream_buffer.c **** 	memset( ( void * ) pxStreamBuffer, 0x00, sizeof( StreamBuffer_t ) ); /*lint !e9087 memset() requir
 112              		.loc 1 1160 0
 113 0028 2422     		movs	r2, #36
 114 002a 0021     		movs	r1, #0
 115 002c 2046     		mov	r0, r4
 116 002e FFF7FEFF 		bl	memset
 117              	.LVL11:
1161:Middlewares/Third_Party/FreeRTOS/Source/stream_buffer.c **** 	pxStreamBuffer->pucBuffer = pucBuffer;
 118              		.loc 1 1161 0
 119 0032 A561     		str	r5, [r4, #24]
1162:Middlewares/Third_Party/FreeRTOS/Source/stream_buffer.c **** 	pxStreamBuffer->xLength = xBufferSizeBytes;
 120              		.loc 1 1162 0
 121 0034 A660     		str	r6, [r4, #8]
1163:Middlewares/Third_Party/FreeRTOS/Source/stream_buffer.c **** 	pxStreamBuffer->xTriggerLevelBytes = xTriggerLevelBytes;
 122              		.loc 1 1163 0
 123 0036 E760     		str	r7, [r4, #12]
1164:Middlewares/Third_Party/FreeRTOS/Source/stream_buffer.c **** 
1165:Middlewares/Third_Party/FreeRTOS/Source/stream_buffer.c **** 	if( xIsMessageBuffer != pdFALSE )
 124              		.loc 1 1165 0
 125 0038 069B     		ldr	r3, [sp, #24]
ARM GAS  /tmp/ccvFwc0s.s 			page 27


 126 003a 1BB1     		cbz	r3, .L3
1166:Middlewares/Third_Party/FreeRTOS/Source/stream_buffer.c **** 	{
1167:Middlewares/Third_Party/FreeRTOS/Source/stream_buffer.c **** 		pxStreamBuffer->ucFlags |= sbFLAGS_IS_MESSAGE_BUFFER;
 127              		.loc 1 1167 0
 128 003c 237F     		ldrb	r3, [r4, #28]	@ zero_extendqisi2
 129 003e 43F00103 		orr	r3, r3, #1
 130 0042 2377     		strb	r3, [r4, #28]
 131              	.L3:
 132 0044 F8BD     		pop	{r3, r4, r5, r6, r7, pc}
 133              		.cfi_endproc
 134              	.LFE24:
 136              		.section	.text.prvWriteBytesToBuffer,"ax",%progbits
 137              		.align	1
 138              		.syntax unified
 139              		.thumb
 140              		.thumb_func
 141              		.fpu softvfp
 143              	prvWriteBytesToBuffer:
 144              	.LFB21:
1021:Middlewares/Third_Party/FreeRTOS/Source/stream_buffer.c **** size_t xNextHead, xFirstLength;
 145              		.loc 1 1021 0
 146              		.cfi_startproc
 147              		@ args = 0, pretend = 0, frame = 0
 148              		@ frame_needed = 0, uses_anonymous_args = 0
 149              	.LVL12:
1024:Middlewares/Third_Party/FreeRTOS/Source/stream_buffer.c **** 
 150              		.loc 1 1024 0
 151 0000 42B9     		cbnz	r2, .L9
 152              	.LBB91:
 153              	.LBB92:
 154              		.loc 2 195 0
 155              		.syntax unified
 156              	@ 195 "Middlewares/Third_Party/FreeRTOS/Source/portable/GCC/ARM_CM3/portmacro.h" 1
 157 0002 4FF05003 			mov r3, #80												
 158 0006 83F31188 		msr basepri, r3											
 159 000a BFF36F8F 		isb														
 160 000e BFF34F8F 		dsb														
 161              	
 162              	@ 0 "" 2
 163              	.LVL13:
 164              		.thumb
 165              		.syntax unified
 166              	.L10:
 167 0012 FEE7     		b	.L10
 168              	.L9:
 169              	.LBE92:
 170              	.LBE91:
1021:Middlewares/Third_Party/FreeRTOS/Source/stream_buffer.c **** size_t xNextHead, xFirstLength;
 171              		.loc 1 1021 0
 172 0014 2DE9F041 		push	{r4, r5, r6, r7, r8, lr}
 173              	.LCFI1:
 174              		.cfi_def_cfa_offset 24
 175              		.cfi_offset 4, -24
 176              		.cfi_offset 5, -20
 177              		.cfi_offset 6, -16
 178              		.cfi_offset 7, -12
 179              		.cfi_offset 8, -8
ARM GAS  /tmp/ccvFwc0s.s 			page 28


 180              		.cfi_offset 14, -4
 181 0018 1746     		mov	r7, r2
1026:Middlewares/Third_Party/FreeRTOS/Source/stream_buffer.c **** 
 182              		.loc 1 1026 0
 183 001a 4668     		ldr	r6, [r0, #4]
 184              	.LVL14:
1031:Middlewares/Third_Party/FreeRTOS/Source/stream_buffer.c **** 
 185              		.loc 1 1031 0
 186 001c 8368     		ldr	r3, [r0, #8]
 187 001e A3EB0608 		sub	r8, r3, r6
 188 0022 9045     		cmp	r8, r2
 189 0024 28BF     		it	cs
 190 0026 9046     		movcs	r8, r2
 191              	.LVL15:
1034:Middlewares/Third_Party/FreeRTOS/Source/stream_buffer.c **** 	memcpy( ( void* ) ( &( pxStreamBuffer->pucBuffer[ xNextHead ] ) ), ( const void * ) pucData, xFirs
 192              		.loc 1 1034 0
 193 0028 06EB0802 		add	r2, r6, r8
 194              	.LVL16:
 195 002c 9342     		cmp	r3, r2
 196 002e 08D2     		bcs	.L11
 197              	.LBB93:
 198              	.LBB94:
 199              		.loc 2 195 0
 200              		.syntax unified
 201              	@ 195 "Middlewares/Third_Party/FreeRTOS/Source/portable/GCC/ARM_CM3/portmacro.h" 1
 202 0030 4FF05003 			mov r3, #80												
 203 0034 83F31188 		msr basepri, r3											
 204 0038 BFF36F8F 		isb														
 205 003c BFF34F8F 		dsb														
 206              	
 207              	@ 0 "" 2
 208              	.LVL17:
 209              		.thumb
 210              		.syntax unified
 211              	.L12:
 212 0040 FEE7     		b	.L12
 213              	.L11:
 214 0042 0D46     		mov	r5, r1
 215 0044 0446     		mov	r4, r0
 216              	.LBE94:
 217              	.LBE93:
1035:Middlewares/Third_Party/FreeRTOS/Source/stream_buffer.c **** 
 218              		.loc 1 1035 0
 219 0046 8069     		ldr	r0, [r0, #24]
 220              	.LVL18:
 221 0048 4246     		mov	r2, r8
 222 004a 3044     		add	r0, r0, r6
 223 004c FFF7FEFF 		bl	memcpy
 224              	.LVL19:
1039:Middlewares/Third_Party/FreeRTOS/Source/stream_buffer.c **** 	{
 225              		.loc 1 1039 0
 226 0050 4745     		cmp	r7, r8
 227 0052 12D9     		bls	.L13
1042:Middlewares/Third_Party/FreeRTOS/Source/stream_buffer.c **** 		memcpy( ( void * ) pxStreamBuffer->pucBuffer, ( const void * ) &( pucData[ xFirstLength ] ), xCou
 228              		.loc 1 1042 0
 229 0054 A7EB0802 		sub	r2, r7, r8
 230 0058 A368     		ldr	r3, [r4, #8]
ARM GAS  /tmp/ccvFwc0s.s 			page 29


 231 005a 9A42     		cmp	r2, r3
 232 005c 08D9     		bls	.L14
 233              	.LBB95:
 234              	.LBB96:
 235              		.loc 2 195 0
 236              		.syntax unified
 237              	@ 195 "Middlewares/Third_Party/FreeRTOS/Source/portable/GCC/ARM_CM3/portmacro.h" 1
 238 005e 4FF05003 			mov r3, #80												
 239 0062 83F31188 		msr basepri, r3											
 240 0066 BFF36F8F 		isb														
 241 006a BFF34F8F 		dsb														
 242              	
 243              	@ 0 "" 2
 244              	.LVL20:
 245              		.thumb
 246              		.syntax unified
 247              	.L15:
 248 006e FEE7     		b	.L15
 249              	.L14:
 250              	.LBE96:
 251              	.LBE95:
1043:Middlewares/Third_Party/FreeRTOS/Source/stream_buffer.c **** 	}
 252              		.loc 1 1043 0
 253 0070 05EB0801 		add	r1, r5, r8
 254 0074 A069     		ldr	r0, [r4, #24]
 255 0076 FFF7FEFF 		bl	memcpy
 256              	.LVL21:
 257              	.L13:
1050:Middlewares/Third_Party/FreeRTOS/Source/stream_buffer.c **** 	if( xNextHead >= pxStreamBuffer->xLength )
 258              		.loc 1 1050 0
 259 007a 3E44     		add	r6, r6, r7
 260              	.LVL22:
1051:Middlewares/Third_Party/FreeRTOS/Source/stream_buffer.c **** 	{
 261              		.loc 1 1051 0
 262 007c A268     		ldr	r2, [r4, #8]
 263 007e 9642     		cmp	r6, r2
 264 0080 00D3     		bcc	.L16
1053:Middlewares/Third_Party/FreeRTOS/Source/stream_buffer.c **** 	}
 265              		.loc 1 1053 0
 266 0082 B61A     		subs	r6, r6, r2
 267              	.LVL23:
 268              	.L16:
1060:Middlewares/Third_Party/FreeRTOS/Source/stream_buffer.c **** 
 269              		.loc 1 1060 0
 270 0084 6660     		str	r6, [r4, #4]
1063:Middlewares/Third_Party/FreeRTOS/Source/stream_buffer.c **** /*-----------------------------------------------------------*/
 271              		.loc 1 1063 0
 272 0086 3846     		mov	r0, r7
 273 0088 BDE8F081 		pop	{r4, r5, r6, r7, r8, pc}
 274              		.cfi_endproc
 275              	.LFE21:
 277              		.section	.text.prvWriteMessageToBuffer,"ax",%progbits
 278              		.align	1
 279              		.syntax unified
 280              		.thumb
 281              		.thumb_func
 282              		.fpu softvfp
ARM GAS  /tmp/ccvFwc0s.s 			page 30


 284              	prvWriteMessageToBuffer:
 285              	.LFB13:
 644:Middlewares/Third_Party/FreeRTOS/Source/stream_buffer.c **** 	BaseType_t xShouldWrite;
 286              		.loc 1 644 0
 287              		.cfi_startproc
 288              		@ args = 4, pretend = 0, frame = 8
 289              		@ frame_needed = 0, uses_anonymous_args = 0
 290              	.LVL24:
 291 0000 30B5     		push	{r4, r5, lr}
 292              	.LCFI2:
 293              		.cfi_def_cfa_offset 12
 294              		.cfi_offset 4, -12
 295              		.cfi_offset 5, -8
 296              		.cfi_offset 14, -4
 297 0002 83B0     		sub	sp, sp, #12
 298              	.LCFI3:
 299              		.cfi_def_cfa_offset 24
 300 0004 0446     		mov	r4, r0
 301 0006 0D46     		mov	r5, r1
 302 0008 0192     		str	r2, [sp, #4]
 648:Middlewares/Third_Party/FreeRTOS/Source/stream_buffer.c **** 	{
 303              		.loc 1 648 0
 304 000a BBB1     		cbz	r3, .L23
 305 000c 1A46     		mov	r2, r3
 306              	.LVL25:
 654:Middlewares/Third_Party/FreeRTOS/Source/stream_buffer.c **** 	{
 307              		.loc 1 654 0
 308 000e 037F     		ldrb	r3, [r0, #28]	@ zero_extendqisi2
 309              	.LVL26:
 310 0010 13F0010F 		tst	r3, #1
 311 0014 06D1     		bne	.L21
 312              	.LVL27:
 660:Middlewares/Third_Party/FreeRTOS/Source/stream_buffer.c **** 	}
 313              		.loc 1 660 0
 314 0016 019B     		ldr	r3, [sp, #4]
 315 0018 9A42     		cmp	r2, r3
 316 001a 28BF     		it	cs
 317 001c 1A46     		movcs	r2, r3
 318              	.LVL28:
 319 001e 0192     		str	r2, [sp, #4]
 320              	.LVL29:
 659:Middlewares/Third_Party/FreeRTOS/Source/stream_buffer.c **** 		xDataLengthBytes = configMIN( xDataLengthBytes, xSpace ); /*lint !e9044 Function parameter modifi
 321              		.loc 1 659 0
 322 0020 0123     		movs	r3, #1
 323              	.LVL30:
 324 0022 0CE0     		b	.L20
 325              	.LVL31:
 326              	.L21:
 662:Middlewares/Third_Party/FreeRTOS/Source/stream_buffer.c **** 	{
 327              		.loc 1 662 0
 328 0024 069B     		ldr	r3, [sp, #24]
 329 0026 9A42     		cmp	r2, r3
 330 0028 01D2     		bcs	.L27
 674:Middlewares/Third_Party/FreeRTOS/Source/stream_buffer.c **** 	}
 331              		.loc 1 674 0
 332 002a 0023     		movs	r3, #0
 333 002c 07E0     		b	.L20
ARM GAS  /tmp/ccvFwc0s.s 			page 31


 334              	.L27:
 335              	.LVL32:
 669:Middlewares/Third_Party/FreeRTOS/Source/stream_buffer.c **** 	}
 336              		.loc 1 669 0
 337 002e 0422     		movs	r2, #4
 338              	.LVL33:
 339 0030 0DEB0201 		add	r1, sp, r2
 340              	.LVL34:
 341 0034 FFF7FEFF 		bl	prvWriteBytesToBuffer
 342              	.LVL35:
 668:Middlewares/Third_Party/FreeRTOS/Source/stream_buffer.c **** 		( void ) prvWriteBytesToBuffer( pxStreamBuffer, ( const uint8_t * ) &( xDataLengthBytes ), sbBYTE
 343              		.loc 1 668 0
 344 0038 0123     		movs	r3, #1
 345 003a 00E0     		b	.L20
 346              	.LVL36:
 347              	.L23:
 652:Middlewares/Third_Party/FreeRTOS/Source/stream_buffer.c **** 	}
 348              		.loc 1 652 0
 349 003c 0023     		movs	r3, #0
 350              	.LVL37:
 351              	.L20:
 677:Middlewares/Third_Party/FreeRTOS/Source/stream_buffer.c **** 	{
 352              		.loc 1 677 0
 353 003e 13B9     		cbnz	r3, .L28
 684:Middlewares/Third_Party/FreeRTOS/Source/stream_buffer.c **** 	}
 354              		.loc 1 684 0
 355 0040 0020     		movs	r0, #0
 356              	.LVL38:
 357              	.L19:
 688:Middlewares/Third_Party/FreeRTOS/Source/stream_buffer.c **** /*-----------------------------------------------------------*/
 358              		.loc 1 688 0
 359 0042 03B0     		add	sp, sp, #12
 360              	.LCFI4:
 361              		.cfi_remember_state
 362              		.cfi_def_cfa_offset 12
 363              		@ sp needed
 364 0044 30BD     		pop	{r4, r5, pc}
 365              	.LVL39:
 366              	.L28:
 367              	.LCFI5:
 368              		.cfi_restore_state
 680:Middlewares/Third_Party/FreeRTOS/Source/stream_buffer.c **** 	}
 369              		.loc 1 680 0
 370 0046 019A     		ldr	r2, [sp, #4]
 371 0048 2946     		mov	r1, r5
 372 004a 2046     		mov	r0, r4
 373 004c FFF7FEFF 		bl	prvWriteBytesToBuffer
 374              	.LVL40:
 375 0050 F7E7     		b	.L19
 376              		.cfi_endproc
 377              	.LFE13:
 379              		.section	.text.prvReadBytesFromBuffer,"ax",%progbits
 380              		.align	1
 381              		.syntax unified
 382              		.thumb
 383              		.thumb_func
 384              		.fpu softvfp
ARM GAS  /tmp/ccvFwc0s.s 			page 32


 386              	prvReadBytesFromBuffer:
 387              	.LFB22:
1067:Middlewares/Third_Party/FreeRTOS/Source/stream_buffer.c **** size_t xCount, xFirstLength, xNextTail;
 388              		.loc 1 1067 0
 389              		.cfi_startproc
 390              		@ args = 0, pretend = 0, frame = 0
 391              		@ frame_needed = 0, uses_anonymous_args = 0
 392              	.LVL41:
 393 0000 2DE9F843 		push	{r3, r4, r5, r6, r7, r8, r9, lr}
 394              	.LCFI6:
 395              		.cfi_def_cfa_offset 32
 396              		.cfi_offset 3, -32
 397              		.cfi_offset 4, -28
 398              		.cfi_offset 5, -24
 399              		.cfi_offset 6, -20
 400              		.cfi_offset 7, -16
 401              		.cfi_offset 8, -12
 402              		.cfi_offset 9, -8
 403              		.cfi_offset 14, -4
1071:Middlewares/Third_Party/FreeRTOS/Source/stream_buffer.c **** 
 404              		.loc 1 1071 0
 405 0004 9046     		mov	r8, r2
 406 0006 9A42     		cmp	r2, r3
 407 0008 28BF     		it	cs
 408 000a 9846     		movcs	r8, r3
 409              	.LVL42:
1073:Middlewares/Third_Party/FreeRTOS/Source/stream_buffer.c **** 	{
 410              		.loc 1 1073 0
 411 000c B8F1000F 		cmp	r8, #0
 412 0010 3ED0     		beq	.L29
1075:Middlewares/Third_Party/FreeRTOS/Source/stream_buffer.c **** 
 413              		.loc 1 1075 0
 414 0012 0468     		ldr	r4, [r0]
 415              	.LVL43:
1080:Middlewares/Third_Party/FreeRTOS/Source/stream_buffer.c **** 
 416              		.loc 1 1080 0
 417 0014 8368     		ldr	r3, [r0, #8]
 418              	.LVL44:
 419 0016 1F1B     		subs	r7, r3, r4
 420 0018 4745     		cmp	r7, r8
 421 001a 28BF     		it	cs
 422 001c 4746     		movcs	r7, r8
 423              	.LVL45:
1084:Middlewares/Third_Party/FreeRTOS/Source/stream_buffer.c **** 		configASSERT( ( xNextTail + xFirstLength ) <= pxStreamBuffer->xLength );
 424              		.loc 1 1084 0
 425 001e BA42     		cmp	r2, r7
 426 0020 08D2     		bcs	.L31
 427              	.LBB97:
 428              	.LBB98:
 429              		.loc 2 195 0
 430              		.syntax unified
 431              	@ 195 "Middlewares/Third_Party/FreeRTOS/Source/portable/GCC/ARM_CM3/portmacro.h" 1
 432 0022 4FF05003 			mov r3, #80												
 433 0026 83F31188 		msr basepri, r3											
 434 002a BFF36F8F 		isb														
 435 002e BFF34F8F 		dsb														
 436              	
ARM GAS  /tmp/ccvFwc0s.s 			page 33


 437              	@ 0 "" 2
 438              	.LVL46:
 439              		.thumb
 440              		.syntax unified
 441              	.L32:
 442 0032 FEE7     		b	.L32
 443              	.L31:
 444              	.LBE98:
 445              	.LBE97:
1085:Middlewares/Third_Party/FreeRTOS/Source/stream_buffer.c **** 		memcpy( ( void * ) pucData, ( const void * ) &( pxStreamBuffer->pucBuffer[ xNextTail ] ), xFirstL
 446              		.loc 1 1085 0
 447 0034 E519     		adds	r5, r4, r7
 448 0036 AB42     		cmp	r3, r5
 449 0038 08D2     		bcs	.L33
 450              	.LBB99:
 451              	.LBB100:
 452              		.loc 2 195 0
 453              		.syntax unified
 454              	@ 195 "Middlewares/Third_Party/FreeRTOS/Source/portable/GCC/ARM_CM3/portmacro.h" 1
 455 003a 4FF05003 			mov r3, #80												
 456 003e 83F31188 		msr basepri, r3											
 457 0042 BFF36F8F 		isb														
 458 0046 BFF34F8F 		dsb														
 459              	
 460              	@ 0 "" 2
 461              	.LVL47:
 462              		.thumb
 463              		.syntax unified
 464              	.L34:
 465 004a FEE7     		b	.L34
 466              	.L33:
 467 004c 9146     		mov	r9, r2
 468 004e 0E46     		mov	r6, r1
 469 0050 0546     		mov	r5, r0
 470              	.LBE100:
 471              	.LBE99:
1086:Middlewares/Third_Party/FreeRTOS/Source/stream_buffer.c **** 
 472              		.loc 1 1086 0
 473 0052 8169     		ldr	r1, [r0, #24]
 474              	.LVL48:
 475 0054 3A46     		mov	r2, r7
 476              	.LVL49:
 477 0056 2144     		add	r1, r1, r4
 478 0058 3046     		mov	r0, r6
 479              	.LVL50:
 480 005a FFF7FEFF 		bl	memcpy
 481              	.LVL51:
1090:Middlewares/Third_Party/FreeRTOS/Source/stream_buffer.c **** 		{
 482              		.loc 1 1090 0
 483 005e B845     		cmp	r8, r7
 484 0060 10D9     		bls	.L35
1093:Middlewares/Third_Party/FreeRTOS/Source/stream_buffer.c **** 			memcpy( ( void * ) &( pucData[ xFirstLength ] ), ( void * ) ( pxStreamBuffer->pucBuffer ), xCoun
 485              		.loc 1 1093 0
 486 0062 C145     		cmp	r9, r8
 487 0064 08D2     		bcs	.L36
 488              	.LBB101:
 489              	.LBB102:
ARM GAS  /tmp/ccvFwc0s.s 			page 34


 490              		.loc 2 195 0
 491              		.syntax unified
 492              	@ 195 "Middlewares/Third_Party/FreeRTOS/Source/portable/GCC/ARM_CM3/portmacro.h" 1
 493 0066 4FF05003 			mov r3, #80												
 494 006a 83F31188 		msr basepri, r3											
 495 006e BFF36F8F 		isb														
 496 0072 BFF34F8F 		dsb														
 497              	
 498              	@ 0 "" 2
 499              	.LVL52:
 500              		.thumb
 501              		.syntax unified
 502              	.L37:
 503 0076 FEE7     		b	.L37
 504              	.L36:
 505              	.LBE102:
 506              	.LBE101:
1094:Middlewares/Third_Party/FreeRTOS/Source/stream_buffer.c **** 		}
 507              		.loc 1 1094 0
 508 0078 A8EB0702 		sub	r2, r8, r7
 509 007c A969     		ldr	r1, [r5, #24]
 510 007e F019     		adds	r0, r6, r7
 511 0080 FFF7FEFF 		bl	memcpy
 512              	.LVL53:
 513              	.L35:
1103:Middlewares/Third_Party/FreeRTOS/Source/stream_buffer.c **** 
 514              		.loc 1 1103 0
 515 0084 4444     		add	r4, r4, r8
 516              	.LVL54:
1105:Middlewares/Third_Party/FreeRTOS/Source/stream_buffer.c **** 		{
 517              		.loc 1 1105 0
 518 0086 AB68     		ldr	r3, [r5, #8]
 519 0088 9C42     		cmp	r4, r3
 520 008a 00D3     		bcc	.L38
1107:Middlewares/Third_Party/FreeRTOS/Source/stream_buffer.c **** 		}
 521              		.loc 1 1107 0
 522 008c E41A     		subs	r4, r4, r3
 523              	.LVL55:
 524              	.L38:
1110:Middlewares/Third_Party/FreeRTOS/Source/stream_buffer.c **** 	}
 525              		.loc 1 1110 0
 526 008e 2C60     		str	r4, [r5]
 527              	.LVL56:
 528              	.L29:
1118:Middlewares/Third_Party/FreeRTOS/Source/stream_buffer.c **** /*-----------------------------------------------------------*/
 529              		.loc 1 1118 0
 530 0090 4046     		mov	r0, r8
 531 0092 BDE8F883 		pop	{r3, r4, r5, r6, r7, r8, r9, pc}
 532              		.cfi_endproc
 533              	.LFE22:
 535              		.section	.text.prvReadMessageFromBuffer,"ax",%progbits
 536              		.align	1
 537              		.syntax unified
 538              		.thumb
 539              		.thumb_func
 540              		.fpu softvfp
 542              	prvReadMessageFromBuffer:
ARM GAS  /tmp/ccvFwc0s.s 			page 35


 543              	.LFB16:
 857:Middlewares/Third_Party/FreeRTOS/Source/stream_buffer.c **** size_t xOriginalTail, xReceivedLength, xNextMessageLength;
 544              		.loc 1 857 0
 545              		.cfi_startproc
 546              		@ args = 4, pretend = 0, frame = 8
 547              		@ frame_needed = 0, uses_anonymous_args = 0
 548              	.LVL57:
 549 0000 2DE9F043 		push	{r4, r5, r6, r7, r8, r9, lr}
 550              	.LCFI7:
 551              		.cfi_def_cfa_offset 28
 552              		.cfi_offset 4, -28
 553              		.cfi_offset 5, -24
 554              		.cfi_offset 6, -20
 555              		.cfi_offset 7, -16
 556              		.cfi_offset 8, -12
 557              		.cfi_offset 9, -8
 558              		.cfi_offset 14, -4
 559 0004 83B0     		sub	sp, sp, #12
 560              	.LCFI8:
 561              		.cfi_def_cfa_offset 40
 562 0006 0546     		mov	r5, r0
 563 0008 0F46     		mov	r7, r1
 564 000a 9046     		mov	r8, r2
 565 000c 1C46     		mov	r4, r3
 566 000e 0A9E     		ldr	r6, [sp, #40]
 860:Middlewares/Third_Party/FreeRTOS/Source/stream_buffer.c **** 	{
 567              		.loc 1 860 0
 568 0010 4EB9     		cbnz	r6, .L44
 892:Middlewares/Third_Party/FreeRTOS/Source/stream_buffer.c **** 	}
 569              		.loc 1 892 0
 570 0012 0192     		str	r2, [sp, #4]
 571              	.LVL58:
 572              	.L42:
 896:Middlewares/Third_Party/FreeRTOS/Source/stream_buffer.c **** 
 573              		.loc 1 896 0
 574 0014 2346     		mov	r3, r4
 575 0016 019A     		ldr	r2, [sp, #4]
 576 0018 3946     		mov	r1, r7
 577 001a 2846     		mov	r0, r5
 578 001c FFF7FEFF 		bl	prvReadBytesFromBuffer
 579              	.LVL59:
 899:Middlewares/Third_Party/FreeRTOS/Source/stream_buffer.c **** /*-----------------------------------------------------------*/
 580              		.loc 1 899 0
 581 0020 03B0     		add	sp, sp, #12
 582              	.LCFI9:
 583              		.cfi_remember_state
 584              		.cfi_def_cfa_offset 28
 585              		@ sp needed
 586 0022 BDE8F083 		pop	{r4, r5, r6, r7, r8, r9, pc}
 587              	.LVL60:
 588              	.L44:
 589              	.LCFI10:
 590              		.cfi_restore_state
 866:Middlewares/Third_Party/FreeRTOS/Source/stream_buffer.c **** 		( void ) prvReadBytesFromBuffer( pxStreamBuffer, ( uint8_t * ) &xNextMessageLength, xBytesToStore
 591              		.loc 1 866 0
 592 0026 D0F80090 		ldr	r9, [r0]
 593              	.LVL61:
ARM GAS  /tmp/ccvFwc0s.s 			page 36


 867:Middlewares/Third_Party/FreeRTOS/Source/stream_buffer.c **** 
 594              		.loc 1 867 0
 595 002a 3246     		mov	r2, r6
 596              	.LVL62:
 597 002c 01A9     		add	r1, sp, #4
 598              	.LVL63:
 599 002e FFF7FEFF 		bl	prvReadBytesFromBuffer
 600              	.LVL64:
 871:Middlewares/Third_Party/FreeRTOS/Source/stream_buffer.c **** 
 601              		.loc 1 871 0
 602 0032 A41B     		subs	r4, r4, r6
 603              	.LVL65:
 875:Middlewares/Third_Party/FreeRTOS/Source/stream_buffer.c **** 		{
 604              		.loc 1 875 0
 605 0034 019B     		ldr	r3, [sp, #4]
 606 0036 4345     		cmp	r3, r8
 607 0038 ECD9     		bls	.L42
 880:Middlewares/Third_Party/FreeRTOS/Source/stream_buffer.c **** 			xNextMessageLength = 0;
 608              		.loc 1 880 0
 609 003a C5F80090 		str	r9, [r5]
 881:Middlewares/Third_Party/FreeRTOS/Source/stream_buffer.c **** 		}
 610              		.loc 1 881 0
 611 003e 0023     		movs	r3, #0
 612 0040 0193     		str	r3, [sp, #4]
 613 0042 E7E7     		b	.L42
 614              		.cfi_endproc
 615              	.LFE16:
 617              		.section	.text.xStreamBufferGenericCreate,"ax",%progbits
 618              		.align	1
 619              		.global	xStreamBufferGenericCreate
 620              		.syntax unified
 621              		.thumb
 622              		.thumb_func
 623              		.fpu softvfp
 625              	xStreamBufferGenericCreate:
 626              	.LFB4:
 220:Middlewares/Third_Party/FreeRTOS/Source/stream_buffer.c **** 	uint8_t *pucAllocatedMemory;
 627              		.loc 1 220 0
 628              		.cfi_startproc
 629              		@ args = 0, pretend = 0, frame = 0
 630              		@ frame_needed = 0, uses_anonymous_args = 0
 631              	.LVL66:
 227:Middlewares/Third_Party/FreeRTOS/Source/stream_buffer.c **** 		configASSERT( xTriggerLevelBytes <= xBufferSizeBytes );
 632              		.loc 1 227 0
 633 0000 0428     		cmp	r0, #4
 634 0002 08D8     		bhi	.L46
 635              	.LBB103:
 636              	.LBB104:
 637              		.loc 2 195 0
 638              		.syntax unified
 639              	@ 195 "Middlewares/Third_Party/FreeRTOS/Source/portable/GCC/ARM_CM3/portmacro.h" 1
 640 0004 4FF05003 			mov r3, #80												
 641 0008 83F31188 		msr basepri, r3											
 642 000c BFF36F8F 		isb														
 643 0010 BFF34F8F 		dsb														
 644              	
 645              	@ 0 "" 2
ARM GAS  /tmp/ccvFwc0s.s 			page 37


 646              	.LVL67:
 647              		.thumb
 648              		.syntax unified
 649              	.L47:
 650 0014 FEE7     		b	.L47
 651              	.L46:
 652              	.LBE104:
 653              	.LBE103:
 220:Middlewares/Third_Party/FreeRTOS/Source/stream_buffer.c **** 	uint8_t *pucAllocatedMemory;
 654              		.loc 1 220 0
 655 0016 F0B5     		push	{r4, r5, r6, r7, lr}
 656              	.LCFI11:
 657              		.cfi_def_cfa_offset 20
 658              		.cfi_offset 4, -20
 659              		.cfi_offset 5, -16
 660              		.cfi_offset 6, -12
 661              		.cfi_offset 7, -8
 662              		.cfi_offset 14, -4
 663 0018 83B0     		sub	sp, sp, #12
 664              	.LCFI12:
 665              		.cfi_def_cfa_offset 32
 666 001a 0C46     		mov	r4, r1
 667 001c 1746     		mov	r7, r2
 228:Middlewares/Third_Party/FreeRTOS/Source/stream_buffer.c **** 
 668              		.loc 1 228 0
 669 001e 8842     		cmp	r0, r1
 670 0020 08D2     		bcs	.L48
 671              	.LBB105:
 672              	.LBB106:
 673              		.loc 2 195 0
 674              		.syntax unified
 675              	@ 195 "Middlewares/Third_Party/FreeRTOS/Source/portable/GCC/ARM_CM3/portmacro.h" 1
 676 0022 4FF05003 			mov r3, #80												
 677 0026 83F31188 		msr basepri, r3											
 678 002a BFF36F8F 		isb														
 679 002e BFF34F8F 		dsb														
 680              	
 681              	@ 0 "" 2
 682              	.LVL68:
 683              		.thumb
 684              		.syntax unified
 685              	.L49:
 686 0032 FEE7     		b	.L49
 687              	.L48:
 688              	.LBE106:
 689              	.LBE105:
 232:Middlewares/Third_Party/FreeRTOS/Source/stream_buffer.c **** 		{
 690              		.loc 1 232 0
 691 0034 01B9     		cbnz	r1, .L50
 234:Middlewares/Third_Party/FreeRTOS/Source/stream_buffer.c **** 		}
 692              		.loc 1 234 0
 693 0036 0124     		movs	r4, #1
 694              	.L50:
 695              	.LVL69:
 245:Middlewares/Third_Party/FreeRTOS/Source/stream_buffer.c **** 		pucAllocatedMemory = ( uint8_t * ) pvPortMalloc( xBufferSizeBytes + sizeof( StreamBuffer_t ) ); /
 696              		.loc 1 245 0
 697 0038 461C     		adds	r6, r0, #1
ARM GAS  /tmp/ccvFwc0s.s 			page 38


 698              	.LVL70:
 246:Middlewares/Third_Party/FreeRTOS/Source/stream_buffer.c **** 
 699              		.loc 1 246 0
 700 003a 2530     		adds	r0, r0, #37
 701 003c FFF7FEFF 		bl	pvPortMalloc
 702              	.LVL71:
 248:Middlewares/Third_Party/FreeRTOS/Source/stream_buffer.c **** 		{
 703              		.loc 1 248 0
 704 0040 0546     		mov	r5, r0
 705 0042 30B1     		cbz	r0, .L51
 250:Middlewares/Third_Party/FreeRTOS/Source/stream_buffer.c **** 										   pucAllocatedMemory + sizeof( StreamBuffer_t ),  /* Storage area follows. */ /*lint !e9
 706              		.loc 1 250 0
 707 0044 0097     		str	r7, [sp]
 708 0046 2346     		mov	r3, r4
 709 0048 3246     		mov	r2, r6
 710 004a 00F12401 		add	r1, r0, #36
 711 004e FFF7FEFF 		bl	prvInitialiseNewStreamBuffer
 712              	.LVL72:
 713              	.L51:
 264:Middlewares/Third_Party/FreeRTOS/Source/stream_buffer.c **** 
 714              		.loc 1 264 0
 715 0052 2846     		mov	r0, r5
 716 0054 03B0     		add	sp, sp, #12
 717              	.LCFI13:
 718              		.cfi_def_cfa_offset 20
 719              		@ sp needed
 720 0056 F0BD     		pop	{r4, r5, r6, r7, pc}
 721              		.cfi_endproc
 722              	.LFE4:
 724              		.section	.text.xStreamBufferGenericCreateStatic,"ax",%progbits
 725              		.align	1
 726              		.global	xStreamBufferGenericCreateStatic
 727              		.syntax unified
 728              		.thumb
 729              		.thumb_func
 730              		.fpu softvfp
 732              	xStreamBufferGenericCreateStatic:
 733              	.LFB5:
 276:Middlewares/Third_Party/FreeRTOS/Source/stream_buffer.c **** 	StreamBuffer_t * const pxStreamBuffer = ( StreamBuffer_t * ) pxStaticStreamBuffer; /*lint !e740 !e
 734              		.loc 1 276 0
 735              		.cfi_startproc
 736              		@ args = 4, pretend = 0, frame = 8
 737              		@ frame_needed = 0, uses_anonymous_args = 0
 738              	.LVL73:
 739 0000 30B5     		push	{r4, r5, lr}
 740              	.LCFI14:
 741              		.cfi_def_cfa_offset 12
 742              		.cfi_offset 4, -12
 743              		.cfi_offset 5, -8
 744              		.cfi_offset 14, -4
 745 0002 85B0     		sub	sp, sp, #20
 746              	.LCFI15:
 747              		.cfi_def_cfa_offset 32
 748 0004 089C     		ldr	r4, [sp, #32]
 749              	.LVL74:
 280:Middlewares/Third_Party/FreeRTOS/Source/stream_buffer.c **** 		configASSERT( pxStaticStreamBuffer );
 750              		.loc 1 280 0
ARM GAS  /tmp/ccvFwc0s.s 			page 39


 751 0006 63B1     		cbz	r3, .L69
 752 0008 1D46     		mov	r5, r3
 281:Middlewares/Third_Party/FreeRTOS/Source/stream_buffer.c **** 		configASSERT( xTriggerLevelBytes <= xBufferSizeBytes );
 753              		.loc 1 281 0
 754 000a 9CB1     		cbz	r4, .L70
 282:Middlewares/Third_Party/FreeRTOS/Source/stream_buffer.c **** 
 755              		.loc 1 282 0
 756 000c 8142     		cmp	r1, r0
 757 000e 1AD9     		bls	.L60
 758              	.LBB107:
 759              	.LBB108:
 760              		.loc 2 195 0
 761              		.syntax unified
 762              	@ 195 "Middlewares/Third_Party/FreeRTOS/Source/portable/GCC/ARM_CM3/portmacro.h" 1
 763 0010 4FF05003 			mov r3, #80												
 764 0014 83F31188 		msr basepri, r3											
 765 0018 BFF36F8F 		isb														
 766 001c BFF34F8F 		dsb														
 767              	
 768              	@ 0 "" 2
 769              	.LVL75:
 770              		.thumb
 771              		.syntax unified
 772              	.L61:
 773 0020 FEE7     		b	.L61
 774              	.LVL76:
 775              	.L69:
 776              	.LBE108:
 777              	.LBE107:
 778              	.LBB109:
 779              	.LBB110:
 780              		.syntax unified
 781              	@ 195 "Middlewares/Third_Party/FreeRTOS/Source/portable/GCC/ARM_CM3/portmacro.h" 1
 782 0022 4FF05003 			mov r3, #80												
 783 0026 83F31188 		msr basepri, r3											
 784 002a BFF36F8F 		isb														
 785 002e BFF34F8F 		dsb														
 786              	
 787              	@ 0 "" 2
 788              	.LVL77:
 789              		.thumb
 790              		.syntax unified
 791              	.L57:
 792 0032 FEE7     		b	.L57
 793              	.LVL78:
 794              	.L70:
 795              	.LBE110:
 796              	.LBE109:
 797              	.LBB111:
 798              	.LBB112:
 799              		.syntax unified
 800              	@ 195 "Middlewares/Third_Party/FreeRTOS/Source/portable/GCC/ARM_CM3/portmacro.h" 1
 801 0034 4FF05003 			mov r3, #80												
 802 0038 83F31188 		msr basepri, r3											
 803 003c BFF36F8F 		isb														
 804 0040 BFF34F8F 		dsb														
 805              	
ARM GAS  /tmp/ccvFwc0s.s 			page 40


 806              	@ 0 "" 2
 807              	.LVL79:
 808              		.thumb
 809              		.syntax unified
 810              	.L59:
 811 0044 FEE7     		b	.L59
 812              	.LVL80:
 813              	.L60:
 814              	.LBE112:
 815              	.LBE111:
 286:Middlewares/Third_Party/FreeRTOS/Source/stream_buffer.c **** 		{
 816              		.loc 1 286 0
 817 0046 01B9     		cbnz	r1, .L62
 288:Middlewares/Third_Party/FreeRTOS/Source/stream_buffer.c **** 		}
 818              		.loc 1 288 0
 819 0048 0121     		movs	r1, #1
 820              	.LVL81:
 821              	.L62:
 295:Middlewares/Third_Party/FreeRTOS/Source/stream_buffer.c **** 
 822              		.loc 1 295 0
 823 004a 0428     		cmp	r0, #4
 824 004c 08D8     		bhi	.L63
 825              	.LBB113:
 826              	.LBB114:
 827              		.loc 2 195 0
 828              		.syntax unified
 829              	@ 195 "Middlewares/Third_Party/FreeRTOS/Source/portable/GCC/ARM_CM3/portmacro.h" 1
 830 004e 4FF05003 			mov r3, #80												
 831 0052 83F31188 		msr basepri, r3											
 832 0056 BFF36F8F 		isb														
 833 005a BFF34F8F 		dsb														
 834              	
 835              	@ 0 "" 2
 836              	.LVL82:
 837              		.thumb
 838              		.syntax unified
 839              	.L64:
 840 005e FEE7     		b	.L64
 841              	.LVL83:
 842              	.L63:
 843              	.LBE114:
 844              	.LBE113:
 845              	.LBB115:
 302:Middlewares/Third_Party/FreeRTOS/Source/stream_buffer.c **** 			configASSERT( xSize == sizeof( StreamBuffer_t ) );
 846              		.loc 1 302 0
 847 0060 2423     		movs	r3, #36
 848              	.LVL84:
 849 0062 0393     		str	r3, [sp, #12]
 303:Middlewares/Third_Party/FreeRTOS/Source/stream_buffer.c **** 		}
 850              		.loc 1 303 0
 851 0064 039B     		ldr	r3, [sp, #12]
 852 0066 242B     		cmp	r3, #36
 853 0068 08D0     		beq	.L65
 854              	.LBB116:
 855              	.LBB117:
 856              		.loc 2 195 0
 857              		.syntax unified
ARM GAS  /tmp/ccvFwc0s.s 			page 41


 858              	@ 195 "Middlewares/Third_Party/FreeRTOS/Source/portable/GCC/ARM_CM3/portmacro.h" 1
 859 006a 4FF05003 			mov r3, #80												
 860 006e 83F31188 		msr basepri, r3											
 861 0072 BFF36F8F 		isb														
 862 0076 BFF34F8F 		dsb														
 863              	
 864              	@ 0 "" 2
 865              	.LVL85:
 866              		.thumb
 867              		.syntax unified
 868              	.L66:
 869 007a FEE7     		b	.L66
 870              	.L65:
 871              	.LBE117:
 872              	.LBE116:
 873              	.LBE115:
 309:Middlewares/Third_Party/FreeRTOS/Source/stream_buffer.c **** 										  pucStreamBufferStorageArea,
 874              		.loc 1 309 0
 875 007c 0092     		str	r2, [sp]
 876 007e 0B46     		mov	r3, r1
 877 0080 0246     		mov	r2, r0
 878              	.LVL86:
 879 0082 2946     		mov	r1, r5
 880              	.LVL87:
 881 0084 2046     		mov	r0, r4
 882              	.LVL88:
 883 0086 FFF7FEFF 		bl	prvInitialiseNewStreamBuffer
 884              	.LVL89:
 317:Middlewares/Third_Party/FreeRTOS/Source/stream_buffer.c **** 
 885              		.loc 1 317 0
 886 008a 237F     		ldrb	r3, [r4, #28]	@ zero_extendqisi2
 887 008c 43F00203 		orr	r3, r3, #2
 888 0090 2377     		strb	r3, [r4, #28]
 889              	.LVL90:
 330:Middlewares/Third_Party/FreeRTOS/Source/stream_buffer.c **** 
 890              		.loc 1 330 0
 891 0092 2046     		mov	r0, r4
 892 0094 05B0     		add	sp, sp, #20
 893              	.LCFI16:
 894              		.cfi_def_cfa_offset 12
 895              		@ sp needed
 896 0096 30BD     		pop	{r4, r5, pc}
 897              		.cfi_endproc
 898              	.LFE5:
 900              		.section	.text.vStreamBufferDelete,"ax",%progbits
 901              		.align	1
 902              		.global	vStreamBufferDelete
 903              		.syntax unified
 904              		.thumb
 905              		.thumb_func
 906              		.fpu softvfp
 908              	vStreamBufferDelete:
 909              	.LFB6:
 336:Middlewares/Third_Party/FreeRTOS/Source/stream_buffer.c **** StreamBuffer_t * pxStreamBuffer = ( StreamBuffer_t * ) xStreamBuffer; /*lint !e9087 !e9079 Safe cas
 910              		.loc 1 336 0
 911              		.cfi_startproc
 912              		@ args = 0, pretend = 0, frame = 0
ARM GAS  /tmp/ccvFwc0s.s 			page 42


 913              		@ frame_needed = 0, uses_anonymous_args = 0
 914              	.LVL91:
 915 0000 08B5     		push	{r3, lr}
 916              	.LCFI17:
 917              		.cfi_def_cfa_offset 8
 918              		.cfi_offset 3, -8
 919              		.cfi_offset 14, -4
 920              	.LVL92:
 339:Middlewares/Third_Party/FreeRTOS/Source/stream_buffer.c **** 
 921              		.loc 1 339 0
 922 0002 40B1     		cbz	r0, .L77
 343:Middlewares/Third_Party/FreeRTOS/Source/stream_buffer.c **** 	{
 923              		.loc 1 343 0
 924 0004 037F     		ldrb	r3, [r0, #28]	@ zero_extendqisi2
 925 0006 13F0020F 		tst	r3, #2
 926 000a 0DD0     		beq	.L78
 363:Middlewares/Third_Party/FreeRTOS/Source/stream_buffer.c **** 	}
 927              		.loc 1 363 0
 928 000c 2422     		movs	r2, #36
 929 000e 0021     		movs	r1, #0
 930 0010 FFF7FEFF 		bl	memset
 931              	.LVL93:
 932 0014 08BD     		pop	{r3, pc}
 933              	.LVL94:
 934              	.L77:
 935              	.LBB118:
 936              	.LBB119:
 937              		.loc 2 195 0
 938              		.syntax unified
 939              	@ 195 "Middlewares/Third_Party/FreeRTOS/Source/portable/GCC/ARM_CM3/portmacro.h" 1
 940 0016 4FF05003 			mov r3, #80												
 941 001a 83F31188 		msr basepri, r3											
 942 001e BFF36F8F 		isb														
 943 0022 BFF34F8F 		dsb														
 944              	
 945              	@ 0 "" 2
 946              	.LVL95:
 947              		.thumb
 948              		.syntax unified
 949              	.L73:
 950 0026 FEE7     		b	.L73
 951              	.L78:
 952              	.LBE119:
 953              	.LBE118:
 349:Middlewares/Third_Party/FreeRTOS/Source/stream_buffer.c **** 		}
 954              		.loc 1 349 0
 955 0028 FFF7FEFF 		bl	vPortFree
 956              	.LVL96:
 957 002c 08BD     		pop	{r3, pc}
 958              		.cfi_endproc
 959              	.LFE6:
 961              		.section	.text.xStreamBufferReset,"ax",%progbits
 962              		.align	1
 963              		.global	xStreamBufferReset
 964              		.syntax unified
 965              		.thumb
 966              		.thumb_func
ARM GAS  /tmp/ccvFwc0s.s 			page 43


 967              		.fpu softvfp
 969              	xStreamBufferReset:
 970              	.LFB7:
 369:Middlewares/Third_Party/FreeRTOS/Source/stream_buffer.c **** StreamBuffer_t * const pxStreamBuffer = ( StreamBuffer_t * ) xStreamBuffer; /*lint !e9087 !e9079 Sa
 971              		.loc 1 369 0
 972              		.cfi_startproc
 973              		@ args = 0, pretend = 0, frame = 0
 974              		@ frame_needed = 0, uses_anonymous_args = 0
 975              	.LVL97:
 377:Middlewares/Third_Party/FreeRTOS/Source/stream_buffer.c **** 
 976              		.loc 1 377 0
 977 0000 40B1     		cbz	r0, .L89
 369:Middlewares/Third_Party/FreeRTOS/Source/stream_buffer.c **** StreamBuffer_t * const pxStreamBuffer = ( StreamBuffer_t * ) xStreamBuffer; /*lint !e9087 !e9079 Sa
 978              		.loc 1 369 0
 979 0002 30B5     		push	{r4, r5, lr}
 980              	.LCFI18:
 981              		.cfi_def_cfa_offset 12
 982              		.cfi_offset 4, -12
 983              		.cfi_offset 5, -8
 984              		.cfi_offset 14, -4
 985 0004 83B0     		sub	sp, sp, #12
 986              	.LCFI19:
 987              		.cfi_def_cfa_offset 24
 988 0006 0446     		mov	r4, r0
 383:Middlewares/Third_Party/FreeRTOS/Source/stream_buffer.c **** 	}
 989              		.loc 1 383 0
 990 0008 056A     		ldr	r5, [r0, #32]
 991              	.LVL98:
 388:Middlewares/Third_Party/FreeRTOS/Source/stream_buffer.c **** 	{
 992              		.loc 1 388 0
 993 000a 0369     		ldr	r3, [r0, #16]
 994 000c 5BB1     		cbz	r3, .L90
 371:Middlewares/Third_Party/FreeRTOS/Source/stream_buffer.c **** 
 995              		.loc 1 371 0
 996 000e 0020     		movs	r0, #0
 997              	.LVL99:
 998              	.L79:
 419:Middlewares/Third_Party/FreeRTOS/Source/stream_buffer.c **** /*-----------------------------------------------------------*/
 999              		.loc 1 419 0
 1000 0010 03B0     		add	sp, sp, #12
 1001              	.LCFI20:
 1002              		.cfi_def_cfa_offset 12
 1003              		@ sp needed
 1004 0012 30BD     		pop	{r4, r5, pc}
 1005              	.LVL100:
 1006              	.L89:
 1007              	.LCFI21:
 1008              		.cfi_def_cfa_offset 0
 1009              		.cfi_restore 4
 1010              		.cfi_restore 5
 1011              		.cfi_restore 14
 1012              	.LBB120:
 1013              	.LBB121:
 1014              		.loc 2 195 0
 1015              		.syntax unified
 1016              	@ 195 "Middlewares/Third_Party/FreeRTOS/Source/portable/GCC/ARM_CM3/portmacro.h" 1
 1017 0014 4FF05003 			mov r3, #80												
ARM GAS  /tmp/ccvFwc0s.s 			page 44


 1018 0018 83F31188 		msr basepri, r3											
 1019 001c BFF36F8F 		isb														
 1020 0020 BFF34F8F 		dsb														
 1021              	
 1022              	@ 0 "" 2
 1023              	.LVL101:
 1024              		.thumb
 1025              		.syntax unified
 1026              	.L81:
 1027 0024 FEE7     		b	.L81
 1028              	.LVL102:
 1029              	.L90:
 1030              	.LCFI22:
 1031              		.cfi_def_cfa_offset 24
 1032              		.cfi_offset 4, -12
 1033              		.cfi_offset 5, -8
 1034              		.cfi_offset 14, -4
 1035              	.LBE121:
 1036              	.LBE120:
 390:Middlewares/Third_Party/FreeRTOS/Source/stream_buffer.c **** 		{
 1037              		.loc 1 390 0
 1038 0026 4369     		ldr	r3, [r0, #20]
 1039 0028 0BB1     		cbz	r3, .L91
 371:Middlewares/Third_Party/FreeRTOS/Source/stream_buffer.c **** 
 1040              		.loc 1 371 0
 1041 002a 0020     		movs	r0, #0
 1042              	.LVL103:
 418:Middlewares/Third_Party/FreeRTOS/Source/stream_buffer.c **** }
 1043              		.loc 1 418 0
 1044 002c F0E7     		b	.L79
 1045              	.LVL104:
 1046              	.L91:
 392:Middlewares/Third_Party/FreeRTOS/Source/stream_buffer.c **** 			{
 1047              		.loc 1 392 0
 1048 002e 037F     		ldrb	r3, [r0, #28]	@ zero_extendqisi2
 1049 0030 13F0010F 		tst	r3, #1
 1050 0034 0AD0     		beq	.L86
 394:Middlewares/Third_Party/FreeRTOS/Source/stream_buffer.c **** 			}
 1051              		.loc 1 394 0
 1052 0036 0120     		movs	r0, #1
 1053              	.LVL105:
 1054              	.L83:
 401:Middlewares/Third_Party/FreeRTOS/Source/stream_buffer.c **** 										  pxStreamBuffer->pucBuffer,
 1055              		.loc 1 401 0
 1056 0038 E368     		ldr	r3, [r4, #12]
 1057 003a A268     		ldr	r2, [r4, #8]
 1058 003c A169     		ldr	r1, [r4, #24]
 1059 003e 0090     		str	r0, [sp]
 1060 0040 2046     		mov	r0, r4
 1061              	.LVL106:
 1062 0042 FFF7FEFF 		bl	prvInitialiseNewStreamBuffer
 1063              	.LVL107:
 410:Middlewares/Third_Party/FreeRTOS/Source/stream_buffer.c **** 			}
 1064              		.loc 1 410 0
 1065 0046 2562     		str	r5, [r4, #32]
 406:Middlewares/Third_Party/FreeRTOS/Source/stream_buffer.c **** 
 1066              		.loc 1 406 0
ARM GAS  /tmp/ccvFwc0s.s 			page 45


 1067 0048 0120     		movs	r0, #1
 1068 004a E1E7     		b	.L79
 1069              	.LVL108:
 1070              	.L86:
 398:Middlewares/Third_Party/FreeRTOS/Source/stream_buffer.c **** 			}
 1071              		.loc 1 398 0
 1072 004c 0020     		movs	r0, #0
 1073              	.LVL109:
 1074 004e F3E7     		b	.L83
 1075              		.cfi_endproc
 1076              	.LFE7:
 1078              		.section	.text.xStreamBufferSetTriggerLevel,"ax",%progbits
 1079              		.align	1
 1080              		.global	xStreamBufferSetTriggerLevel
 1081              		.syntax unified
 1082              		.thumb
 1083              		.thumb_func
 1084              		.fpu softvfp
 1086              	xStreamBufferSetTriggerLevel:
 1087              	.LFB8:
 423:Middlewares/Third_Party/FreeRTOS/Source/stream_buffer.c **** StreamBuffer_t * const pxStreamBuffer = ( StreamBuffer_t * ) xStreamBuffer; /*lint !e9087 !e9079 Sa
 1088              		.loc 1 423 0
 1089              		.cfi_startproc
 1090              		@ args = 0, pretend = 0, frame = 0
 1091              		@ frame_needed = 0, uses_anonymous_args = 0
 1092              		@ link register save eliminated.
 1093              	.LVL110:
 427:Middlewares/Third_Party/FreeRTOS/Source/stream_buffer.c **** 
 1094              		.loc 1 427 0
 1095 0000 0346     		mov	r3, r0
 1096 0002 38B1     		cbz	r0, .L99
 430:Middlewares/Third_Party/FreeRTOS/Source/stream_buffer.c **** 	{
 1097              		.loc 1 430 0
 1098 0004 01B9     		cbnz	r1, .L95
 432:Middlewares/Third_Party/FreeRTOS/Source/stream_buffer.c **** 	}
 1099              		.loc 1 432 0
 1100 0006 0121     		movs	r1, #1
 1101              	.LVL111:
 1102              	.L95:
 437:Middlewares/Third_Party/FreeRTOS/Source/stream_buffer.c **** 	{
 1103              		.loc 1 437 0
 1104 0008 9A68     		ldr	r2, [r3, #8]
 1105 000a 9142     		cmp	r1, r2
 1106 000c 0BD8     		bhi	.L98
 439:Middlewares/Third_Party/FreeRTOS/Source/stream_buffer.c **** 		xReturn = pdPASS;
 1107              		.loc 1 439 0
 1108 000e D960     		str	r1, [r3, #12]
 1109              	.LVL112:
 440:Middlewares/Third_Party/FreeRTOS/Source/stream_buffer.c **** 	}
 1110              		.loc 1 440 0
 1111 0010 0120     		movs	r0, #1
 1112              	.LVL113:
 1113 0012 7047     		bx	lr
 1114              	.LVL114:
 1115              	.L99:
 1116              	.LBB122:
 1117              	.LBB123:
ARM GAS  /tmp/ccvFwc0s.s 			page 46


 1118              		.loc 2 195 0
 1119              		.syntax unified
 1120              	@ 195 "Middlewares/Third_Party/FreeRTOS/Source/portable/GCC/ARM_CM3/portmacro.h" 1
 1121 0014 4FF05003 			mov r3, #80												
 1122 0018 83F31188 		msr basepri, r3											
 1123 001c BFF36F8F 		isb														
 1124 0020 BFF34F8F 		dsb														
 1125              	
 1126              	@ 0 "" 2
 1127              	.LVL115:
 1128              		.thumb
 1129              		.syntax unified
 1130              	.L94:
 1131 0024 FEE7     		b	.L94
 1132              	.L98:
 1133              	.LBE123:
 1134              	.LBE122:
 444:Middlewares/Third_Party/FreeRTOS/Source/stream_buffer.c **** 	}
 1135              		.loc 1 444 0
 1136 0026 0020     		movs	r0, #0
 1137              	.LVL116:
 448:Middlewares/Third_Party/FreeRTOS/Source/stream_buffer.c **** /*-----------------------------------------------------------*/
 1138              		.loc 1 448 0
 1139 0028 7047     		bx	lr
 1140              		.cfi_endproc
 1141              	.LFE8:
 1143              		.section	.text.xStreamBufferSpacesAvailable,"ax",%progbits
 1144              		.align	1
 1145              		.global	xStreamBufferSpacesAvailable
 1146              		.syntax unified
 1147              		.thumb
 1148              		.thumb_func
 1149              		.fpu softvfp
 1151              	xStreamBufferSpacesAvailable:
 1152              	.LFB9:
 452:Middlewares/Third_Party/FreeRTOS/Source/stream_buffer.c **** const StreamBuffer_t * const pxStreamBuffer = ( StreamBuffer_t * ) xStreamBuffer; /*lint !e9087 !e9
 1153              		.loc 1 452 0
 1154              		.cfi_startproc
 1155              		@ args = 0, pretend = 0, frame = 0
 1156              		@ frame_needed = 0, uses_anonymous_args = 0
 1157              		@ link register save eliminated.
 1158              	.LVL117:
 456:Middlewares/Third_Party/FreeRTOS/Source/stream_buffer.c **** 
 1159              		.loc 1 456 0
 1160 0000 0246     		mov	r2, r0
 1161 0002 48B1     		cbz	r0, .L104
 458:Middlewares/Third_Party/FreeRTOS/Source/stream_buffer.c **** 	xSpace -= pxStreamBuffer->xHead;
 1162              		.loc 1 458 0
 1163 0004 8368     		ldr	r3, [r0, #8]
 1164 0006 0068     		ldr	r0, [r0]
 1165              	.LVL118:
 1166 0008 1844     		add	r0, r0, r3
 1167              	.LVL119:
 459:Middlewares/Third_Party/FreeRTOS/Source/stream_buffer.c **** 	xSpace -= ( size_t ) 1;
 1168              		.loc 1 459 0
 1169 000a 5268     		ldr	r2, [r2, #4]
 1170              	.LVL120:
ARM GAS  /tmp/ccvFwc0s.s 			page 47


 1171 000c 801A     		subs	r0, r0, r2
 1172              	.LVL121:
 460:Middlewares/Third_Party/FreeRTOS/Source/stream_buffer.c **** 
 1173              		.loc 1 460 0
 1174 000e 0138     		subs	r0, r0, #1
 1175              	.LVL122:
 462:Middlewares/Third_Party/FreeRTOS/Source/stream_buffer.c **** 	{
 1176              		.loc 1 462 0
 1177 0010 8342     		cmp	r3, r0
 1178 0012 00D8     		bhi	.L100
 464:Middlewares/Third_Party/FreeRTOS/Source/stream_buffer.c **** 	}
 1179              		.loc 1 464 0
 1180 0014 C01A     		subs	r0, r0, r3
 1181              	.LVL123:
 1182              	.L100:
 472:Middlewares/Third_Party/FreeRTOS/Source/stream_buffer.c **** /*-----------------------------------------------------------*/
 1183              		.loc 1 472 0
 1184 0016 7047     		bx	lr
 1185              	.LVL124:
 1186              	.L104:
 1187              	.LBB124:
 1188              	.LBB125:
 1189              		.loc 2 195 0
 1190              		.syntax unified
 1191              	@ 195 "Middlewares/Third_Party/FreeRTOS/Source/portable/GCC/ARM_CM3/portmacro.h" 1
 1192 0018 4FF05003 			mov r3, #80												
 1193 001c 83F31188 		msr basepri, r3											
 1194 0020 BFF36F8F 		isb														
 1195 0024 BFF34F8F 		dsb														
 1196              	
 1197              	@ 0 "" 2
 1198              	.LVL125:
 1199              		.thumb
 1200              		.syntax unified
 1201              	.L102:
 1202 0028 FEE7     		b	.L102
 1203              	.LBE125:
 1204              	.LBE124:
 1205              		.cfi_endproc
 1206              	.LFE9:
 1208              		.section	.text.xStreamBufferBytesAvailable,"ax",%progbits
 1209              		.align	1
 1210              		.global	xStreamBufferBytesAvailable
 1211              		.syntax unified
 1212              		.thumb
 1213              		.thumb_func
 1214              		.fpu softvfp
 1216              	xStreamBufferBytesAvailable:
 1217              	.LFB10:
 476:Middlewares/Third_Party/FreeRTOS/Source/stream_buffer.c **** const StreamBuffer_t * const pxStreamBuffer = ( StreamBuffer_t * ) xStreamBuffer; /*lint !e9087 !e9
 1218              		.loc 1 476 0
 1219              		.cfi_startproc
 1220              		@ args = 0, pretend = 0, frame = 0
 1221              		@ frame_needed = 0, uses_anonymous_args = 0
 1222              	.LVL126:
 1223 0000 08B5     		push	{r3, lr}
 1224              	.LCFI23:
ARM GAS  /tmp/ccvFwc0s.s 			page 48


 1225              		.cfi_def_cfa_offset 8
 1226              		.cfi_offset 3, -8
 1227              		.cfi_offset 14, -4
 1228              	.LVL127:
 480:Middlewares/Third_Party/FreeRTOS/Source/stream_buffer.c **** 
 1229              		.loc 1 480 0
 1230 0002 40B9     		cbnz	r0, .L106
 1231              	.LBB126:
 1232              	.LBB127:
 1233              		.loc 2 195 0
 1234              		.syntax unified
 1235              	@ 195 "Middlewares/Third_Party/FreeRTOS/Source/portable/GCC/ARM_CM3/portmacro.h" 1
 1236 0004 4FF05003 			mov r3, #80												
 1237 0008 83F31188 		msr basepri, r3											
 1238 000c BFF36F8F 		isb														
 1239 0010 BFF34F8F 		dsb														
 1240              	
 1241              	@ 0 "" 2
 1242              	.LVL128:
 1243              		.thumb
 1244              		.syntax unified
 1245              	.L107:
 1246 0014 FEE7     		b	.L107
 1247              	.L106:
 1248              	.LBE127:
 1249              	.LBE126:
 482:Middlewares/Third_Party/FreeRTOS/Source/stream_buffer.c **** 	return xReturn;
 1250              		.loc 1 482 0
 1251 0016 FFF7FEFF 		bl	prvBytesInBuffer
 1252              	.LVL129:
 484:Middlewares/Third_Party/FreeRTOS/Source/stream_buffer.c **** /*-----------------------------------------------------------*/
 1253              		.loc 1 484 0
 1254 001a 08BD     		pop	{r3, pc}
 1255              		.cfi_endproc
 1256              	.LFE10:
 1258              		.section	.text.xStreamBufferSend,"ax",%progbits
 1259              		.align	1
 1260              		.global	xStreamBufferSend
 1261              		.syntax unified
 1262              		.thumb
 1263              		.thumb_func
 1264              		.fpu softvfp
 1266              	xStreamBufferSend:
 1267              	.LFB11:
 491:Middlewares/Third_Party/FreeRTOS/Source/stream_buffer.c **** StreamBuffer_t * const pxStreamBuffer = ( StreamBuffer_t * ) xStreamBuffer; /*lint !e9087 !e9079 Sa
 1268              		.loc 1 491 0
 1269              		.cfi_startproc
 1270              		@ args = 0, pretend = 0, frame = 16
 1271              		@ frame_needed = 0, uses_anonymous_args = 0
 1272              	.LVL130:
 1273 0000 2DE9F043 		push	{r4, r5, r6, r7, r8, r9, lr}
 1274              	.LCFI24:
 1275              		.cfi_def_cfa_offset 28
 1276              		.cfi_offset 4, -28
 1277              		.cfi_offset 5, -24
 1278              		.cfi_offset 6, -20
 1279              		.cfi_offset 7, -16
ARM GAS  /tmp/ccvFwc0s.s 			page 49


 1280              		.cfi_offset 8, -12
 1281              		.cfi_offset 9, -8
 1282              		.cfi_offset 14, -4
 1283 0004 87B0     		sub	sp, sp, #28
 1284              	.LCFI25:
 1285              		.cfi_def_cfa_offset 56
 1286 0006 0393     		str	r3, [sp, #12]
 1287              	.LVL131:
 497:Middlewares/Third_Party/FreeRTOS/Source/stream_buffer.c **** 	configASSERT( pxStreamBuffer );
 1288              		.loc 1 497 0
 1289 0008 41B1     		cbz	r1, .L126
 1290 000a 0F46     		mov	r7, r1
 498:Middlewares/Third_Party/FreeRTOS/Source/stream_buffer.c **** 
 1291              		.loc 1 498 0
 1292 000c 78B1     		cbz	r0, .L127
 504:Middlewares/Third_Party/FreeRTOS/Source/stream_buffer.c **** 	{
 1293              		.loc 1 504 0
 1294 000e 037F     		ldrb	r3, [r0, #28]	@ zero_extendqisi2
 1295              	.LVL132:
 1296 0010 13F0010F 		tst	r3, #1
 1297 0014 14D0     		beq	.L123
 506:Middlewares/Third_Party/FreeRTOS/Source/stream_buffer.c **** 	}
 1298              		.loc 1 506 0
 1299 0016 02F10408 		add	r8, r2, #4
 1300              	.LVL133:
 1301 001a 12E0     		b	.L114
 1302              	.LVL134:
 1303              	.L126:
 1304              	.LBB128:
 1305              	.LBB129:
 1306              		.loc 2 195 0
 1307              		.syntax unified
 1308              	@ 195 "Middlewares/Third_Party/FreeRTOS/Source/portable/GCC/ARM_CM3/portmacro.h" 1
 1309 001c 4FF05003 			mov r3, #80												
 1310 0020 83F31188 		msr basepri, r3											
 1311 0024 BFF36F8F 		isb														
 1312 0028 BFF34F8F 		dsb														
 1313              	
 1314              	@ 0 "" 2
 1315              	.LVL135:
 1316              		.thumb
 1317              		.syntax unified
 1318              	.L111:
 1319 002c FEE7     		b	.L111
 1320              	.LVL136:
 1321              	.L127:
 1322              	.LBE129:
 1323              	.LBE128:
 1324              	.LBB130:
 1325              	.LBB131:
 1326              		.syntax unified
 1327              	@ 195 "Middlewares/Third_Party/FreeRTOS/Source/portable/GCC/ARM_CM3/portmacro.h" 1
 1328 002e 4FF05003 			mov r3, #80												
 1329 0032 83F31188 		msr basepri, r3											
 1330 0036 BFF36F8F 		isb														
 1331 003a BFF34F8F 		dsb														
 1332              	
ARM GAS  /tmp/ccvFwc0s.s 			page 50


 1333              	@ 0 "" 2
 1334              	.LVL137:
 1335              		.thumb
 1336              		.syntax unified
 1337              	.L113:
 1338 003e FEE7     		b	.L113
 1339              	.L123:
 1340              	.LBE131:
 1341              	.LBE130:
 494:Middlewares/Third_Party/FreeRTOS/Source/stream_buffer.c **** TimeOut_t xTimeOut;
 1342              		.loc 1 494 0
 1343 0040 9046     		mov	r8, r2
 1344              	.LVL138:
 1345              	.L114:
 1346 0042 1646     		mov	r6, r2
 1347 0044 0446     		mov	r4, r0
 513:Middlewares/Third_Party/FreeRTOS/Source/stream_buffer.c **** 	{
 1348              		.loc 1 513 0
 1349 0046 039B     		ldr	r3, [sp, #12]
 1350 0048 23BB     		cbnz	r3, .L128
 493:Middlewares/Third_Party/FreeRTOS/Source/stream_buffer.c **** size_t xRequiredSpace = xDataLengthBytes;
 1351              		.loc 1 493 0
 1352 004a 0025     		movs	r5, #0
 1353              	.LVL139:
 1354              	.L115:
 553:Middlewares/Third_Party/FreeRTOS/Source/stream_buffer.c **** 	{
 1355              		.loc 1 553 0
 1356 004c 002D     		cmp	r5, #0
 1357 004e 55D0     		beq	.L129
 1358              	.L120:
 562:Middlewares/Third_Party/FreeRTOS/Source/stream_buffer.c **** 
 1359              		.loc 1 562 0
 1360 0050 CDF80080 		str	r8, [sp]
 1361 0054 2B46     		mov	r3, r5
 1362 0056 3246     		mov	r2, r6
 1363 0058 3946     		mov	r1, r7
 1364 005a 2046     		mov	r0, r4
 1365 005c FFF7FEFF 		bl	prvWriteMessageToBuffer
 1366              	.LVL140:
 564:Middlewares/Third_Party/FreeRTOS/Source/stream_buffer.c **** 	{
 1367              		.loc 1 564 0
 1368 0060 0546     		mov	r5, r0
 1369              	.LVL141:
 1370 0062 98B1     		cbz	r0, .L109
 569:Middlewares/Third_Party/FreeRTOS/Source/stream_buffer.c **** 		{
 1371              		.loc 1 569 0
 1372 0064 2046     		mov	r0, r4
 1373              	.LVL142:
 1374 0066 FFF7FEFF 		bl	prvBytesInBuffer
 1375              	.LVL143:
 1376 006a E368     		ldr	r3, [r4, #12]
 1377 006c 9842     		cmp	r0, r3
 1378 006e 0DD3     		bcc	.L109
 571:Middlewares/Third_Party/FreeRTOS/Source/stream_buffer.c **** 		}
 1379              		.loc 1 571 0
 1380 0070 FFF7FEFF 		bl	vTaskSuspendAll
 1381              	.LVL144:
ARM GAS  /tmp/ccvFwc0s.s 			page 51


 1382 0074 2369     		ldr	r3, [r4, #16]
 1383 0076 3BB1     		cbz	r3, .L122
 571:Middlewares/Third_Party/FreeRTOS/Source/stream_buffer.c **** 		}
 1384              		.loc 1 571 0 is_stmt 0 discriminator 1
 1385 0078 2069     		ldr	r0, [r4, #16]
 1386 007a 0023     		movs	r3, #0
 1387 007c 1A46     		mov	r2, r3
 1388 007e 1946     		mov	r1, r3
 1389 0080 FFF7FEFF 		bl	xTaskGenericNotify
 1390              	.LVL145:
 1391 0084 0023     		movs	r3, #0
 1392 0086 2361     		str	r3, [r4, #16]
 1393              	.L122:
 571:Middlewares/Third_Party/FreeRTOS/Source/stream_buffer.c **** 		}
 1394              		.loc 1 571 0 discriminator 3
 1395 0088 FFF7FEFF 		bl	xTaskResumeAll
 1396              	.LVL146:
 1397              	.L109:
 585:Middlewares/Third_Party/FreeRTOS/Source/stream_buffer.c **** /*-----------------------------------------------------------*/
 1398              		.loc 1 585 0 is_stmt 1
 1399 008c 2846     		mov	r0, r5
 1400 008e 07B0     		add	sp, sp, #28
 1401              	.LCFI26:
 1402              		.cfi_remember_state
 1403              		.cfi_def_cfa_offset 28
 1404              		@ sp needed
 1405 0090 BDE8F083 		pop	{r4, r5, r6, r7, r8, r9, pc}
 1406              	.LVL147:
 1407              	.L128:
 1408              	.LCFI27:
 1409              		.cfi_restore_state
 515:Middlewares/Third_Party/FreeRTOS/Source/stream_buffer.c **** 
 1410              		.loc 1 515 0
 1411 0094 04A8     		add	r0, sp, #16
 1412              	.LVL148:
 1413 0096 FFF7FEFF 		bl	vTaskSetTimeOutState
 1414              	.LVL149:
 1415              	.L119:
 521:Middlewares/Third_Party/FreeRTOS/Source/stream_buffer.c **** 			{
 1416              		.loc 1 521 0
 1417 009a FFF7FEFF 		bl	vPortEnterCritical
 1418              	.LVL150:
 523:Middlewares/Third_Party/FreeRTOS/Source/stream_buffer.c **** 
 1419              		.loc 1 523 0
 1420 009e 2046     		mov	r0, r4
 1421 00a0 FFF7FEFF 		bl	xStreamBufferSpacesAvailable
 1422              	.LVL151:
 1423 00a4 0546     		mov	r5, r0
 1424              	.LVL152:
 525:Middlewares/Third_Party/FreeRTOS/Source/stream_buffer.c **** 				{
 1425              		.loc 1 525 0
 1426 00a6 8045     		cmp	r8, r0
 1427 00a8 25D9     		bls	.L116
 528:Middlewares/Third_Party/FreeRTOS/Source/stream_buffer.c **** 
 1428              		.loc 1 528 0
 1429 00aa 0020     		movs	r0, #0
 1430              	.LVL153:
ARM GAS  /tmp/ccvFwc0s.s 			page 52


 1431 00ac FFF7FEFF 		bl	xTaskNotifyStateClear
 1432              	.LVL154:
 531:Middlewares/Third_Party/FreeRTOS/Source/stream_buffer.c **** 					pxStreamBuffer->xTaskWaitingToSend = xTaskGetCurrentTaskHandle();
 1433              		.loc 1 531 0
 1434 00b0 6369     		ldr	r3, [r4, #20]
 1435 00b2 BBB9     		cbnz	r3, .L130
 532:Middlewares/Third_Party/FreeRTOS/Source/stream_buffer.c **** 				}
 1436              		.loc 1 532 0
 1437 00b4 FFF7FEFF 		bl	xTaskGetCurrentTaskHandle
 1438              	.LVL155:
 1439 00b8 6061     		str	r0, [r4, #20]
 540:Middlewares/Third_Party/FreeRTOS/Source/stream_buffer.c **** 
 1440              		.loc 1 540 0
 1441 00ba FFF7FEFF 		bl	vPortExitCritical
 1442              	.LVL156:
 543:Middlewares/Third_Party/FreeRTOS/Source/stream_buffer.c **** 			pxStreamBuffer->xTaskWaitingToSend = NULL;
 1443              		.loc 1 543 0
 1444 00be 0DF11809 		add	r9, sp, #24
 1445 00c2 59F80C3D 		ldr	r3, [r9, #-12]!
 1446 00c6 0022     		movs	r2, #0
 1447 00c8 4FF0FF31 		mov	r1, #-1
 1448 00cc 1046     		mov	r0, r2
 1449 00ce FFF7FEFF 		bl	xTaskNotifyWait
 1450              	.LVL157:
 544:Middlewares/Third_Party/FreeRTOS/Source/stream_buffer.c **** 
 1451              		.loc 1 544 0
 1452 00d2 0023     		movs	r3, #0
 1453 00d4 6361     		str	r3, [r4, #20]
 546:Middlewares/Third_Party/FreeRTOS/Source/stream_buffer.c **** 	}
 1454              		.loc 1 546 0
 1455 00d6 4946     		mov	r1, r9
 1456 00d8 04A8     		add	r0, sp, #16
 1457 00da FFF7FEFF 		bl	xTaskCheckForTimeOut
 1458              	.LVL158:
 1459 00de 0028     		cmp	r0, #0
 1460 00e0 DBD0     		beq	.L119
 1461 00e2 B3E7     		b	.L115
 1462              	.L130:
 1463              	.LBB132:
 1464              	.LBB133:
 1465              		.loc 2 195 0
 1466              		.syntax unified
 1467              	@ 195 "Middlewares/Third_Party/FreeRTOS/Source/portable/GCC/ARM_CM3/portmacro.h" 1
 1468 00e4 4FF05003 			mov r3, #80												
 1469 00e8 83F31188 		msr basepri, r3											
 1470 00ec BFF36F8F 		isb														
 1471 00f0 BFF34F8F 		dsb														
 1472              	
 1473              	@ 0 "" 2
 1474              	.LVL159:
 1475              		.thumb
 1476              		.syntax unified
 1477              	.L118:
 1478 00f4 FEE7     		b	.L118
 1479              	.LVL160:
 1480              	.L116:
 1481              	.LBE133:
ARM GAS  /tmp/ccvFwc0s.s 			page 53


 1482              	.LBE132:
 536:Middlewares/Third_Party/FreeRTOS/Source/stream_buffer.c **** 					break;
 1483              		.loc 1 536 0
 1484 00f6 FFF7FEFF 		bl	vPortExitCritical
 1485              	.LVL161:
 537:Middlewares/Third_Party/FreeRTOS/Source/stream_buffer.c **** 				}
 1486              		.loc 1 537 0
 1487 00fa A7E7     		b	.L115
 1488              	.L129:
 555:Middlewares/Third_Party/FreeRTOS/Source/stream_buffer.c **** 	}
 1489              		.loc 1 555 0
 1490 00fc 2046     		mov	r0, r4
 1491 00fe FFF7FEFF 		bl	xStreamBufferSpacesAvailable
 1492              	.LVL162:
 1493 0102 0546     		mov	r5, r0
 1494              	.LVL163:
 1495 0104 A4E7     		b	.L120
 1496              		.cfi_endproc
 1497              	.LFE11:
 1499              		.section	.text.xStreamBufferSendFromISR,"ax",%progbits
 1500              		.align	1
 1501              		.global	xStreamBufferSendFromISR
 1502              		.syntax unified
 1503              		.thumb
 1504              		.thumb_func
 1505              		.fpu softvfp
 1507              	xStreamBufferSendFromISR:
 1508              	.LFB12:
 592:Middlewares/Third_Party/FreeRTOS/Source/stream_buffer.c **** StreamBuffer_t * const pxStreamBuffer = ( StreamBuffer_t * ) xStreamBuffer; /*lint !e9087 !e9079 Sa
 1509              		.loc 1 592 0
 1510              		.cfi_startproc
 1511              		@ args = 0, pretend = 0, frame = 0
 1512              		@ frame_needed = 0, uses_anonymous_args = 0
 1513              	.LVL164:
 597:Middlewares/Third_Party/FreeRTOS/Source/stream_buffer.c **** 	configASSERT( pxStreamBuffer );
 1514              		.loc 1 597 0
 1515 0000 59B1     		cbz	r1, .L142
 592:Middlewares/Third_Party/FreeRTOS/Source/stream_buffer.c **** StreamBuffer_t * const pxStreamBuffer = ( StreamBuffer_t * ) xStreamBuffer; /*lint !e9087 !e9079 Sa
 1516              		.loc 1 592 0
 1517 0002 2DE9F041 		push	{r4, r5, r6, r7, r8, lr}
 1518              	.LCFI28:
 1519              		.cfi_def_cfa_offset 24
 1520              		.cfi_offset 4, -24
 1521              		.cfi_offset 5, -20
 1522              		.cfi_offset 6, -16
 1523              		.cfi_offset 7, -12
 1524              		.cfi_offset 8, -8
 1525              		.cfi_offset 14, -4
 1526 0006 82B0     		sub	sp, sp, #8
 1527              	.LCFI29:
 1528              		.cfi_def_cfa_offset 32
 1529 0008 0E46     		mov	r6, r1
 598:Middlewares/Third_Party/FreeRTOS/Source/stream_buffer.c **** 
 1530              		.loc 1 598 0
 1531 000a 78B1     		cbz	r0, .L143
 604:Middlewares/Third_Party/FreeRTOS/Source/stream_buffer.c **** 	{
 1532              		.loc 1 604 0
ARM GAS  /tmp/ccvFwc0s.s 			page 54


 1533 000c 017F     		ldrb	r1, [r0, #28]	@ zero_extendqisi2
 1534              	.LVL165:
 1535 000e 11F0010F 		tst	r1, #1
 1536 0012 14D0     		beq	.L139
 606:Middlewares/Third_Party/FreeRTOS/Source/stream_buffer.c **** 	}
 1537              		.loc 1 606 0
 1538 0014 02F10408 		add	r8, r2, #4
 1539              	.LVL166:
 1540 0018 12E0     		b	.L136
 1541              	.LVL167:
 1542              	.L142:
 1543              	.LCFI30:
 1544              		.cfi_def_cfa_offset 0
 1545              		.cfi_restore 4
 1546              		.cfi_restore 5
 1547              		.cfi_restore 6
 1548              		.cfi_restore 7
 1549              		.cfi_restore 8
 1550              		.cfi_restore 14
 1551              	.LBB134:
 1552              	.LBB135:
 1553              		.loc 2 195 0
 1554              		.syntax unified
 1555              	@ 195 "Middlewares/Third_Party/FreeRTOS/Source/portable/GCC/ARM_CM3/portmacro.h" 1
 1556 001a 4FF05003 			mov r3, #80												
 1557 001e 83F31188 		msr basepri, r3											
 1558 0022 BFF36F8F 		isb														
 1559 0026 BFF34F8F 		dsb														
 1560              	
 1561              	@ 0 "" 2
 1562              	.LVL168:
 1563              		.thumb
 1564              		.syntax unified
 1565              	.L133:
 1566 002a FEE7     		b	.L133
 1567              	.LVL169:
 1568              	.L143:
 1569              	.LCFI31:
 1570              		.cfi_def_cfa_offset 32
 1571              		.cfi_offset 4, -24
 1572              		.cfi_offset 5, -20
 1573              		.cfi_offset 6, -16
 1574              		.cfi_offset 7, -12
 1575              		.cfi_offset 8, -8
 1576              		.cfi_offset 14, -4
 1577              	.LBE135:
 1578              	.LBE134:
 1579              	.LBB136:
 1580              	.LBB137:
 1581              		.syntax unified
 1582              	@ 195 "Middlewares/Third_Party/FreeRTOS/Source/portable/GCC/ARM_CM3/portmacro.h" 1
 1583 002c 4FF05003 			mov r3, #80												
 1584 0030 83F31188 		msr basepri, r3											
 1585 0034 BFF36F8F 		isb														
 1586 0038 BFF34F8F 		dsb														
 1587              	
 1588              	@ 0 "" 2
ARM GAS  /tmp/ccvFwc0s.s 			page 55


 1589              	.LVL170:
 1590              		.thumb
 1591              		.syntax unified
 1592              	.L135:
 1593 003c FEE7     		b	.L135
 1594              	.LVL171:
 1595              	.L139:
 1596              	.LBE137:
 1597              	.LBE136:
 595:Middlewares/Third_Party/FreeRTOS/Source/stream_buffer.c **** 
 1598              		.loc 1 595 0
 1599 003e 9046     		mov	r8, r2
 1600              	.LVL172:
 1601              	.L136:
 1602 0040 1F46     		mov	r7, r3
 1603 0042 1546     		mov	r5, r2
 1604 0044 0446     		mov	r4, r0
 613:Middlewares/Third_Party/FreeRTOS/Source/stream_buffer.c **** 	xReturn = prvWriteMessageToBuffer( pxStreamBuffer, pvTxData, xDataLengthBytes, xSpace, xRequiredSp
 1605              		.loc 1 613 0
 1606 0046 FFF7FEFF 		bl	xStreamBufferSpacesAvailable
 1607              	.LVL173:
 614:Middlewares/Third_Party/FreeRTOS/Source/stream_buffer.c **** 
 1608              		.loc 1 614 0
 1609 004a CDF80080 		str	r8, [sp]
 1610 004e 0346     		mov	r3, r0
 1611 0050 2A46     		mov	r2, r5
 1612 0052 3146     		mov	r1, r6
 1613 0054 2046     		mov	r0, r4
 1614              	.LVL174:
 1615 0056 FFF7FEFF 		bl	prvWriteMessageToBuffer
 1616              	.LVL175:
 616:Middlewares/Third_Party/FreeRTOS/Source/stream_buffer.c **** 	{
 1617              		.loc 1 616 0
 1618 005a 0546     		mov	r5, r0
 1619              	.LVL176:
 1620 005c 18B9     		cbnz	r0, .L144
 1621              	.LVL177:
 1622              	.L131:
 636:Middlewares/Third_Party/FreeRTOS/Source/stream_buffer.c **** /*-----------------------------------------------------------*/
 1623              		.loc 1 636 0
 1624 005e 2846     		mov	r0, r5
 1625 0060 02B0     		add	sp, sp, #8
 1626              	.LCFI32:
 1627              		.cfi_remember_state
 1628              		.cfi_def_cfa_offset 24
 1629              		@ sp needed
 1630 0062 BDE8F081 		pop	{r4, r5, r6, r7, r8, pc}
 1631              	.LVL178:
 1632              	.L144:
 1633              	.LCFI33:
 1634              		.cfi_restore_state
 619:Middlewares/Third_Party/FreeRTOS/Source/stream_buffer.c **** 		{
 1635              		.loc 1 619 0
 1636 0066 2046     		mov	r0, r4
 1637              	.LVL179:
 1638 0068 FFF7FEFF 		bl	prvBytesInBuffer
 1639              	.LVL180:
ARM GAS  /tmp/ccvFwc0s.s 			page 56


 1640 006c E368     		ldr	r3, [r4, #12]
 1641 006e 9842     		cmp	r0, r3
 1642 0070 F5D3     		bcc	.L131
 1643              	.LBB138:
 1644              	.LBB139:
 1645              	.LBB140:
 196:Middlewares/Third_Party/FreeRTOS/Source/portable/GCC/ARM_CM3/portmacro.h **** 	(
 197:Middlewares/Third_Party/FreeRTOS/Source/portable/GCC/ARM_CM3/portmacro.h **** 		"	mov %0, %1												\n" \
 198:Middlewares/Third_Party/FreeRTOS/Source/portable/GCC/ARM_CM3/portmacro.h **** 		"	msr basepri, %0											\n" \
 199:Middlewares/Third_Party/FreeRTOS/Source/portable/GCC/ARM_CM3/portmacro.h **** 		"	isb														\n" \
 200:Middlewares/Third_Party/FreeRTOS/Source/portable/GCC/ARM_CM3/portmacro.h **** 		"	dsb														\n" \
 201:Middlewares/Third_Party/FreeRTOS/Source/portable/GCC/ARM_CM3/portmacro.h **** 		:"=r" (ulNewBASEPRI) : "i" ( configMAX_SYSCALL_INTERRUPT_PRIORITY ) : "memory"
 202:Middlewares/Third_Party/FreeRTOS/Source/portable/GCC/ARM_CM3/portmacro.h **** 	);
 203:Middlewares/Third_Party/FreeRTOS/Source/portable/GCC/ARM_CM3/portmacro.h **** }
 204:Middlewares/Third_Party/FreeRTOS/Source/portable/GCC/ARM_CM3/portmacro.h **** 
 205:Middlewares/Third_Party/FreeRTOS/Source/portable/GCC/ARM_CM3/portmacro.h **** /*-----------------------------------------------------------*/
 206:Middlewares/Third_Party/FreeRTOS/Source/portable/GCC/ARM_CM3/portmacro.h **** 
 207:Middlewares/Third_Party/FreeRTOS/Source/portable/GCC/ARM_CM3/portmacro.h **** portFORCE_INLINE static uint32_t ulPortRaiseBASEPRI( void )
 208:Middlewares/Third_Party/FreeRTOS/Source/portable/GCC/ARM_CM3/portmacro.h **** {
 209:Middlewares/Third_Party/FreeRTOS/Source/portable/GCC/ARM_CM3/portmacro.h **** uint32_t ulOriginalBASEPRI, ulNewBASEPRI;
 210:Middlewares/Third_Party/FreeRTOS/Source/portable/GCC/ARM_CM3/portmacro.h **** 
 211:Middlewares/Third_Party/FreeRTOS/Source/portable/GCC/ARM_CM3/portmacro.h **** 	__asm volatile
 1646              		.loc 2 211 0
 1647              		.syntax unified
 1648              	@ 211 "Middlewares/Third_Party/FreeRTOS/Source/portable/GCC/ARM_CM3/portmacro.h" 1
 1649 0072 EFF31186 			mrs r6, basepri											
 1650 0076 4FF05003 		mov r3, #80												
 1651 007a 83F31188 		msr basepri, r3											
 1652 007e BFF36F8F 		isb														
 1653 0082 BFF34F8F 		dsb														
 1654              	
 1655              	@ 0 "" 2
 1656              	.LVL181:
 1657              		.thumb
 1658              		.syntax unified
 1659              	.LBE140:
 1660              	.LBE139:
 621:Middlewares/Third_Party/FreeRTOS/Source/stream_buffer.c **** 		}
 1661              		.loc 1 621 0
 1662 0086 2369     		ldr	r3, [r4, #16]
 1663 0088 43B1     		cbz	r3, .L138
 621:Middlewares/Third_Party/FreeRTOS/Source/stream_buffer.c **** 		}
 1664              		.loc 1 621 0 is_stmt 0 discriminator 1
 1665 008a 2069     		ldr	r0, [r4, #16]
 1666 008c 0097     		str	r7, [sp]
 1667 008e 0023     		movs	r3, #0
 1668 0090 1A46     		mov	r2, r3
 1669 0092 1946     		mov	r1, r3
 1670 0094 FFF7FEFF 		bl	xTaskGenericNotifyFromISR
 1671              	.LVL182:
 1672 0098 0023     		movs	r3, #0
 1673 009a 2361     		str	r3, [r4, #16]
 1674              	.L138:
 1675              	.LVL183:
 1676              	.LBB141:
 1677              	.LBB142:
 212:Middlewares/Third_Party/FreeRTOS/Source/portable/GCC/ARM_CM3/portmacro.h **** 	(
ARM GAS  /tmp/ccvFwc0s.s 			page 57


 213:Middlewares/Third_Party/FreeRTOS/Source/portable/GCC/ARM_CM3/portmacro.h **** 		"	mrs %0, basepri											\n" \
 214:Middlewares/Third_Party/FreeRTOS/Source/portable/GCC/ARM_CM3/portmacro.h **** 		"	mov %1, %2												\n" \
 215:Middlewares/Third_Party/FreeRTOS/Source/portable/GCC/ARM_CM3/portmacro.h **** 		"	msr basepri, %1											\n" \
 216:Middlewares/Third_Party/FreeRTOS/Source/portable/GCC/ARM_CM3/portmacro.h **** 		"	isb														\n" \
 217:Middlewares/Third_Party/FreeRTOS/Source/portable/GCC/ARM_CM3/portmacro.h **** 		"	dsb														\n" \
 218:Middlewares/Third_Party/FreeRTOS/Source/portable/GCC/ARM_CM3/portmacro.h **** 		:"=r" (ulOriginalBASEPRI), "=r" (ulNewBASEPRI) : "i" ( configMAX_SYSCALL_INTERRUPT_PRIORITY ) : "
 219:Middlewares/Third_Party/FreeRTOS/Source/portable/GCC/ARM_CM3/portmacro.h **** 	);
 220:Middlewares/Third_Party/FreeRTOS/Source/portable/GCC/ARM_CM3/portmacro.h **** 
 221:Middlewares/Third_Party/FreeRTOS/Source/portable/GCC/ARM_CM3/portmacro.h **** 	/* This return will not be reached but is necessary to prevent compiler
 222:Middlewares/Third_Party/FreeRTOS/Source/portable/GCC/ARM_CM3/portmacro.h **** 	warnings. */
 223:Middlewares/Third_Party/FreeRTOS/Source/portable/GCC/ARM_CM3/portmacro.h **** 	return ulOriginalBASEPRI;
 224:Middlewares/Third_Party/FreeRTOS/Source/portable/GCC/ARM_CM3/portmacro.h **** }
 225:Middlewares/Third_Party/FreeRTOS/Source/portable/GCC/ARM_CM3/portmacro.h **** /*-----------------------------------------------------------*/
 226:Middlewares/Third_Party/FreeRTOS/Source/portable/GCC/ARM_CM3/portmacro.h **** 
 227:Middlewares/Third_Party/FreeRTOS/Source/portable/GCC/ARM_CM3/portmacro.h **** portFORCE_INLINE static void vPortSetBASEPRI( uint32_t ulNewMaskValue )
 228:Middlewares/Third_Party/FreeRTOS/Source/portable/GCC/ARM_CM3/portmacro.h **** {
 229:Middlewares/Third_Party/FreeRTOS/Source/portable/GCC/ARM_CM3/portmacro.h **** 	__asm volatile
 1678              		.loc 2 229 0 is_stmt 1 discriminator 3
 1679              		.syntax unified
 1680              	@ 229 "Middlewares/Third_Party/FreeRTOS/Source/portable/GCC/ARM_CM3/portmacro.h" 1
 1681 009c 86F31188 			msr basepri, r6	
 1682              	@ 0 "" 2
 1683              		.thumb
 1684              		.syntax unified
 1685              	.LBE142:
 1686              	.LBE141:
 1687              	.LBE138:
 635:Middlewares/Third_Party/FreeRTOS/Source/stream_buffer.c **** }
 1688              		.loc 1 635 0 discriminator 3
 1689 00a0 DDE7     		b	.L131
 1690              		.cfi_endproc
 1691              	.LFE12:
 1693              		.section	.text.xStreamBufferReceive,"ax",%progbits
 1694              		.align	1
 1695              		.global	xStreamBufferReceive
 1696              		.syntax unified
 1697              		.thumb
 1698              		.thumb_func
 1699              		.fpu softvfp
 1701              	xStreamBufferReceive:
 1702              	.LFB14:
 695:Middlewares/Third_Party/FreeRTOS/Source/stream_buffer.c **** StreamBuffer_t * const pxStreamBuffer = ( StreamBuffer_t * ) xStreamBuffer; /*lint !e9087 !e9079 Sa
 1703              		.loc 1 695 0
 1704              		.cfi_startproc
 1705              		@ args = 0, pretend = 0, frame = 0
 1706              		@ frame_needed = 0, uses_anonymous_args = 0
 1707              	.LVL184:
 699:Middlewares/Third_Party/FreeRTOS/Source/stream_buffer.c **** 	configASSERT( pxStreamBuffer );
 1708              		.loc 1 699 0
 1709 0000 21B3     		cbz	r1, .L162
 695:Middlewares/Third_Party/FreeRTOS/Source/stream_buffer.c **** StreamBuffer_t * const pxStreamBuffer = ( StreamBuffer_t * ) xStreamBuffer; /*lint !e9087 !e9079 Sa
 1710              		.loc 1 695 0
 1711 0002 2DE9F043 		push	{r4, r5, r6, r7, r8, r9, lr}
 1712              	.LCFI34:
 1713              		.cfi_def_cfa_offset 28
 1714              		.cfi_offset 4, -28
 1715              		.cfi_offset 5, -24
ARM GAS  /tmp/ccvFwc0s.s 			page 58


 1716              		.cfi_offset 6, -20
 1717              		.cfi_offset 7, -16
 1718              		.cfi_offset 8, -12
 1719              		.cfi_offset 9, -8
 1720              		.cfi_offset 14, -4
 1721 0006 83B0     		sub	sp, sp, #12
 1722              	.LCFI35:
 1723              		.cfi_def_cfa_offset 40
 1724 0008 8846     		mov	r8, r1
 700:Middlewares/Third_Party/FreeRTOS/Source/stream_buffer.c **** 
 1725              		.loc 1 700 0
 1726 000a 40B3     		cbz	r0, .L163
 707:Middlewares/Third_Party/FreeRTOS/Source/stream_buffer.c **** 	{
 1727              		.loc 1 707 0
 1728 000c 017F     		ldrb	r1, [r0, #28]	@ zero_extendqisi2
 1729              	.LVL185:
 1730 000e 11F0010F 		tst	r1, #1
 1731 0012 2DD0     		beq	.L158
 709:Middlewares/Third_Party/FreeRTOS/Source/stream_buffer.c **** 	}
 1732              		.loc 1 709 0
 1733 0014 0426     		movs	r6, #4
 1734              	.L150:
 1735 0016 1F46     		mov	r7, r3
 1736 0018 9146     		mov	r9, r2
 1737 001a 0446     		mov	r4, r0
 1738              	.LVL186:
 716:Middlewares/Third_Party/FreeRTOS/Source/stream_buffer.c **** 	{
 1739              		.loc 1 716 0
 1740 001c 002B     		cmp	r3, #0
 1741 001e 3ED0     		beq	.L151
 720:Middlewares/Third_Party/FreeRTOS/Source/stream_buffer.c **** 		{
 1742              		.loc 1 720 0
 1743 0020 FFF7FEFF 		bl	vPortEnterCritical
 1744              	.LVL187:
 722:Middlewares/Third_Party/FreeRTOS/Source/stream_buffer.c **** 
 1745              		.loc 1 722 0
 1746 0024 2046     		mov	r0, r4
 1747 0026 FFF7FEFF 		bl	prvBytesInBuffer
 1748              	.LVL188:
 1749 002a 0546     		mov	r5, r0
 1750              	.LVL189:
 729:Middlewares/Third_Party/FreeRTOS/Source/stream_buffer.c **** 			{
 1751              		.loc 1 729 0
 1752 002c 8642     		cmp	r6, r0
 1753 002e 24D3     		bcc	.L152
 732:Middlewares/Third_Party/FreeRTOS/Source/stream_buffer.c **** 
 1754              		.loc 1 732 0
 1755 0030 0020     		movs	r0, #0
 1756              	.LVL190:
 1757 0032 FFF7FEFF 		bl	xTaskNotifyStateClear
 1758              	.LVL191:
 735:Middlewares/Third_Party/FreeRTOS/Source/stream_buffer.c **** 				pxStreamBuffer->xTaskWaitingToReceive = xTaskGetCurrentTaskHandle();
 1759              		.loc 1 735 0
 1760 0036 2369     		ldr	r3, [r4, #16]
 1761 0038 E3B1     		cbz	r3, .L153
 1762              	.LBB143:
 1763              	.LBB144:
ARM GAS  /tmp/ccvFwc0s.s 			page 59


 195:Middlewares/Third_Party/FreeRTOS/Source/portable/GCC/ARM_CM3/portmacro.h **** 	(
 1764              		.loc 2 195 0
 1765              		.syntax unified
 1766              	@ 195 "Middlewares/Third_Party/FreeRTOS/Source/portable/GCC/ARM_CM3/portmacro.h" 1
 1767 003a 4FF05003 			mov r3, #80												
 1768 003e 83F31188 		msr basepri, r3											
 1769 0042 BFF36F8F 		isb														
 1770 0046 BFF34F8F 		dsb														
 1771              	
 1772              	@ 0 "" 2
 1773              	.LVL192:
 1774              		.thumb
 1775              		.syntax unified
 1776              	.L154:
 1777 004a FEE7     		b	.L154
 1778              	.LVL193:
 1779              	.L162:
 1780              	.LCFI36:
 1781              		.cfi_def_cfa_offset 0
 1782              		.cfi_restore 4
 1783              		.cfi_restore 5
 1784              		.cfi_restore 6
 1785              		.cfi_restore 7
 1786              		.cfi_restore 8
 1787              		.cfi_restore 9
 1788              		.cfi_restore 14
 1789              	.LBE144:
 1790              	.LBE143:
 1791              	.LBB145:
 1792              	.LBB146:
 1793              		.syntax unified
 1794              	@ 195 "Middlewares/Third_Party/FreeRTOS/Source/portable/GCC/ARM_CM3/portmacro.h" 1
 1795 004c 4FF05003 			mov r3, #80												
 1796 0050 83F31188 		msr basepri, r3											
 1797 0054 BFF36F8F 		isb														
 1798 0058 BFF34F8F 		dsb														
 1799              	
 1800              	@ 0 "" 2
 1801              	.LVL194:
 1802              		.thumb
 1803              		.syntax unified
 1804              	.L147:
 1805 005c FEE7     		b	.L147
 1806              	.LVL195:
 1807              	.L163:
 1808              	.LCFI37:
 1809              		.cfi_def_cfa_offset 40
 1810              		.cfi_offset 4, -28
 1811              		.cfi_offset 5, -24
 1812              		.cfi_offset 6, -20
 1813              		.cfi_offset 7, -16
 1814              		.cfi_offset 8, -12
 1815              		.cfi_offset 9, -8
 1816              		.cfi_offset 14, -4
 1817              	.LBE146:
 1818              	.LBE145:
 1819              	.LBB147:
ARM GAS  /tmp/ccvFwc0s.s 			page 60


 1820              	.LBB148:
 1821              		.syntax unified
 1822              	@ 195 "Middlewares/Third_Party/FreeRTOS/Source/portable/GCC/ARM_CM3/portmacro.h" 1
 1823 005e 4FF05003 			mov r3, #80												
 1824 0062 83F31188 		msr basepri, r3											
 1825 0066 BFF36F8F 		isb														
 1826 006a BFF34F8F 		dsb														
 1827              	
 1828              	@ 0 "" 2
 1829              	.LVL196:
 1830              		.thumb
 1831              		.syntax unified
 1832              	.L149:
 1833 006e FEE7     		b	.L149
 1834              	.LVL197:
 1835              	.L158:
 1836              	.LBE148:
 1837              	.LBE147:
 713:Middlewares/Third_Party/FreeRTOS/Source/stream_buffer.c **** 	}
 1838              		.loc 1 713 0
 1839 0070 0026     		movs	r6, #0
 1840 0072 D0E7     		b	.L150
 1841              	.LVL198:
 1842              	.L153:
 736:Middlewares/Third_Party/FreeRTOS/Source/stream_buffer.c **** 			}
 1843              		.loc 1 736 0
 1844 0074 FFF7FEFF 		bl	xTaskGetCurrentTaskHandle
 1845              	.LVL199:
 1846 0078 2061     		str	r0, [r4, #16]
 1847              	.L152:
 743:Middlewares/Third_Party/FreeRTOS/Source/stream_buffer.c **** 
 1848              		.loc 1 743 0
 1849 007a FFF7FEFF 		bl	vPortExitCritical
 1850              	.LVL200:
 745:Middlewares/Third_Party/FreeRTOS/Source/stream_buffer.c **** 		{
 1851              		.loc 1 745 0
 1852 007e AE42     		cmp	r6, r5
 1853 0080 10D3     		bcc	.L155
 749:Middlewares/Third_Party/FreeRTOS/Source/stream_buffer.c **** 			pxStreamBuffer->xTaskWaitingToReceive = NULL;
 1854              		.loc 1 749 0
 1855 0082 3B46     		mov	r3, r7
 1856 0084 0022     		movs	r2, #0
 1857 0086 4FF0FF31 		mov	r1, #-1
 1858 008a 1046     		mov	r0, r2
 1859 008c FFF7FEFF 		bl	xTaskNotifyWait
 1860              	.LVL201:
 750:Middlewares/Third_Party/FreeRTOS/Source/stream_buffer.c **** 
 1861              		.loc 1 750 0
 1862 0090 0023     		movs	r3, #0
 1863 0092 2361     		str	r3, [r4, #16]
 753:Middlewares/Third_Party/FreeRTOS/Source/stream_buffer.c **** 		}
 1864              		.loc 1 753 0
 1865 0094 2046     		mov	r0, r4
 1866 0096 FFF7FEFF 		bl	prvBytesInBuffer
 1867              	.LVL202:
 1868 009a 0546     		mov	r5, r0
 1869              	.LVL203:
ARM GAS  /tmp/ccvFwc0s.s 			page 61


 1870 009c 02E0     		b	.L155
 1871              	.LVL204:
 1872              	.L151:
 762:Middlewares/Third_Party/FreeRTOS/Source/stream_buffer.c **** 	}
 1873              		.loc 1 762 0
 1874 009e FFF7FEFF 		bl	prvBytesInBuffer
 1875              	.LVL205:
 1876 00a2 0546     		mov	r5, r0
 1877              	.LVL206:
 1878              	.L155:
 770:Middlewares/Third_Party/FreeRTOS/Source/stream_buffer.c **** 	{
 1879              		.loc 1 770 0
 1880 00a4 B542     		cmp	r5, r6
 1881 00a6 04D8     		bhi	.L164
 697:Middlewares/Third_Party/FreeRTOS/Source/stream_buffer.c **** 
 1882              		.loc 1 697 0
 1883 00a8 0025     		movs	r5, #0
 1884              	.LVL207:
 1885              	.L145:
 792:Middlewares/Third_Party/FreeRTOS/Source/stream_buffer.c **** /*-----------------------------------------------------------*/
 1886              		.loc 1 792 0
 1887 00aa 2846     		mov	r0, r5
 1888 00ac 03B0     		add	sp, sp, #12
 1889              	.LCFI38:
 1890              		.cfi_remember_state
 1891              		.cfi_def_cfa_offset 28
 1892              		@ sp needed
 1893 00ae BDE8F083 		pop	{r4, r5, r6, r7, r8, r9, pc}
 1894              	.LVL208:
 1895              	.L164:
 1896              	.LCFI39:
 1897              		.cfi_restore_state
 772:Middlewares/Third_Party/FreeRTOS/Source/stream_buffer.c **** 
 1898              		.loc 1 772 0
 1899 00b2 0096     		str	r6, [sp]
 1900 00b4 2B46     		mov	r3, r5
 1901 00b6 4A46     		mov	r2, r9
 1902 00b8 4146     		mov	r1, r8
 1903 00ba 2046     		mov	r0, r4
 1904 00bc FFF7FEFF 		bl	prvReadMessageFromBuffer
 1905              	.LVL209:
 775:Middlewares/Third_Party/FreeRTOS/Source/stream_buffer.c **** 		{
 1906              		.loc 1 775 0
 1907 00c0 0546     		mov	r5, r0
 1908              	.LVL210:
 1909 00c2 0028     		cmp	r0, #0
 1910 00c4 F1D0     		beq	.L145
 778:Middlewares/Third_Party/FreeRTOS/Source/stream_buffer.c **** 		}
 1911              		.loc 1 778 0
 1912 00c6 FFF7FEFF 		bl	vTaskSuspendAll
 1913              	.LVL211:
 1914 00ca 6369     		ldr	r3, [r4, #20]
 1915 00cc 3BB1     		cbz	r3, .L157
 778:Middlewares/Third_Party/FreeRTOS/Source/stream_buffer.c **** 		}
 1916              		.loc 1 778 0 is_stmt 0 discriminator 1
 1917 00ce 6069     		ldr	r0, [r4, #20]
 1918 00d0 0023     		movs	r3, #0
ARM GAS  /tmp/ccvFwc0s.s 			page 62


 1919 00d2 1A46     		mov	r2, r3
 1920 00d4 1946     		mov	r1, r3
 1921 00d6 FFF7FEFF 		bl	xTaskGenericNotify
 1922              	.LVL212:
 1923 00da 0023     		movs	r3, #0
 1924 00dc 6361     		str	r3, [r4, #20]
 1925              	.L157:
 778:Middlewares/Third_Party/FreeRTOS/Source/stream_buffer.c **** 		}
 1926              		.loc 1 778 0 discriminator 3
 1927 00de FFF7FEFF 		bl	xTaskResumeAll
 1928              	.LVL213:
 1929 00e2 E2E7     		b	.L145
 1930              		.cfi_endproc
 1931              	.LFE14:
 1933              		.section	.text.xStreamBufferReceiveFromISR,"ax",%progbits
 1934              		.align	1
 1935              		.global	xStreamBufferReceiveFromISR
 1936              		.syntax unified
 1937              		.thumb
 1938              		.thumb_func
 1939              		.fpu softvfp
 1941              	xStreamBufferReceiveFromISR:
 1942              	.LFB15:
 799:Middlewares/Third_Party/FreeRTOS/Source/stream_buffer.c **** StreamBuffer_t * const pxStreamBuffer = ( StreamBuffer_t * ) xStreamBuffer; /*lint !e9087 !e9079 Sa
 1943              		.loc 1 799 0 is_stmt 1
 1944              		.cfi_startproc
 1945              		@ args = 0, pretend = 0, frame = 0
 1946              		@ frame_needed = 0, uses_anonymous_args = 0
 1947              	.LVL214:
 803:Middlewares/Third_Party/FreeRTOS/Source/stream_buffer.c **** 	configASSERT( pxStreamBuffer );
 1948              		.loc 1 803 0
 1949 0000 B1B1     		cbz	r1, .L177
 799:Middlewares/Third_Party/FreeRTOS/Source/stream_buffer.c **** StreamBuffer_t * const pxStreamBuffer = ( StreamBuffer_t * ) xStreamBuffer; /*lint !e9087 !e9079 Sa
 1950              		.loc 1 799 0
 1951 0002 2DE9F041 		push	{r4, r5, r6, r7, r8, lr}
 1952              	.LCFI40:
 1953              		.cfi_def_cfa_offset 24
 1954              		.cfi_offset 4, -24
 1955              		.cfi_offset 5, -20
 1956              		.cfi_offset 6, -16
 1957              		.cfi_offset 7, -12
 1958              		.cfi_offset 8, -8
 1959              		.cfi_offset 14, -4
 1960 0006 82B0     		sub	sp, sp, #8
 1961              	.LCFI41:
 1962              		.cfi_def_cfa_offset 32
 1963 0008 0D46     		mov	r5, r1
 804:Middlewares/Third_Party/FreeRTOS/Source/stream_buffer.c **** 
 1964              		.loc 1 804 0
 1965 000a D0B1     		cbz	r0, .L178
 811:Middlewares/Third_Party/FreeRTOS/Source/stream_buffer.c **** 	{
 1966              		.loc 1 811 0
 1967 000c 017F     		ldrb	r1, [r0, #28]	@ zero_extendqisi2
 1968              	.LVL215:
 1969 000e 11F0010F 		tst	r1, #1
 1970 0012 1FD0     		beq	.L173
 813:Middlewares/Third_Party/FreeRTOS/Source/stream_buffer.c **** 	}
ARM GAS  /tmp/ccvFwc0s.s 			page 63


 1971              		.loc 1 813 0
 1972 0014 0427     		movs	r7, #4
 1973              	.L170:
 1974 0016 9846     		mov	r8, r3
 1975 0018 1646     		mov	r6, r2
 1976 001a 0446     		mov	r4, r0
 1977              	.LVL216:
 820:Middlewares/Third_Party/FreeRTOS/Source/stream_buffer.c **** 
 1978              		.loc 1 820 0
 1979 001c FFF7FEFF 		bl	prvBytesInBuffer
 1980              	.LVL217:
 1981 0020 0346     		mov	r3, r0
 1982              	.LVL218:
 827:Middlewares/Third_Party/FreeRTOS/Source/stream_buffer.c **** 	{
 1983              		.loc 1 827 0
 1984 0022 8742     		cmp	r7, r0
 1985 0024 18D3     		bcc	.L179
 801:Middlewares/Third_Party/FreeRTOS/Source/stream_buffer.c **** 
 1986              		.loc 1 801 0
 1987 0026 0025     		movs	r5, #0
 1988              	.LVL219:
 1989              	.L165:
 849:Middlewares/Third_Party/FreeRTOS/Source/stream_buffer.c **** /*-----------------------------------------------------------*/
 1990              		.loc 1 849 0
 1991 0028 2846     		mov	r0, r5
 1992 002a 02B0     		add	sp, sp, #8
 1993              	.LCFI42:
 1994              		.cfi_def_cfa_offset 24
 1995              		@ sp needed
 1996 002c BDE8F081 		pop	{r4, r5, r6, r7, r8, pc}
 1997              	.LVL220:
 1998              	.L177:
 1999              	.LCFI43:
 2000              		.cfi_def_cfa_offset 0
 2001              		.cfi_restore 4
 2002              		.cfi_restore 5
 2003              		.cfi_restore 6
 2004              		.cfi_restore 7
 2005              		.cfi_restore 8
 2006              		.cfi_restore 14
 2007              	.LBB149:
 2008              	.LBB150:
 195:Middlewares/Third_Party/FreeRTOS/Source/portable/GCC/ARM_CM3/portmacro.h **** 	(
 2009              		.loc 2 195 0
 2010              		.syntax unified
 2011              	@ 195 "Middlewares/Third_Party/FreeRTOS/Source/portable/GCC/ARM_CM3/portmacro.h" 1
 2012 0030 4FF05003 			mov r3, #80												
 2013 0034 83F31188 		msr basepri, r3											
 2014 0038 BFF36F8F 		isb														
 2015 003c BFF34F8F 		dsb														
 2016              	
 2017              	@ 0 "" 2
 2018              	.LVL221:
 2019              		.thumb
 2020              		.syntax unified
 2021              	.L167:
 2022 0040 FEE7     		b	.L167
ARM GAS  /tmp/ccvFwc0s.s 			page 64


 2023              	.LVL222:
 2024              	.L178:
 2025              	.LCFI44:
 2026              		.cfi_def_cfa_offset 32
 2027              		.cfi_offset 4, -24
 2028              		.cfi_offset 5, -20
 2029              		.cfi_offset 6, -16
 2030              		.cfi_offset 7, -12
 2031              		.cfi_offset 8, -8
 2032              		.cfi_offset 14, -4
 2033              	.LBE150:
 2034              	.LBE149:
 2035              	.LBB151:
 2036              	.LBB152:
 2037              		.syntax unified
 2038              	@ 195 "Middlewares/Third_Party/FreeRTOS/Source/portable/GCC/ARM_CM3/portmacro.h" 1
 2039 0042 4FF05003 			mov r3, #80												
 2040 0046 83F31188 		msr basepri, r3											
 2041 004a BFF36F8F 		isb														
 2042 004e BFF34F8F 		dsb														
 2043              	
 2044              	@ 0 "" 2
 2045              	.LVL223:
 2046              		.thumb
 2047              		.syntax unified
 2048              	.L169:
 2049 0052 FEE7     		b	.L169
 2050              	.LVL224:
 2051              	.L173:
 2052              	.LBE152:
 2053              	.LBE151:
 817:Middlewares/Third_Party/FreeRTOS/Source/stream_buffer.c **** 	}
 2054              		.loc 1 817 0
 2055 0054 0027     		movs	r7, #0
 2056 0056 DEE7     		b	.L170
 2057              	.LVL225:
 2058              	.L179:
 829:Middlewares/Third_Party/FreeRTOS/Source/stream_buffer.c **** 
 2059              		.loc 1 829 0
 2060 0058 0097     		str	r7, [sp]
 2061 005a 3246     		mov	r2, r6
 2062 005c 2946     		mov	r1, r5
 2063 005e 2046     		mov	r0, r4
 2064              	.LVL226:
 2065 0060 FFF7FEFF 		bl	prvReadMessageFromBuffer
 2066              	.LVL227:
 832:Middlewares/Third_Party/FreeRTOS/Source/stream_buffer.c **** 		{
 2067              		.loc 1 832 0
 2068 0064 0546     		mov	r5, r0
 2069              	.LVL228:
 2070 0066 0028     		cmp	r0, #0
 2071 0068 DED0     		beq	.L165
 2072              	.LBB153:
 2073              	.LBB154:
 2074              	.LBB155:
 211:Middlewares/Third_Party/FreeRTOS/Source/portable/GCC/ARM_CM3/portmacro.h **** 	(
 2075              		.loc 2 211 0
ARM GAS  /tmp/ccvFwc0s.s 			page 65


 2076              		.syntax unified
 2077              	@ 211 "Middlewares/Third_Party/FreeRTOS/Source/portable/GCC/ARM_CM3/portmacro.h" 1
 2078 006a EFF31186 			mrs r6, basepri											
 2079 006e 4FF05003 		mov r3, #80												
 2080 0072 83F31188 		msr basepri, r3											
 2081 0076 BFF36F8F 		isb														
 2082 007a BFF34F8F 		dsb														
 2083              	
 2084              	@ 0 "" 2
 2085              	.LVL229:
 2086              		.thumb
 2087              		.syntax unified
 2088              	.LBE155:
 2089              	.LBE154:
 834:Middlewares/Third_Party/FreeRTOS/Source/stream_buffer.c **** 		}
 2090              		.loc 1 834 0
 2091 007e 6369     		ldr	r3, [r4, #20]
 2092 0080 4BB1     		cbz	r3, .L172
 834:Middlewares/Third_Party/FreeRTOS/Source/stream_buffer.c **** 		}
 2093              		.loc 1 834 0 is_stmt 0 discriminator 1
 2094 0082 6069     		ldr	r0, [r4, #20]
 2095              	.LVL230:
 2096 0084 CDF80080 		str	r8, [sp]
 2097 0088 0023     		movs	r3, #0
 2098 008a 1A46     		mov	r2, r3
 2099 008c 1946     		mov	r1, r3
 2100 008e FFF7FEFF 		bl	xTaskGenericNotifyFromISR
 2101              	.LVL231:
 2102 0092 0023     		movs	r3, #0
 2103 0094 6361     		str	r3, [r4, #20]
 2104              	.L172:
 2105              	.LVL232:
 2106              	.LBB156:
 2107              	.LBB157:
 2108              		.loc 2 229 0 is_stmt 1 discriminator 3
 2109              		.syntax unified
 2110              	@ 229 "Middlewares/Third_Party/FreeRTOS/Source/portable/GCC/ARM_CM3/portmacro.h" 1
 2111 0096 86F31188 			msr basepri, r6	
 2112              	@ 0 "" 2
 2113              		.thumb
 2114              		.syntax unified
 2115 009a C5E7     		b	.L165
 2116              	.LBE157:
 2117              	.LBE156:
 2118              	.LBE153:
 2119              		.cfi_endproc
 2120              	.LFE15:
 2122              		.section	.text.xStreamBufferIsEmpty,"ax",%progbits
 2123              		.align	1
 2124              		.global	xStreamBufferIsEmpty
 2125              		.syntax unified
 2126              		.thumb
 2127              		.thumb_func
 2128              		.fpu softvfp
 2130              	xStreamBufferIsEmpty:
 2131              	.LFB17:
 903:Middlewares/Third_Party/FreeRTOS/Source/stream_buffer.c **** const StreamBuffer_t * const pxStreamBuffer = ( StreamBuffer_t * ) xStreamBuffer; /*lint !e9087 !e9
ARM GAS  /tmp/ccvFwc0s.s 			page 66


 2132              		.loc 1 903 0
 2133              		.cfi_startproc
 2134              		@ args = 0, pretend = 0, frame = 0
 2135              		@ frame_needed = 0, uses_anonymous_args = 0
 2136              		@ link register save eliminated.
 2137              	.LVL233:
 908:Middlewares/Third_Party/FreeRTOS/Source/stream_buffer.c **** 
 2138              		.loc 1 908 0
 2139 0000 28B1     		cbz	r0, .L185
 911:Middlewares/Third_Party/FreeRTOS/Source/stream_buffer.c **** 	if( pxStreamBuffer->xHead == xTail )
 2140              		.loc 1 911 0
 2141 0002 0268     		ldr	r2, [r0]
 2142              	.LVL234:
 912:Middlewares/Third_Party/FreeRTOS/Source/stream_buffer.c **** 	{
 2143              		.loc 1 912 0
 2144 0004 4368     		ldr	r3, [r0, #4]
 2145 0006 9A42     		cmp	r2, r3
 2146 0008 0AD0     		beq	.L186
 918:Middlewares/Third_Party/FreeRTOS/Source/stream_buffer.c **** 	}
 2147              		.loc 1 918 0
 2148 000a 0020     		movs	r0, #0
 2149              	.LVL235:
 922:Middlewares/Third_Party/FreeRTOS/Source/stream_buffer.c **** /*-----------------------------------------------------------*/
 2150              		.loc 1 922 0
 2151 000c 7047     		bx	lr
 2152              	.LVL236:
 2153              	.L185:
 2154              	.LBB158:
 2155              	.LBB159:
 195:Middlewares/Third_Party/FreeRTOS/Source/portable/GCC/ARM_CM3/portmacro.h **** 	(
 2156              		.loc 2 195 0
 2157              		.syntax unified
 2158              	@ 195 "Middlewares/Third_Party/FreeRTOS/Source/portable/GCC/ARM_CM3/portmacro.h" 1
 2159 000e 4FF05003 			mov r3, #80												
 2160 0012 83F31188 		msr basepri, r3											
 2161 0016 BFF36F8F 		isb														
 2162 001a BFF34F8F 		dsb														
 2163              	
 2164              	@ 0 "" 2
 2165              	.LVL237:
 2166              		.thumb
 2167              		.syntax unified
 2168              	.L182:
 2169 001e FEE7     		b	.L182
 2170              	.LVL238:
 2171              	.L186:
 2172              	.LBE159:
 2173              	.LBE158:
 914:Middlewares/Third_Party/FreeRTOS/Source/stream_buffer.c **** 	}
 2174              		.loc 1 914 0
 2175 0020 0120     		movs	r0, #1
 2176              	.LVL239:
 2177 0022 7047     		bx	lr
 2178              		.cfi_endproc
 2179              	.LFE17:
 2181              		.section	.text.xStreamBufferIsFull,"ax",%progbits
 2182              		.align	1
ARM GAS  /tmp/ccvFwc0s.s 			page 67


 2183              		.global	xStreamBufferIsFull
 2184              		.syntax unified
 2185              		.thumb
 2186              		.thumb_func
 2187              		.fpu softvfp
 2189              	xStreamBufferIsFull:
 2190              	.LFB18:
 926:Middlewares/Third_Party/FreeRTOS/Source/stream_buffer.c **** BaseType_t xReturn;
 2191              		.loc 1 926 0
 2192              		.cfi_startproc
 2193              		@ args = 0, pretend = 0, frame = 0
 2194              		@ frame_needed = 0, uses_anonymous_args = 0
 2195              	.LVL240:
 931:Middlewares/Third_Party/FreeRTOS/Source/stream_buffer.c **** 
 2196              		.loc 1 931 0
 2197 0000 68B1     		cbz	r0, .L196
 926:Middlewares/Third_Party/FreeRTOS/Source/stream_buffer.c **** BaseType_t xReturn;
 2198              		.loc 1 926 0
 2199 0002 10B5     		push	{r4, lr}
 2200              	.LCFI45:
 2201              		.cfi_def_cfa_offset 8
 2202              		.cfi_offset 4, -8
 2203              		.cfi_offset 14, -4
 2204 0004 0346     		mov	r3, r0
 937:Middlewares/Third_Party/FreeRTOS/Source/stream_buffer.c **** 	{
 2205              		.loc 1 937 0
 2206 0006 027F     		ldrb	r2, [r0, #28]	@ zero_extendqisi2
 2207 0008 12F0010F 		tst	r2, #1
 2208 000c 10D0     		beq	.L192
 939:Middlewares/Third_Party/FreeRTOS/Source/stream_buffer.c **** 	}
 2209              		.loc 1 939 0
 2210 000e 0424     		movs	r4, #4
 2211              	.L190:
 2212 0010 1846     		mov	r0, r3
 2213              	.LVL241:
 947:Middlewares/Third_Party/FreeRTOS/Source/stream_buffer.c **** 	{
 2214              		.loc 1 947 0
 2215 0012 FFF7FEFF 		bl	xStreamBufferSpacesAvailable
 2216              	.LVL242:
 2217 0016 8442     		cmp	r4, r0
 2218 0018 0CD2     		bcs	.L197
 953:Middlewares/Third_Party/FreeRTOS/Source/stream_buffer.c **** 	}
 2219              		.loc 1 953 0
 2220 001a 0020     		movs	r0, #0
 2221              	.LVL243:
 957:Middlewares/Third_Party/FreeRTOS/Source/stream_buffer.c **** /*-----------------------------------------------------------*/
 2222              		.loc 1 957 0
 2223 001c 10BD     		pop	{r4, pc}
 2224              	.LVL244:
 2225              	.L196:
 2226              	.LCFI46:
 2227              		.cfi_def_cfa_offset 0
 2228              		.cfi_restore 4
 2229              		.cfi_restore 14
 2230              	.LBB160:
 2231              	.LBB161:
 195:Middlewares/Third_Party/FreeRTOS/Source/portable/GCC/ARM_CM3/portmacro.h **** 	(
ARM GAS  /tmp/ccvFwc0s.s 			page 68


 2232              		.loc 2 195 0
 2233              		.syntax unified
 2234              	@ 195 "Middlewares/Third_Party/FreeRTOS/Source/portable/GCC/ARM_CM3/portmacro.h" 1
 2235 001e 4FF05003 			mov r3, #80												
 2236 0022 83F31188 		msr basepri, r3											
 2237 0026 BFF36F8F 		isb														
 2238 002a BFF34F8F 		dsb														
 2239              	
 2240              	@ 0 "" 2
 2241              	.LVL245:
 2242              		.thumb
 2243              		.syntax unified
 2244              	.L189:
 2245 002e FEE7     		b	.L189
 2246              	.L192:
 2247              	.LCFI47:
 2248              		.cfi_def_cfa_offset 8
 2249              		.cfi_offset 4, -8
 2250              		.cfi_offset 14, -4
 2251              	.LBE161:
 2252              	.LBE160:
 943:Middlewares/Third_Party/FreeRTOS/Source/stream_buffer.c **** 	}
 2253              		.loc 1 943 0
 2254 0030 0024     		movs	r4, #0
 2255 0032 EDE7     		b	.L190
 2256              	.LVL246:
 2257              	.L197:
 949:Middlewares/Third_Party/FreeRTOS/Source/stream_buffer.c **** 	}
 2258              		.loc 1 949 0
 2259 0034 0120     		movs	r0, #1
 2260 0036 10BD     		pop	{r4, pc}
 2261              		.cfi_endproc
 2262              	.LFE18:
 2264              		.section	.text.xStreamBufferSendCompletedFromISR,"ax",%progbits
 2265              		.align	1
 2266              		.global	xStreamBufferSendCompletedFromISR
 2267              		.syntax unified
 2268              		.thumb
 2269              		.thumb_func
 2270              		.fpu softvfp
 2272              	xStreamBufferSendCompletedFromISR:
 2273              	.LFB19:
 961:Middlewares/Third_Party/FreeRTOS/Source/stream_buffer.c **** StreamBuffer_t * const pxStreamBuffer = ( StreamBuffer_t * ) xStreamBuffer; /*lint !e9087 !e9079 Sa
 2274              		.loc 1 961 0
 2275              		.cfi_startproc
 2276              		@ args = 0, pretend = 0, frame = 0
 2277              		@ frame_needed = 0, uses_anonymous_args = 0
 2278              	.LVL247:
 966:Middlewares/Third_Party/FreeRTOS/Source/stream_buffer.c **** 
 2279              		.loc 1 966 0
 2280 0000 E0B1     		cbz	r0, .L205
 961:Middlewares/Third_Party/FreeRTOS/Source/stream_buffer.c **** StreamBuffer_t * const pxStreamBuffer = ( StreamBuffer_t * ) xStreamBuffer; /*lint !e9087 !e9079 Sa
 2281              		.loc 1 961 0
 2282 0002 30B5     		push	{r4, r5, lr}
 2283              	.LCFI48:
 2284              		.cfi_def_cfa_offset 12
 2285              		.cfi_offset 4, -12
ARM GAS  /tmp/ccvFwc0s.s 			page 69


 2286              		.cfi_offset 5, -8
 2287              		.cfi_offset 14, -4
 2288 0004 83B0     		sub	sp, sp, #12
 2289              	.LCFI49:
 2290              		.cfi_def_cfa_offset 24
 2291 0006 0446     		mov	r4, r0
 2292              	.LBB162:
 2293              	.LBB163:
 211:Middlewares/Third_Party/FreeRTOS/Source/portable/GCC/ARM_CM3/portmacro.h **** 	(
 2294              		.loc 2 211 0
 2295              		.syntax unified
 2296              	@ 211 "Middlewares/Third_Party/FreeRTOS/Source/portable/GCC/ARM_CM3/portmacro.h" 1
 2297 0008 EFF31185 			mrs r5, basepri											
 2298 000c 4FF05003 		mov r3, #80												
 2299 0010 83F31188 		msr basepri, r3											
 2300 0014 BFF36F8F 		isb														
 2301 0018 BFF34F8F 		dsb														
 2302              	
 2303              	@ 0 "" 2
 2304              		.thumb
 2305              		.syntax unified
 2306              	.LBE163:
 2307              	.LBE162:
 970:Middlewares/Third_Party/FreeRTOS/Source/stream_buffer.c **** 		{
 2308              		.loc 1 970 0
 2309 001c 0369     		ldr	r3, [r0, #16]
 2310 001e B3B1     		cbz	r3, .L202
 972:Middlewares/Third_Party/FreeRTOS/Source/stream_buffer.c **** 										 ( uint32_t ) 0,
 2311              		.loc 1 972 0
 2312 0020 0069     		ldr	r0, [r0, #16]
 2313              	.LVL248:
 2314 0022 0091     		str	r1, [sp]
 2315 0024 0023     		movs	r3, #0
 2316 0026 1A46     		mov	r2, r3
 2317 0028 1946     		mov	r1, r3
 2318              	.LVL249:
 2319 002a FFF7FEFF 		bl	xTaskGenericNotifyFromISR
 2320              	.LVL250:
 976:Middlewares/Third_Party/FreeRTOS/Source/stream_buffer.c **** 			xReturn = pdTRUE;
 2321              		.loc 1 976 0
 2322 002e 0023     		movs	r3, #0
 2323 0030 2361     		str	r3, [r4, #16]
 2324              	.LVL251:
 977:Middlewares/Third_Party/FreeRTOS/Source/stream_buffer.c **** 		}
 2325              		.loc 1 977 0
 2326 0032 0120     		movs	r0, #1
 2327              	.LVL252:
 2328              	.L201:
 2329              	.LBB164:
 2330              	.LBB165:
 2331              		.loc 2 229 0
 2332              		.syntax unified
 2333              	@ 229 "Middlewares/Third_Party/FreeRTOS/Source/portable/GCC/ARM_CM3/portmacro.h" 1
 2334 0034 85F31188 			msr basepri, r5	
 2335              	@ 0 "" 2
 2336              	.LVL253:
 2337              		.thumb
ARM GAS  /tmp/ccvFwc0s.s 			page 70


 2338              		.syntax unified
 2339              	.LBE165:
 2340              	.LBE164:
 987:Middlewares/Third_Party/FreeRTOS/Source/stream_buffer.c **** /*-----------------------------------------------------------*/
 2341              		.loc 1 987 0
 2342 0038 03B0     		add	sp, sp, #12
 2343              	.LCFI50:
 2344              		.cfi_def_cfa_offset 12
 2345              		@ sp needed
 2346 003a 30BD     		pop	{r4, r5, pc}
 2347              	.LVL254:
 2348              	.L205:
 2349              	.LCFI51:
 2350              		.cfi_def_cfa_offset 0
 2351              		.cfi_restore 4
 2352              		.cfi_restore 5
 2353              		.cfi_restore 14
 2354              	.LBB166:
 2355              	.LBB167:
 195:Middlewares/Third_Party/FreeRTOS/Source/portable/GCC/ARM_CM3/portmacro.h **** 	(
 2356              		.loc 2 195 0
 2357              		.syntax unified
 2358              	@ 195 "Middlewares/Third_Party/FreeRTOS/Source/portable/GCC/ARM_CM3/portmacro.h" 1
 2359 003c 4FF05003 			mov r3, #80												
 2360 0040 83F31188 		msr basepri, r3											
 2361 0044 BFF36F8F 		isb														
 2362 0048 BFF34F8F 		dsb														
 2363              	
 2364              	@ 0 "" 2
 2365              	.LVL255:
 2366              		.thumb
 2367              		.syntax unified
 2368              	.L200:
 2369 004c FEE7     		b	.L200
 2370              	.L202:
 2371              	.LCFI52:
 2372              		.cfi_def_cfa_offset 24
 2373              		.cfi_offset 4, -12
 2374              		.cfi_offset 5, -8
 2375              		.cfi_offset 14, -4
 2376              	.LBE167:
 2377              	.LBE166:
 981:Middlewares/Third_Party/FreeRTOS/Source/stream_buffer.c **** 		}
 2378              		.loc 1 981 0
 2379 004e 0020     		movs	r0, #0
 2380              	.LVL256:
 2381 0050 F0E7     		b	.L201
 2382              		.cfi_endproc
 2383              	.LFE19:
 2385              		.section	.text.xStreamBufferReceiveCompletedFromISR,"ax",%progbits
 2386              		.align	1
 2387              		.global	xStreamBufferReceiveCompletedFromISR
 2388              		.syntax unified
 2389              		.thumb
 2390              		.thumb_func
 2391              		.fpu softvfp
 2393              	xStreamBufferReceiveCompletedFromISR:
ARM GAS  /tmp/ccvFwc0s.s 			page 71


 2394              	.LFB20:
 991:Middlewares/Third_Party/FreeRTOS/Source/stream_buffer.c **** StreamBuffer_t * const pxStreamBuffer = ( StreamBuffer_t * ) xStreamBuffer; /*lint !e9087 !e9079 Sa
 2395              		.loc 1 991 0
 2396              		.cfi_startproc
 2397              		@ args = 0, pretend = 0, frame = 0
 2398              		@ frame_needed = 0, uses_anonymous_args = 0
 2399              	.LVL257:
 996:Middlewares/Third_Party/FreeRTOS/Source/stream_buffer.c **** 
 2400              		.loc 1 996 0
 2401 0000 E0B1     		cbz	r0, .L213
 991:Middlewares/Third_Party/FreeRTOS/Source/stream_buffer.c **** StreamBuffer_t * const pxStreamBuffer = ( StreamBuffer_t * ) xStreamBuffer; /*lint !e9087 !e9079 Sa
 2402              		.loc 1 991 0
 2403 0002 30B5     		push	{r4, r5, lr}
 2404              	.LCFI53:
 2405              		.cfi_def_cfa_offset 12
 2406              		.cfi_offset 4, -12
 2407              		.cfi_offset 5, -8
 2408              		.cfi_offset 14, -4
 2409 0004 83B0     		sub	sp, sp, #12
 2410              	.LCFI54:
 2411              		.cfi_def_cfa_offset 24
 2412 0006 0446     		mov	r4, r0
 2413              	.LBB168:
 2414              	.LBB169:
 211:Middlewares/Third_Party/FreeRTOS/Source/portable/GCC/ARM_CM3/portmacro.h **** 	(
 2415              		.loc 2 211 0
 2416              		.syntax unified
 2417              	@ 211 "Middlewares/Third_Party/FreeRTOS/Source/portable/GCC/ARM_CM3/portmacro.h" 1
 2418 0008 EFF31185 			mrs r5, basepri											
 2419 000c 4FF05003 		mov r3, #80												
 2420 0010 83F31188 		msr basepri, r3											
 2421 0014 BFF36F8F 		isb														
 2422 0018 BFF34F8F 		dsb														
 2423              	
 2424              	@ 0 "" 2
 2425              		.thumb
 2426              		.syntax unified
 2427              	.LBE169:
 2428              	.LBE168:
1000:Middlewares/Third_Party/FreeRTOS/Source/stream_buffer.c **** 		{
 2429              		.loc 1 1000 0
 2430 001c 4369     		ldr	r3, [r0, #20]
 2431 001e B3B1     		cbz	r3, .L210
1002:Middlewares/Third_Party/FreeRTOS/Source/stream_buffer.c **** 										 ( uint32_t ) 0,
 2432              		.loc 1 1002 0
 2433 0020 4069     		ldr	r0, [r0, #20]
 2434              	.LVL258:
 2435 0022 0091     		str	r1, [sp]
 2436 0024 0023     		movs	r3, #0
 2437 0026 1A46     		mov	r2, r3
 2438 0028 1946     		mov	r1, r3
 2439              	.LVL259:
 2440 002a FFF7FEFF 		bl	xTaskGenericNotifyFromISR
 2441              	.LVL260:
1006:Middlewares/Third_Party/FreeRTOS/Source/stream_buffer.c **** 			xReturn = pdTRUE;
 2442              		.loc 1 1006 0
 2443 002e 0023     		movs	r3, #0
ARM GAS  /tmp/ccvFwc0s.s 			page 72


 2444 0030 6361     		str	r3, [r4, #20]
 2445              	.LVL261:
1007:Middlewares/Third_Party/FreeRTOS/Source/stream_buffer.c **** 		}
 2446              		.loc 1 1007 0
 2447 0032 0120     		movs	r0, #1
 2448              	.LVL262:
 2449              	.L209:
 2450              	.LBB170:
 2451              	.LBB171:
 2452              		.loc 2 229 0
 2453              		.syntax unified
 2454              	@ 229 "Middlewares/Third_Party/FreeRTOS/Source/portable/GCC/ARM_CM3/portmacro.h" 1
 2455 0034 85F31188 			msr basepri, r5	
 2456              	@ 0 "" 2
 2457              	.LVL263:
 2458              		.thumb
 2459              		.syntax unified
 2460              	.LBE171:
 2461              	.LBE170:
1017:Middlewares/Third_Party/FreeRTOS/Source/stream_buffer.c **** /*-----------------------------------------------------------*/
 2462              		.loc 1 1017 0
 2463 0038 03B0     		add	sp, sp, #12
 2464              	.LCFI55:
 2465              		.cfi_def_cfa_offset 12
 2466              		@ sp needed
 2467 003a 30BD     		pop	{r4, r5, pc}
 2468              	.LVL264:
 2469              	.L213:
 2470              	.LCFI56:
 2471              		.cfi_def_cfa_offset 0
 2472              		.cfi_restore 4
 2473              		.cfi_restore 5
 2474              		.cfi_restore 14
 2475              	.LBB172:
 2476              	.LBB173:
 195:Middlewares/Third_Party/FreeRTOS/Source/portable/GCC/ARM_CM3/portmacro.h **** 	(
 2477              		.loc 2 195 0
 2478              		.syntax unified
 2479              	@ 195 "Middlewares/Third_Party/FreeRTOS/Source/portable/GCC/ARM_CM3/portmacro.h" 1
 2480 003c 4FF05003 			mov r3, #80												
 2481 0040 83F31188 		msr basepri, r3											
 2482 0044 BFF36F8F 		isb														
 2483 0048 BFF34F8F 		dsb														
 2484              	
 2485              	@ 0 "" 2
 2486              	.LVL265:
 2487              		.thumb
 2488              		.syntax unified
 2489              	.L208:
 2490 004c FEE7     		b	.L208
 2491              	.L210:
 2492              	.LCFI57:
 2493              		.cfi_def_cfa_offset 24
 2494              		.cfi_offset 4, -12
 2495              		.cfi_offset 5, -8
 2496              		.cfi_offset 14, -4
 2497              	.LBE173:
ARM GAS  /tmp/ccvFwc0s.s 			page 73


 2498              	.LBE172:
1011:Middlewares/Third_Party/FreeRTOS/Source/stream_buffer.c **** 		}
 2499              		.loc 1 1011 0
 2500 004e 0020     		movs	r0, #0
 2501              	.LVL266:
 2502 0050 F0E7     		b	.L209
 2503              		.cfi_endproc
 2504              	.LFE20:
 2506              		.section	.text.uxStreamBufferGetStreamBufferNumber,"ax",%progbits
 2507              		.align	1
 2508              		.global	uxStreamBufferGetStreamBufferNumber
 2509              		.syntax unified
 2510              		.thumb
 2511              		.thumb_func
 2512              		.fpu softvfp
 2514              	uxStreamBufferGetStreamBufferNumber:
 2515              	.LFB25:
1168:Middlewares/Third_Party/FreeRTOS/Source/stream_buffer.c **** 	}
1169:Middlewares/Third_Party/FreeRTOS/Source/stream_buffer.c **** }
1170:Middlewares/Third_Party/FreeRTOS/Source/stream_buffer.c **** 
1171:Middlewares/Third_Party/FreeRTOS/Source/stream_buffer.c **** #if ( configUSE_TRACE_FACILITY == 1 )
1172:Middlewares/Third_Party/FreeRTOS/Source/stream_buffer.c **** 
1173:Middlewares/Third_Party/FreeRTOS/Source/stream_buffer.c **** 	UBaseType_t uxStreamBufferGetStreamBufferNumber( StreamBufferHandle_t xStreamBuffer )
1174:Middlewares/Third_Party/FreeRTOS/Source/stream_buffer.c **** 	{
 2516              		.loc 1 1174 0
 2517              		.cfi_startproc
 2518              		@ args = 0, pretend = 0, frame = 0
 2519              		@ frame_needed = 0, uses_anonymous_args = 0
 2520              		@ link register save eliminated.
 2521              	.LVL267:
1175:Middlewares/Third_Party/FreeRTOS/Source/stream_buffer.c **** 		return ( ( StreamBuffer_t * ) xStreamBuffer )->uxStreamBufferNumber;
1176:Middlewares/Third_Party/FreeRTOS/Source/stream_buffer.c **** 	}
 2522              		.loc 1 1176 0
 2523 0000 006A     		ldr	r0, [r0, #32]
 2524              	.LVL268:
 2525 0002 7047     		bx	lr
 2526              		.cfi_endproc
 2527              	.LFE25:
 2529              		.section	.text.vStreamBufferSetStreamBufferNumber,"ax",%progbits
 2530              		.align	1
 2531              		.global	vStreamBufferSetStreamBufferNumber
 2532              		.syntax unified
 2533              		.thumb
 2534              		.thumb_func
 2535              		.fpu softvfp
 2537              	vStreamBufferSetStreamBufferNumber:
 2538              	.LFB26:
1177:Middlewares/Third_Party/FreeRTOS/Source/stream_buffer.c **** 
1178:Middlewares/Third_Party/FreeRTOS/Source/stream_buffer.c **** #endif /* configUSE_TRACE_FACILITY */
1179:Middlewares/Third_Party/FreeRTOS/Source/stream_buffer.c **** /*-----------------------------------------------------------*/
1180:Middlewares/Third_Party/FreeRTOS/Source/stream_buffer.c **** 
1181:Middlewares/Third_Party/FreeRTOS/Source/stream_buffer.c **** #if ( configUSE_TRACE_FACILITY == 1 )
1182:Middlewares/Third_Party/FreeRTOS/Source/stream_buffer.c **** 
1183:Middlewares/Third_Party/FreeRTOS/Source/stream_buffer.c **** 	void vStreamBufferSetStreamBufferNumber( StreamBufferHandle_t xStreamBuffer, UBaseType_t uxStreamB
1184:Middlewares/Third_Party/FreeRTOS/Source/stream_buffer.c **** 	{
 2539              		.loc 1 1184 0
 2540              		.cfi_startproc
ARM GAS  /tmp/ccvFwc0s.s 			page 74


 2541              		@ args = 0, pretend = 0, frame = 0
 2542              		@ frame_needed = 0, uses_anonymous_args = 0
 2543              		@ link register save eliminated.
 2544              	.LVL269:
1185:Middlewares/Third_Party/FreeRTOS/Source/stream_buffer.c **** 		( ( StreamBuffer_t * ) xStreamBuffer )->uxStreamBufferNumber = uxStreamBufferNumber;
 2545              		.loc 1 1185 0
 2546 0000 0162     		str	r1, [r0, #32]
 2547 0002 7047     		bx	lr
 2548              		.cfi_endproc
 2549              	.LFE26:
 2551              		.section	.text.ucStreamBufferGetStreamBufferType,"ax",%progbits
 2552              		.align	1
 2553              		.global	ucStreamBufferGetStreamBufferType
 2554              		.syntax unified
 2555              		.thumb
 2556              		.thumb_func
 2557              		.fpu softvfp
 2559              	ucStreamBufferGetStreamBufferType:
 2560              	.LFB27:
1186:Middlewares/Third_Party/FreeRTOS/Source/stream_buffer.c **** 	}
1187:Middlewares/Third_Party/FreeRTOS/Source/stream_buffer.c **** 
1188:Middlewares/Third_Party/FreeRTOS/Source/stream_buffer.c **** #endif /* configUSE_TRACE_FACILITY */
1189:Middlewares/Third_Party/FreeRTOS/Source/stream_buffer.c **** /*-----------------------------------------------------------*/
1190:Middlewares/Third_Party/FreeRTOS/Source/stream_buffer.c **** 
1191:Middlewares/Third_Party/FreeRTOS/Source/stream_buffer.c **** #if ( configUSE_TRACE_FACILITY == 1 )
1192:Middlewares/Third_Party/FreeRTOS/Source/stream_buffer.c **** 
1193:Middlewares/Third_Party/FreeRTOS/Source/stream_buffer.c **** 	uint8_t ucStreamBufferGetStreamBufferType( StreamBufferHandle_t xStreamBuffer )
1194:Middlewares/Third_Party/FreeRTOS/Source/stream_buffer.c **** 	{
 2561              		.loc 1 1194 0
 2562              		.cfi_startproc
 2563              		@ args = 0, pretend = 0, frame = 0
 2564              		@ frame_needed = 0, uses_anonymous_args = 0
 2565              		@ link register save eliminated.
 2566              	.LVL270:
1195:Middlewares/Third_Party/FreeRTOS/Source/stream_buffer.c **** 		return ( ( StreamBuffer_t * )xStreamBuffer )->ucFlags | sbFLAGS_IS_MESSAGE_BUFFER;
 2567              		.loc 1 1195 0
 2568 0000 007F     		ldrb	r0, [r0, #28]	@ zero_extendqisi2
 2569              	.LVL271:
1196:Middlewares/Third_Party/FreeRTOS/Source/stream_buffer.c **** 	}
 2570              		.loc 1 1196 0
 2571 0002 40F00100 		orr	r0, r0, #1
 2572 0006 7047     		bx	lr
 2573              		.cfi_endproc
 2574              	.LFE27:
 2576              		.text
 2577              	.Letext0:
 2578              		.file 3 "/usr/include/newlib/machine/_default_types.h"
 2579              		.file 4 "/usr/include/newlib/sys/_stdint.h"
 2580              		.file 5 "/usr/lib/gcc/arm-none-eabi/6.3.1/include/stddef.h"
 2581              		.file 6 "/usr/include/newlib/sys/lock.h"
 2582              		.file 7 "/usr/include/newlib/sys/_types.h"
 2583              		.file 8 "/usr/include/newlib/sys/reent.h"
 2584              		.file 9 "Inc/FreeRTOSConfig.h"
 2585              		.file 10 "Middlewares/Third_Party/FreeRTOS/Source/include/FreeRTOS.h"
 2586              		.file 11 "Middlewares/Third_Party/FreeRTOS/Source/include/task.h"
 2587              		.file 12 "Middlewares/Third_Party/FreeRTOS/Source/include/stream_buffer.h"
 2588              		.file 13 "/usr/include/newlib/string.h"
ARM GAS  /tmp/ccvFwc0s.s 			page 75


 2589              		.file 14 "Middlewares/Third_Party/FreeRTOS/Source/include/portable.h"
ARM GAS  /tmp/ccvFwc0s.s 			page 76


DEFINED SYMBOLS
                            *ABS*:0000000000000000 stream_buffer.c
     /tmp/ccvFwc0s.s:16     .text.prvBytesInBuffer:0000000000000000 $t
     /tmp/ccvFwc0s.s:22     .text.prvBytesInBuffer:0000000000000000 prvBytesInBuffer
     /tmp/ccvFwc0s.s:54     .text.prvInitialiseNewStreamBuffer:0000000000000000 $t
     /tmp/ccvFwc0s.s:60     .text.prvInitialiseNewStreamBuffer:0000000000000000 prvInitialiseNewStreamBuffer
     /tmp/ccvFwc0s.s:137    .text.prvWriteBytesToBuffer:0000000000000000 $t
     /tmp/ccvFwc0s.s:143    .text.prvWriteBytesToBuffer:0000000000000000 prvWriteBytesToBuffer
     /tmp/ccvFwc0s.s:278    .text.prvWriteMessageToBuffer:0000000000000000 $t
     /tmp/ccvFwc0s.s:284    .text.prvWriteMessageToBuffer:0000000000000000 prvWriteMessageToBuffer
     /tmp/ccvFwc0s.s:380    .text.prvReadBytesFromBuffer:0000000000000000 $t
     /tmp/ccvFwc0s.s:386    .text.prvReadBytesFromBuffer:0000000000000000 prvReadBytesFromBuffer
     /tmp/ccvFwc0s.s:536    .text.prvReadMessageFromBuffer:0000000000000000 $t
     /tmp/ccvFwc0s.s:542    .text.prvReadMessageFromBuffer:0000000000000000 prvReadMessageFromBuffer
     /tmp/ccvFwc0s.s:618    .text.xStreamBufferGenericCreate:0000000000000000 $t
     /tmp/ccvFwc0s.s:625    .text.xStreamBufferGenericCreate:0000000000000000 xStreamBufferGenericCreate
     /tmp/ccvFwc0s.s:725    .text.xStreamBufferGenericCreateStatic:0000000000000000 $t
     /tmp/ccvFwc0s.s:732    .text.xStreamBufferGenericCreateStatic:0000000000000000 xStreamBufferGenericCreateStatic
     /tmp/ccvFwc0s.s:901    .text.vStreamBufferDelete:0000000000000000 $t
     /tmp/ccvFwc0s.s:908    .text.vStreamBufferDelete:0000000000000000 vStreamBufferDelete
     /tmp/ccvFwc0s.s:962    .text.xStreamBufferReset:0000000000000000 $t
     /tmp/ccvFwc0s.s:969    .text.xStreamBufferReset:0000000000000000 xStreamBufferReset
     /tmp/ccvFwc0s.s:1079   .text.xStreamBufferSetTriggerLevel:0000000000000000 $t
     /tmp/ccvFwc0s.s:1086   .text.xStreamBufferSetTriggerLevel:0000000000000000 xStreamBufferSetTriggerLevel
     /tmp/ccvFwc0s.s:1144   .text.xStreamBufferSpacesAvailable:0000000000000000 $t
     /tmp/ccvFwc0s.s:1151   .text.xStreamBufferSpacesAvailable:0000000000000000 xStreamBufferSpacesAvailable
     /tmp/ccvFwc0s.s:1209   .text.xStreamBufferBytesAvailable:0000000000000000 $t
     /tmp/ccvFwc0s.s:1216   .text.xStreamBufferBytesAvailable:0000000000000000 xStreamBufferBytesAvailable
     /tmp/ccvFwc0s.s:1259   .text.xStreamBufferSend:0000000000000000 $t
     /tmp/ccvFwc0s.s:1266   .text.xStreamBufferSend:0000000000000000 xStreamBufferSend
     /tmp/ccvFwc0s.s:1500   .text.xStreamBufferSendFromISR:0000000000000000 $t
     /tmp/ccvFwc0s.s:1507   .text.xStreamBufferSendFromISR:0000000000000000 xStreamBufferSendFromISR
     /tmp/ccvFwc0s.s:1694   .text.xStreamBufferReceive:0000000000000000 $t
     /tmp/ccvFwc0s.s:1701   .text.xStreamBufferReceive:0000000000000000 xStreamBufferReceive
     /tmp/ccvFwc0s.s:1934   .text.xStreamBufferReceiveFromISR:0000000000000000 $t
     /tmp/ccvFwc0s.s:1941   .text.xStreamBufferReceiveFromISR:0000000000000000 xStreamBufferReceiveFromISR
     /tmp/ccvFwc0s.s:2123   .text.xStreamBufferIsEmpty:0000000000000000 $t
     /tmp/ccvFwc0s.s:2130   .text.xStreamBufferIsEmpty:0000000000000000 xStreamBufferIsEmpty
     /tmp/ccvFwc0s.s:2182   .text.xStreamBufferIsFull:0000000000000000 $t
     /tmp/ccvFwc0s.s:2189   .text.xStreamBufferIsFull:0000000000000000 xStreamBufferIsFull
     /tmp/ccvFwc0s.s:2265   .text.xStreamBufferSendCompletedFromISR:0000000000000000 $t
     /tmp/ccvFwc0s.s:2272   .text.xStreamBufferSendCompletedFromISR:0000000000000000 xStreamBufferSendCompletedFromISR
     /tmp/ccvFwc0s.s:2386   .text.xStreamBufferReceiveCompletedFromISR:0000000000000000 $t
     /tmp/ccvFwc0s.s:2393   .text.xStreamBufferReceiveCompletedFromISR:0000000000000000 xStreamBufferReceiveCompletedFromISR
     /tmp/ccvFwc0s.s:2507   .text.uxStreamBufferGetStreamBufferNumber:0000000000000000 $t
     /tmp/ccvFwc0s.s:2514   .text.uxStreamBufferGetStreamBufferNumber:0000000000000000 uxStreamBufferGetStreamBufferNumber
     /tmp/ccvFwc0s.s:2530   .text.vStreamBufferSetStreamBufferNumber:0000000000000000 $t
     /tmp/ccvFwc0s.s:2537   .text.vStreamBufferSetStreamBufferNumber:0000000000000000 vStreamBufferSetStreamBufferNumber
     /tmp/ccvFwc0s.s:2552   .text.ucStreamBufferGetStreamBufferType:0000000000000000 $t
     /tmp/ccvFwc0s.s:2559   .text.ucStreamBufferGetStreamBufferType:0000000000000000 ucStreamBufferGetStreamBufferType
                     .debug_frame:0000000000000010 $d

UNDEFINED SYMBOLS
memset
memcpy
pvPortMalloc
vPortFree
ARM GAS  /tmp/ccvFwc0s.s 			page 77


vTaskSuspendAll
xTaskGenericNotify
xTaskResumeAll
vTaskSetTimeOutState
vPortEnterCritical
xTaskNotifyStateClear
xTaskGetCurrentTaskHandle
vPortExitCritical
xTaskNotifyWait
xTaskCheckForTimeOut
xTaskGenericNotifyFromISR
