ARM GAS  /tmp/ccb55h1h.s 			page 1


   1              		.cpu cortex-m3
   2              		.eabi_attribute 20, 1
   3              		.eabi_attribute 21, 1
   4              		.eabi_attribute 23, 3
   5              		.eabi_attribute 24, 1
   6              		.eabi_attribute 25, 1
   7              		.eabi_attribute 26, 1
   8              		.eabi_attribute 30, 1
   9              		.eabi_attribute 34, 1
  10              		.eabi_attribute 18, 4
  11              		.file	"UART.c"
  12              		.text
  13              	.Ltext0:
  14              		.cfi_sections	.debug_frame
  15              		.section	.text.Thread_UART_RX,"ax",%progbits
  16              		.align	1
  17              		.global	Thread_UART_RX
  18              		.syntax unified
  19              		.thumb
  20              		.thumb_func
  21              		.fpu softvfp
  23              	Thread_UART_RX:
  24              	.LFB69:
  25              		.file 1 "Src/UART.c"
   1:Src/UART.c    **** #include <string.h>
   2:Src/UART.c    **** #include "main.h"
   3:Src/UART.c    **** #include "cmsis_os.h"
   4:Src/UART.c    **** 
   5:Src/UART.c    **** extern void Error_Handler(void);
   6:Src/UART.c    **** extern osThreadId_t UART_TXHandle;
   7:Src/UART.c    **** extern osThreadId_t UART_RXHandle;
   8:Src/UART.c    **** extern osMessageQueueId_t Queue_UART_TXHandle;
   9:Src/UART.c    **** extern osMessageQueueId_t Queue_UART_RXHandle;
  10:Src/UART.c    **** extern UART_HandleTypeDef huart1;
  11:Src/UART.c    **** 
  12:Src/UART.c    **** static uint32_t Thread_UART_RX_max_stack_size = 0;
  13:Src/UART.c    **** static uint32_t Thread_UART_TX_max_stack_size = 0;
  14:Src/UART.c    **** static uint16_t UART_TX_queue_max_size = 0;
  15:Src/UART.c    **** static uint16_t UART_RX_queue_max_size = 0;
  16:Src/UART.c    **** 
  17:Src/UART.c    **** void
  18:Src/UART.c    **** Thread_UART_RX(void)
  19:Src/UART.c    **** {
  26              		.loc 1 19 0
  27              		.cfi_startproc
  28              		@ args = 0, pretend = 0, frame = 0
  29              		@ frame_needed = 0, uses_anonymous_args = 0
  30 0000 08B5     		push	{r3, lr}
  31              	.LCFI0:
  32              		.cfi_def_cfa_offset 8
  33              		.cfi_offset 3, -8
  34              		.cfi_offset 14, -4
  35 0002 41E0     		b	.L12
  36              	.LVL0:
  37              	.L6:
  38              	.LBB2:
  20:Src/UART.c    ****     static char rx_msg[MAX_LOG_MSG_SIZE+1] = {0};
ARM GAS  /tmp/ccb55h1h.s 			page 2


  21:Src/UART.c    ****     static uint8_t idx = MAX_LOG_MSG_SIZE;
  22:Src/UART.c    ****     
  23:Src/UART.c    ****     for (;;)
  24:Src/UART.c    ****     {
  25:Src/UART.c    ****         uint32_t Thread_UART_RX_stack_size = osThreadGetStackSpace(UART_RXHandle);
  26:Src/UART.c    ****         if ( Thread_UART_RX_stack_size > Thread_UART_RX_max_stack_size ) Thread_UART_RX_max_stack_s
  27:Src/UART.c    ****         if ( HAL_UART_Receive_IT(&huart1, (uint8_t *)(&rx_msg[0]), MAX_LOG_MSG_SIZE) != HAL_OK )
  28:Src/UART.c    ****         {
  29:Src/UART.c    ****             Error_Handler();
  30:Src/UART.c    ****         }
  31:Src/UART.c    ****         while ( huart1.RxState != HAL_UART_STATE_READY )
  32:Src/UART.c    ****         {
  33:Src/UART.c    ****             for ( idx = MAX_LOG_MSG_SIZE; idx > 0; idx-- )
  39              		.loc 1 33 0 discriminator 2
  40 0004 2A4A     		ldr	r2, .L17
  41 0006 1378     		ldrb	r3, [r2]	@ zero_extendqisi2
  42 0008 013B     		subs	r3, r3, #1
  43 000a 1370     		strb	r3, [r2]
  44              	.L5:
  45              		.loc 1 33 0 is_stmt 0 discriminator 1
  46 000c 284B     		ldr	r3, .L17
  47 000e 1B78     		ldrb	r3, [r3]	@ zero_extendqisi2
  48 0010 3BB1     		cbz	r3, .L14
  34:Src/UART.c    ****             {
  35:Src/UART.c    ****                 if ( rx_msg[idx] == '\n' )
  49              		.loc 1 35 0 is_stmt 1
  50 0012 284A     		ldr	r2, .L17+4
  51 0014 D35C     		ldrb	r3, [r2, r3]	@ zero_extendqisi2
  52 0016 0A2B     		cmp	r3, #10
  53 0018 F4D1     		bne	.L6
  36:Src/UART.c    ****                 {
  37:Src/UART.c    ****                     HAL_UART_AbortReceive_IT(&huart1);
  54              		.loc 1 37 0
  55 001a 2748     		ldr	r0, .L17+8
  56 001c FFF7FEFF 		bl	HAL_UART_AbortReceive_IT
  57              	.LVL1:
  58 0020 F0E7     		b	.L6
  59              	.L14:
  38:Src/UART.c    ****                 }
  39:Src/UART.c    ****             }
  40:Src/UART.c    ****             osThreadYield();
  60              		.loc 1 40 0
  61 0022 FFF7FEFF 		bl	osThreadYield
  62              	.LVL2:
  63              	.L4:
  31:Src/UART.c    ****         {
  64              		.loc 1 31 0
  65 0026 244B     		ldr	r3, .L17+8
  66 0028 93F83A30 		ldrb	r3, [r3, #58]	@ zero_extendqisi2
  67 002c DBB2     		uxtb	r3, r3
  68 002e 202B     		cmp	r3, #32
  69 0030 03D0     		beq	.L15
  33:Src/UART.c    ****             {
  70              		.loc 1 33 0
  71 0032 4022     		movs	r2, #64
  72 0034 1E4B     		ldr	r3, .L17
  73 0036 1A70     		strb	r2, [r3]
ARM GAS  /tmp/ccb55h1h.s 			page 3


  74 0038 E8E7     		b	.L5
  75              	.L15:
  41:Src/UART.c    ****         }
  42:Src/UART.c    ****       
  43:Src/UART.c    ****         //Echo received msg
  44:Src/UART.c    ****         for (idx = 0; rx_msg[idx]; idx++)
  76              		.loc 1 44 0
  77 003a 0022     		movs	r2, #0
  78 003c 1C4B     		ldr	r3, .L17
  79 003e 1A70     		strb	r2, [r3]
  80              	.L9:
  81              		.loc 1 44 0 is_stmt 0 discriminator 1
  82 0040 1B4B     		ldr	r3, .L17
  83 0042 1978     		ldrb	r1, [r3]	@ zero_extendqisi2
  84 0044 1B4B     		ldr	r3, .L17+4
  85 0046 5B5C     		ldrb	r3, [r3, r1]	@ zero_extendqisi2
  86 0048 63B1     		cbz	r3, .L16
  45:Src/UART.c    ****         {
  46:Src/UART.c    ****             osMessageQueuePut(Queue_UART_TXHandle, &rx_msg[idx], 0, 0);
  87              		.loc 1 46 0 is_stmt 1 discriminator 3
  88 004a 0023     		movs	r3, #0
  89 004c 1A46     		mov	r2, r3
  90 004e 1948     		ldr	r0, .L17+4
  91 0050 0144     		add	r1, r1, r0
  92 0052 1A48     		ldr	r0, .L17+12
  93 0054 0068     		ldr	r0, [r0]
  94 0056 FFF7FEFF 		bl	osMessageQueuePut
  95              	.LVL3:
  44:Src/UART.c    ****         {
  96              		.loc 1 44 0 discriminator 3
  97 005a 154A     		ldr	r2, .L17
  98 005c 1378     		ldrb	r3, [r2]	@ zero_extendqisi2
  99 005e 0133     		adds	r3, r3, #1
 100 0060 1370     		strb	r3, [r2]
 101 0062 EDE7     		b	.L9
 102              	.L16:
  47:Src/UART.c    ****         }
  48:Src/UART.c    ****         uint16_t UART_RX_queue_count = osMessageQueueGetCount(Queue_UART_RXHandle);
 103              		.loc 1 48 0
 104 0064 164B     		ldr	r3, .L17+16
 105 0066 1868     		ldr	r0, [r3]
 106 0068 FFF7FEFF 		bl	osMessageQueueGetCount
 107              	.LVL4:
 108 006c 80B2     		uxth	r0, r0
 109              	.LVL5:
  49:Src/UART.c    ****         if ( UART_RX_queue_count > UART_RX_queue_max_size ) UART_RX_queue_max_size = UART_RX_queue_
 110              		.loc 1 49 0
 111 006e 154B     		ldr	r3, .L17+20
 112 0070 1B88     		ldrh	r3, [r3]
 113 0072 9842     		cmp	r0, r3
 114 0074 01D9     		bls	.L11
 115              		.loc 1 49 0 is_stmt 0 discriminator 1
 116 0076 134B     		ldr	r3, .L17+20
 117 0078 1880     		strh	r0, [r3]	@ movhi
 118              	.L11:
  50:Src/UART.c    ****         memset(&rx_msg[0], 0, MAX_LOG_MSG_SIZE);
 119              		.loc 1 50 0 is_stmt 1
ARM GAS  /tmp/ccb55h1h.s 			page 4


 120 007a 4022     		movs	r2, #64
 121 007c 0021     		movs	r1, #0
 122 007e 0D48     		ldr	r0, .L17+4
 123              	.LVL6:
 124 0080 FFF7FEFF 		bl	memset
 125              	.LVL7:
  51:Src/UART.c    ****       
  52:Src/UART.c    ****         osThreadYield();
 126              		.loc 1 52 0
 127 0084 FFF7FEFF 		bl	osThreadYield
 128              	.LVL8:
 129              	.L12:
  25:Src/UART.c    ****         if ( Thread_UART_RX_stack_size > Thread_UART_RX_max_stack_size ) Thread_UART_RX_max_stack_s
 130              		.loc 1 25 0
 131 0088 0F4B     		ldr	r3, .L17+24
 132 008a 1868     		ldr	r0, [r3]
 133 008c FFF7FEFF 		bl	osThreadGetStackSpace
 134              	.LVL9:
  26:Src/UART.c    ****         if ( HAL_UART_Receive_IT(&huart1, (uint8_t *)(&rx_msg[0]), MAX_LOG_MSG_SIZE) != HAL_OK )
 135              		.loc 1 26 0
 136 0090 0E4B     		ldr	r3, .L17+28
 137 0092 1B68     		ldr	r3, [r3]
 138 0094 9842     		cmp	r0, r3
 139 0096 01D9     		bls	.L2
  26:Src/UART.c    ****         if ( HAL_UART_Receive_IT(&huart1, (uint8_t *)(&rx_msg[0]), MAX_LOG_MSG_SIZE) != HAL_OK )
 140              		.loc 1 26 0 is_stmt 0 discriminator 1
 141 0098 0C4B     		ldr	r3, .L17+28
 142 009a 1860     		str	r0, [r3]
 143              	.L2:
  27:Src/UART.c    ****         {
 144              		.loc 1 27 0 is_stmt 1
 145 009c 4022     		movs	r2, #64
 146 009e 0549     		ldr	r1, .L17+4
 147 00a0 0548     		ldr	r0, .L17+8
 148              	.LVL10:
 149 00a2 FFF7FEFF 		bl	HAL_UART_Receive_IT
 150              	.LVL11:
 151 00a6 0028     		cmp	r0, #0
 152 00a8 BDD0     		beq	.L4
  29:Src/UART.c    ****         }
 153              		.loc 1 29 0
 154 00aa FFF7FEFF 		bl	Error_Handler
 155              	.LVL12:
 156 00ae BAE7     		b	.L4
 157              	.L18:
 158              		.align	2
 159              	.L17:
 160 00b0 00000000 		.word	.LANCHOR2
 161 00b4 00000000 		.word	.LANCHOR1
 162 00b8 00000000 		.word	huart1
 163 00bc 00000000 		.word	Queue_UART_TXHandle
 164 00c0 00000000 		.word	Queue_UART_RXHandle
 165 00c4 00000000 		.word	.LANCHOR3
 166 00c8 00000000 		.word	UART_RXHandle
 167 00cc 00000000 		.word	.LANCHOR0
 168              	.LBE2:
 169              		.cfi_endproc
ARM GAS  /tmp/ccb55h1h.s 			page 5


 170              	.LFE69:
 172              		.section	.text.Thread_UART_TX,"ax",%progbits
 173              		.align	1
 174              		.global	Thread_UART_TX
 175              		.syntax unified
 176              		.thumb
 177              		.thumb_func
 178              		.fpu softvfp
 180              	Thread_UART_TX:
 181              	.LFB70:
  53:Src/UART.c    ****     }
  54:Src/UART.c    **** }
  55:Src/UART.c    **** 
  56:Src/UART.c    **** void
  57:Src/UART.c    **** Thread_UART_TX(void)
  58:Src/UART.c    **** {
 182              		.loc 1 58 0
 183              		.cfi_startproc
 184              		@ args = 0, pretend = 0, frame = 0
 185              		@ frame_needed = 0, uses_anonymous_args = 0
 186 0000 10B5     		push	{r4, lr}
 187              	.LCFI1:
 188              		.cfi_def_cfa_offset 8
 189              		.cfi_offset 4, -8
 190              		.cfi_offset 14, -4
 191 0002 10E0     		b	.L23
 192              	.LVL13:
 193              	.L22:
 194              	.LBB3:
  59:Src/UART.c    ****     static char ch;
  60:Src/UART.c    ****     
  61:Src/UART.c    ****     for (;;)
  62:Src/UART.c    ****     {
  63:Src/UART.c    ****         uint32_t Thread_UART_TX_stack_size = osThreadGetStackSpace(UART_TXHandle);
  64:Src/UART.c    ****         if ( Thread_UART_TX_stack_size > Thread_UART_TX_max_stack_size ) Thread_UART_TX_max_stack_s
  65:Src/UART.c    ****         
  66:Src/UART.c    ****         uint16_t UART_TX_queue_count = osMessageQueueGetCount(Queue_UART_TXHandle);
  67:Src/UART.c    ****         if ( UART_TX_queue_count > 0 )
  68:Src/UART.c    ****         {
  69:Src/UART.c    ****             if ( UART_TX_queue_count > UART_TX_queue_max_size ) UART_TX_queue_max_size = UART_TX_qu
  70:Src/UART.c    ****             osMessageQueueGet(Queue_UART_TXHandle, &ch, 0, 0);
 195              		.loc 1 70 0
 196 0004 144C     		ldr	r4, .L25
 197 0006 0023     		movs	r3, #0
 198 0008 1A46     		mov	r2, r3
 199 000a 2146     		mov	r1, r4
 200 000c 1348     		ldr	r0, .L25+4
 201              	.LVL14:
 202 000e 0068     		ldr	r0, [r0]
 203 0010 FFF7FEFF 		bl	osMessageQueueGet
 204              	.LVL15:
  71:Src/UART.c    ****             HAL_UART_Transmit(&huart1, (uint8_t *)(&ch), 1, HAL_MAX_DELAY);
 205              		.loc 1 71 0
 206 0014 4FF0FF33 		mov	r3, #-1
 207 0018 0122     		movs	r2, #1
 208 001a 2146     		mov	r1, r4
 209 001c 1048     		ldr	r0, .L25+8
ARM GAS  /tmp/ccb55h1h.s 			page 6


 210 001e FFF7FEFF 		bl	HAL_UART_Transmit
 211              	.LVL16:
 212              	.L21:
  72:Src/UART.c    ****         }
  73:Src/UART.c    ****         osThreadYield();
 213              		.loc 1 73 0
 214 0022 FFF7FEFF 		bl	osThreadYield
 215              	.LVL17:
 216              	.L23:
  63:Src/UART.c    ****         if ( Thread_UART_TX_stack_size > Thread_UART_TX_max_stack_size ) Thread_UART_TX_max_stack_s
 217              		.loc 1 63 0
 218 0026 0F4B     		ldr	r3, .L25+12
 219 0028 1868     		ldr	r0, [r3]
 220 002a FFF7FEFF 		bl	osThreadGetStackSpace
 221              	.LVL18:
  64:Src/UART.c    ****         
 222              		.loc 1 64 0
 223 002e 0E4B     		ldr	r3, .L25+16
 224 0030 1B68     		ldr	r3, [r3]
 225 0032 9842     		cmp	r0, r3
 226 0034 01D9     		bls	.L20
  64:Src/UART.c    ****         
 227              		.loc 1 64 0 is_stmt 0 discriminator 1
 228 0036 0C4B     		ldr	r3, .L25+16
 229 0038 1860     		str	r0, [r3]
 230              	.L20:
  66:Src/UART.c    ****         if ( UART_TX_queue_count > 0 )
 231              		.loc 1 66 0 is_stmt 1
 232 003a 084B     		ldr	r3, .L25+4
 233 003c 1868     		ldr	r0, [r3]
 234              	.LVL19:
 235 003e FFF7FEFF 		bl	osMessageQueueGetCount
 236              	.LVL20:
 237 0042 80B2     		uxth	r0, r0
 238              	.LVL21:
  67:Src/UART.c    ****         {
 239              		.loc 1 67 0
 240 0044 0028     		cmp	r0, #0
 241 0046 ECD0     		beq	.L21
  69:Src/UART.c    ****             osMessageQueueGet(Queue_UART_TXHandle, &ch, 0, 0);
 242              		.loc 1 69 0
 243 0048 084B     		ldr	r3, .L25+20
 244 004a 1B88     		ldrh	r3, [r3]
 245 004c 9842     		cmp	r0, r3
 246 004e D9D9     		bls	.L22
  69:Src/UART.c    ****             osMessageQueueGet(Queue_UART_TXHandle, &ch, 0, 0);
 247              		.loc 1 69 0 is_stmt 0 discriminator 1
 248 0050 064B     		ldr	r3, .L25+20
 249 0052 1880     		strh	r0, [r3]	@ movhi
 250 0054 D6E7     		b	.L22
 251              	.L26:
 252 0056 00BF     		.align	2
 253              	.L25:
 254 0058 00000000 		.word	.LANCHOR6
 255 005c 00000000 		.word	Queue_UART_TXHandle
 256 0060 00000000 		.word	huart1
 257 0064 00000000 		.word	UART_TXHandle
ARM GAS  /tmp/ccb55h1h.s 			page 7


 258 0068 00000000 		.word	.LANCHOR4
 259 006c 00000000 		.word	.LANCHOR5
 260              	.LBE3:
 261              		.cfi_endproc
 262              	.LFE70:
 264              		.section	.bss.Thread_UART_RX_max_stack_size,"aw",%nobits
 265              		.align	2
 266              		.set	.LANCHOR0,. + 0
 269              	Thread_UART_RX_max_stack_size:
 270 0000 00000000 		.space	4
 271              		.section	.bss.Thread_UART_TX_max_stack_size,"aw",%nobits
 272              		.align	2
 273              		.set	.LANCHOR4,. + 0
 276              	Thread_UART_TX_max_stack_size:
 277 0000 00000000 		.space	4
 278              		.section	.bss.UART_RX_queue_max_size,"aw",%nobits
 279              		.align	1
 280              		.set	.LANCHOR3,. + 0
 283              	UART_RX_queue_max_size:
 284 0000 0000     		.space	2
 285              		.section	.bss.UART_TX_queue_max_size,"aw",%nobits
 286              		.align	1
 287              		.set	.LANCHOR5,. + 0
 290              	UART_TX_queue_max_size:
 291 0000 0000     		.space	2
 292              		.section	.bss.ch.7324,"aw",%nobits
 293              		.set	.LANCHOR6,. + 0
 296              	ch.7324:
 297 0000 00       		.space	1
 298              		.section	.bss.rx_msg.7307,"aw",%nobits
 299              		.align	2
 300              		.set	.LANCHOR1,. + 0
 303              	rx_msg.7307:
 304 0000 00000000 		.space	65
 304      00000000 
 304      00000000 
 304      00000000 
 304      00000000 
 305              		.section	.data.idx.7308,"aw",%progbits
 306              		.set	.LANCHOR2,. + 0
 309              	idx.7308:
 310 0000 40       		.byte	64
 311              		.text
 312              	.Letext0:
 313              		.file 2 "/usr/include/newlib/machine/_default_types.h"
 314              		.file 3 "/usr/include/newlib/sys/lock.h"
 315              		.file 4 "/usr/include/newlib/sys/_types.h"
 316              		.file 5 "/usr/lib/gcc/arm-none-eabi/6.3.1/include/stddef.h"
 317              		.file 6 "/usr/include/newlib/sys/reent.h"
 318              		.file 7 "/usr/include/newlib/sys/_stdint.h"
 319              		.file 8 "Drivers/CMSIS/Include/core_cm3.h"
 320              		.file 9 "Drivers/CMSIS/Device/ST/STM32F1xx/Include/system_stm32f1xx.h"
 321              		.file 10 "Drivers/CMSIS/Device/ST/STM32F1xx/Include/stm32f103xb.h"
 322              		.file 11 "Drivers/STM32F1xx_HAL_Driver/Inc/stm32f1xx_hal_def.h"
 323              		.file 12 "Drivers/STM32F1xx_HAL_Driver/Inc/stm32f1xx_hal_dma.h"
 324              		.file 13 "Drivers/STM32F1xx_HAL_Driver/Inc/stm32f1xx_hal_uart.h"
 325              		.file 14 "Drivers/STM32F1xx_HAL_Driver/Inc/stm32f1xx_hal.h"
ARM GAS  /tmp/ccb55h1h.s 			page 8


 326              		.file 15 "Middlewares/Third_Party/FreeRTOS/Source/CMSIS_RTOS_V2/cmsis_os2.h"
ARM GAS  /tmp/ccb55h1h.s 			page 9


DEFINED SYMBOLS
                            *ABS*:0000000000000000 UART.c
     /tmp/ccb55h1h.s:16     .text.Thread_UART_RX:0000000000000000 $t
     /tmp/ccb55h1h.s:23     .text.Thread_UART_RX:0000000000000000 Thread_UART_RX
     /tmp/ccb55h1h.s:160    .text.Thread_UART_RX:00000000000000b0 $d
     /tmp/ccb55h1h.s:173    .text.Thread_UART_TX:0000000000000000 $t
     /tmp/ccb55h1h.s:180    .text.Thread_UART_TX:0000000000000000 Thread_UART_TX
     /tmp/ccb55h1h.s:254    .text.Thread_UART_TX:0000000000000058 $d
     /tmp/ccb55h1h.s:265    .bss.Thread_UART_RX_max_stack_size:0000000000000000 $d
     /tmp/ccb55h1h.s:269    .bss.Thread_UART_RX_max_stack_size:0000000000000000 Thread_UART_RX_max_stack_size
     /tmp/ccb55h1h.s:272    .bss.Thread_UART_TX_max_stack_size:0000000000000000 $d
     /tmp/ccb55h1h.s:276    .bss.Thread_UART_TX_max_stack_size:0000000000000000 Thread_UART_TX_max_stack_size
     /tmp/ccb55h1h.s:279    .bss.UART_RX_queue_max_size:0000000000000000 $d
     /tmp/ccb55h1h.s:283    .bss.UART_RX_queue_max_size:0000000000000000 UART_RX_queue_max_size
     /tmp/ccb55h1h.s:286    .bss.UART_TX_queue_max_size:0000000000000000 $d
     /tmp/ccb55h1h.s:290    .bss.UART_TX_queue_max_size:0000000000000000 UART_TX_queue_max_size
     /tmp/ccb55h1h.s:296    .bss.ch.7324:0000000000000000 ch.7324
     /tmp/ccb55h1h.s:297    .bss.ch.7324:0000000000000000 $d
     /tmp/ccb55h1h.s:299    .bss.rx_msg.7307:0000000000000000 $d
     /tmp/ccb55h1h.s:303    .bss.rx_msg.7307:0000000000000000 rx_msg.7307
     /tmp/ccb55h1h.s:309    .data.idx.7308:0000000000000000 idx.7308
                     .debug_frame:0000000000000010 $d

UNDEFINED SYMBOLS
HAL_UART_AbortReceive_IT
osThreadYield
osMessageQueuePut
osMessageQueueGetCount
memset
osThreadGetStackSpace
HAL_UART_Receive_IT
Error_Handler
huart1
Queue_UART_TXHandle
Queue_UART_RXHandle
UART_RXHandle
osMessageQueueGet
HAL_UART_Transmit
UART_TXHandle
